Mc:_glClearStencil
Zxe:_Array_InternalArray__ICollection_Add_TisMark_t2724874473_m1613484179_gshared
Xyi:__ZL80Graphic_t2426225576_CustomAttributesCacheGenerator_Graphic_OnFillVBO_m1723985607P21CustomAttributesCache
jbg:_RuntimeTypeHandle_GetObjectData_m3567098501
o2g:_TypeBuilder_ToString_m1952363535
bak:__ZN6il2cpp2vm5Array13GetByteLengthEP11Il2CppArray
wGi:_Raycast3DCallback_BeginInvoke_m3028685017
Oug:__Z79RuntimeInvoker_RuntimeObject_Int64_t909078037_Int64_t909078037_Int64_t909078037PFvvEPK10MethodInfoPvPS4_
uTh:_EqualityComparer_1__cctor_m968537130_gshared
Jfj:_TextGenerator_get_lineCount_m4287181941
brd:__ZN15DownloadHandler7OnAbortEv
GAj:_Comparison_1_Invoke_m353639462_gshared
Qog:_UInt64_System_IConvertible_ToDecimal_m4205696037
PSd:_GraphicRegistry_RegisterGraphicForCanvas_m2284226562
uIa:__Z21SourceMipLevelForBlitiiii
kmb:__ZN31CanvasBatchIntermediateRenderer15AddAsRenderNodeER15RenderNodeQueueRK20DeprecatedSourceData
O$g:_GenericTypeParameterBuilder_GetEvent_m4210567427
bjh:_Playable__ctor_m2954384102
kbe:_Enumerator_get_Key_m2908810861
pnd:__ZN11UnityEngine7Connect14AppUpdateEventD0Ev
ash:_AnimatorControllerPlayable_SetBool_m1780824884_AdjustorThunk
nUg:__Z35RuntimeInvoker_UIVertex_t1204258818PFvvEPK10MethodInfoPvPS4_
q_:__ZdlPv
OF:__ZN23AnimationOffsetPlayable11SetRotationE11Quaternionf
qs:__ZN11UnityEngine9Animation28GenericAnimationBindingCacheD2Ev
Eqh:_AnimationOffsetPlayable_op_Explicit_m363086289
W2h:__ZL68RemotingSurrogateSelector_t2821375126_CustomAttributesCacheGeneratorP21CustomAttributesCache
Jcf:_List_1_System_Collections_IList_IndexOf_m39706221_gshared
uqj:_UnityEvent_1_RemoveListener_m219620396_gshared
rNh:_Dictionary_2_Remove_m1849931834_gshared
Pde:_Decimal_op_Implicit_m2971610317
lQd:_Graphic_UnregisterDirtyVerticesCallback_m1526739224
B8a:__Z18RestoreRenderStateR20CameraRenderOldStateR17ShaderPassContext
R6d:_SynchronizedArrayListWrapper_get_Item_m3309425850
SOb:__Z18Transfer_BlittableI18StreamedBinaryReadILb1EELb1E5RectTIfEEvRK29SerializationCommandArgumentsR31RuntimeSerializationCommandInfo
gLb:__Z18Transfer_BlittableI24GenerateTypeTreeTransferLb0E11ColorRGBA32EvRK29SerializationCommandArgumentsR31RuntimeSerializationCommandInfo
E4:__Z25scripting_class_from_name17ScriptingImagePtrPKcS1_
GYj:__ZN14dense_hash_mapI10KeyWrapperINSt3__24pairIPK12PropertyInfoP11Il2CppClassEEEj17ReflectionMapHashIS8_ENS9_14EqualsComparerINS1_8equal_toIS8_EEEENS1_9allocatorINS2_IKS9_jEEEEE15set_deleted_keyERSH_
aEb:__Z29scripting_class_enum_basetype17ScriptingClassPtr
oQi:__ZN21InterfaceFuncInvoker3IP12Il2CppObjectP8String_tS1_PS3_E6InvokeEjP11Il2CppClassS1_S3_S1_S4_
ETd:_GraphicRaycaster_get_ignoreReversedGraphics_m2757724367
pGg:__Z111RuntimeInvoker_Void_t1841601450_Vector4_t2243707581_Vector4_t2243707581_Vector4_t2243707581_Vector4_t2243707581PFvvEPK10MethodInfoPvPS4_
Bjb:__ZNK12BaseRenderer18GetRenderNodeCountEv
UWc:__ZN16PhysicsManager2D7RaycastERK3RayfiR12RaycastHit2D
z0g:_GenericTypeParameterBuilder_GetHashCode_m867619899
Vkg:_TimeSpan_ToString_m2947282901
NSh:_EqualityComparer_1__cctor_m3397254040_gshared
Nea:__ZNK20LocalFileSystemPosix6ParentERK13FileEntryDataRN4core12basic_stringIcNS3_20StringStorageDefaultIcEEEE
lWj:__ZN15dense_hashtableINSt3__24pairIK10KeyWrapperINS1_IPK9EventInfoP11Il2CppClassEEEjEES9_17ReflectionMapHashIS8_EN14dense_hash_mapIS9_jSD_NS9_14EqualsComparerINS0_8equal_toIS8_EEEENS0_9allocatorISB_EEE9SelectKeyESI_SK_E4swapERSN_
amh:_RaycastHit2D_get_distance_m4065977169
Dfj:_TextGenerator_get_verts_m3124035267
YXe:_MonoType_CheckMethodSecurity_m4116906190
iij:_Vector2_get_one_m3174311904
rDe:_Array_Sort_TisVector2_t2243707579_m1307634946_gshared
$xa:__ZN17PersistentManager22CheckInstanceIDsLoadedEPii
oGa:__ZN7ApiGLES17CopyBufferSubDataEjjlll
Knb:__ZNK20ScriptPlayableOutput7GetTypeEv
uii:__ZL99Sprite_t309593783_CustomAttributesCacheGenerator_Sprite_get_associatedAlphaSplitTexture_m3617241169P21CustomAttributesCache
TFj:__ZNSt3__26vectorIPK10Il2CppTypeNS_9allocatorIS3_EEE7reserveEj
CBj:_U3CCreateWhereIteratorU3Ec__Iterator1D_1_Reset_m1773515612_gshared
Y$a:__ZN25CameraStackRenderingState20GetOrCreateBuiltinRTE24BuiltinRenderTextureTypeii17DepthBufferFormat19RenderTextureFormatj22RenderTextureReadWrite14VRTextureUsagei
gXd:_InputField_get_caretPosition_m1005871812
ULh:_Dictionary_2__ctor_m3111963761_gshared
_sj:_AesManaged_CreateEncryptor_m1729287824
Lub:__ZNK14Texture2DArray26CanReuploadDataToGfxDeviceEv
C4a:__ZN17PrePassRenderLoop14RenderBasePassEP13RenderTextureRK14LightingLayersR13dynamic_arrayI16RenderObjectDataLj4EERbR10MinMaxAABB
Fib:__ZN17GlobalGameManager23VirtualRedirectTransferER17RemapPPtrTransfer
b7c:_sfnt_stream_close
W3d:_Char_System_IConvertible_ToInt16_m2741348777_AdjustorThunk
Rnc:__ZN5IMGUI18RepaintModalWindowER8GUIState
kSd:_FontData_get_verticalOverflow_m83665814
Xzf:_ReadOnlyCollection_1_System_Collections_Generic_IListU3CTU3E_set_Item_m1547026160_gshared
bYh:__ZL61MarshalAsAttribute_t2900773360_CustomAttributesCacheGeneratorP21CustomAttributesCache
qtb:__Z23SetSpriteMeshIndexCountP14SharedMeshDataj
eia:__ZN7Texture13SetFilterModeEi
Qdc:__Z46Register_UnityEngine_Application_get_isPlayingv
Fbk:__ZN6il2cpp8metadata13GenericMethod9GetMethodEPK19Il2CppGenericMethod
Wq:__ZNSt3__26vectorIN4core12basic_stringIcNS1_20StringStorageDefaultIcEEEENS_9allocatorIS5_EEE7reserveEj
ige:_Convert_ToUInt16_m2130758075
OUj:__ZN15dense_hashtableINSt3__24pairIK10KeyWrapperINS1_IPK11Il2CppImageP11Il2CppClassEEEjEES9_17ReflectionMapHashIS8_EN14dense_hash_mapIS9_jSD_NS9_14EqualsComparerINS0_8equal_toIS8_EEEENS0_9allocatorISB_EEE9SelectKeyESI_SK_E3endEv
hIg:__Z132RuntimeInvoker_Void_t1841601450_RuntimeObject_AnimatorStateInfo_t2577870592_Int32_t2071877448_AnimatorControllerPlayable_t1744083903PFvvEPK10MethodInfoPvPS4_
VZf:_X509BasicConstraintsExtension_Encode_m3505127076
fBa:__ZN13GfxDeviceGLES11SetViewportERK5RectTIiE
jVd:_Image_get_pixelsPerUnit_m4104195799
TMi:_Toggle_InternalToggle_m2323729210
$je:_Decimal_System_IConvertible_ToInt64_m2504363272
c$d:_Array_GetValue_m3182152438
be:_emscripten_glDepthRange
jdg:_DESTransform_CipherFunct_m3559419566
Dpg:_UIntPtr_get_Size_m537421489
$ud:_Rijndael_Create_m113171669
P9g:_GUILayoutGroup_CalcWidth_m4107152934
Oag:_RuntimeFieldHandle_get_Value_m3963757144
uUb:__Z14resize_trimmedINSt3__26vectorIN9ShaderLab20SerializedSubProgram12UAVParameterENS0_9allocatorIS4_EEEEEvRT_j
c4f:_SerializationInfo_AddValue_m1781549036
PRg:__Z59RuntimeInvoker_Void_t1841601450_PlayableBinding_t2498078091PFvvEPK10MethodInfoPvPS4_
iqh:_AnimationLayerMixerPlayable_SetLayerMaskFromAvatarMask_m2582039992_AdjustorThunk
JNf:_TlsServerKeyExchange_verifySignature_m3641534563
Zvf:_Collection_1_Clear_m445145071_gshared
fLi:_Slider_FindSelectableOnLeft_m3136767885
UHa:__ZN4crndL20crnd_default_reallocEPvjPjbS0_
WSd:__ZN21InterfaceFuncInvoker1IP19Material_t193706927S1_E6InvokeEjP11Il2CppClassP12Il2CppObjectS1_
Tue:_Array_BinarySearch_TisInt32_t2071877448_m51233948_gshared
upk:__ZNSt3__212basic_stringIcNS_11char_traitsIcEENS_9allocatorIcEEEC2ERKS5_
O6f:_ProviderData_CopyFrom_m431414335
FJg:__Z74RuntimeInvoker_Boolean_t3825574718_Vector2_t2243707579_Vector2_t2243707579PFvvEPK10MethodInfoPvPS4_
hub:__ZN18SpriteAtlasManager19AddRequestingSpriteE4PPtrI6SpriteE
Ggg:_UTF32Encoding_GetPreamble_m767706727
$kc:__Z33Texture_CUSTOM_Internal_GetHeightP12Il2CppObject
b6b:__Z20IsValidRealtimeLightRK15SharedLightData9LightTypej
AZd:_LayoutGroup_get_preferredHeight_m3901163825
dzg:__Z111RuntimeInvoker_Void_t1841601450_RuntimeObject_SByte_t454417549_ObjectU26_t597476745_HeaderU5BU5DU26_t2818328198PFvvEPK10MethodInfoPvPS4_
A7a:__ZN23ScriptableRenderContextC2Ev
ikb:__ZN4PPtrI13RenderTextureE8TransferI18StreamedBinaryReadILb0EEEEvRT_
mdc:__Z22InverseTransformVector23TransformAccessReadOnlyRKN4math7_float3E
zde:_DateTime_AbsoluteDays_m3061694073
_dd:_UNITY_FT_Stream_GetChar
pPb:__Z18Transfer_BlittableI18StreamedBinaryReadILb1EELb1EdEvRK29SerializationCommandArgumentsR31RuntimeSerializationCommandInfo
pHh:_Enumerator_System_Collections_IEnumerator_get_Current_m229223308_gshared
wdi:__ZL202U3CCreateWhereIteratorU3Ec__Iterator1D_1_t2523986802_CustomAttributesCacheGenerator_U3CCreateWhereIteratorU3Ec__Iterator1D_1_System_Collections_Generic_IEnumerableU3CTSourceU3E_GetEnumerator_m2392330777P21CustomAttributesCache
jEb:__Z26BuildSerializationCacheFor17ScriptingClassPtrRb
CKa:__ZN7ApiGLES15BlitFramebufferEN2gl6HandleILNS0_10ObjectTypeE9EEENS0_15FramebufferReadES3_S3_iiiiiiiiNS0_15FramebufferTypeE
jPj:_il2cpp_class_get_name
VDg:__Z112RuntimeInvoker_RuntimeObject_RuntimeObject_RuntimeObject_RuntimeObject_RuntimeObject_RuntimeObject_RuntimeObjectPFvvEPK10MethodInfoPvPS4_
n1h:__ZL55GCHandleType_t1970708122_CustomAttributesCacheGeneratorP21CustomAttributesCache
TDh:_Event_Init_m3901382626
Tyj:__ZL25UnresolvedVirtualCall_150P12Il2CppObject23SpriteState_t1353336012S1_PK10MethodInfo
A6d:_FixedSizeArrayListWrapper_AddRange_m2071800418
$D:__ZN13ProduceHelperI8AnimatorLb0EE7ProduceE18MemLabelIdentifier18ObjectCreationMode
cga:__Z9InitInputv
yAg:__Z85RuntimeInvoker_Boolean_t3825574718_Int64_t909078037_Int64_t909078037_SByte_t454417549PFvvEPK10MethodInfoPvPS4_
Fej:_StateMachineBehaviour_OnStateUpdate_m2021794605
wbf:_Enumerator_VerifyState_m2358705882_AdjustorThunk
eMb:__Z29Transfer_Blittable_ArrayFieldI24GenerateTypeTreeTransfer11ColorRGBA32EvRT_R9ArrayInfoRK23StaticTransferFieldInfo
vHi:_Selectable_Navigate_m915280351
Peb:__ZN16MemoryFileSystem6DeleteER13FileEntryDatab
Hij:_Vector3_get_normalized_m936072361
Dva:__ZL21BlitScaleStbImageImplRK14ImageReferenceRS_NS_10ColorSpaceE
oUf:_TlsStream_set_Position_m378064217
vIc:__Z9UpdateTplIL27ParticleSystemCurveEvalMode0EEvRK11MinMaxCurveS3_S3_R23ParticleSystemParticlesjjRKN4math8float3x3ERKNS6_7_float4E
GD:__ZN18StreamedBinaryReadILb0EE21TransferSTLStyleArrayI13dynamic_arrayIjLj4EEEEvRT_17TransferMetaFlags
wYc:__ZNSt3__26__sortIR31RayHitsByInverseDepthComparitorP12RaycastHit2DEEvT0_S5_T_
BHb:__Z29Transfer_Blittable_ArrayFieldI14SafeBinaryReadyEvRT_R9ArrayInfoRK23StaticTransferFieldInfo
RO:__ZN20SoundChannelInstance15setChannelGroupEPN4FMOD12ChannelGroupE
yTj:__ZNK15dense_hashtableINSt3__24pairIK10KeyWrapperINS1_IPK9FieldInfoP11Il2CppClassEEEjEES9_17ReflectionMapHashIS8_EN14dense_hash_mapIS9_jSD_NS9_14EqualsComparerINS0_8equal_toIS8_EEEENS0_9allocatorISB_EEE9SelectKeyESI_SK_E12test_deletedERK24dense_hashtable_iteratorISB_S9_SD_SM_SI_SK_E
nFc:__ZN12LightsModule13AwakeFromLoadEP14ParticleSystemRK27ParticleSystemReadOnlyState
mAd:_Evidence_Equals_m2325859915
JXg:_Default__ctor_m172834064
Ac:invoke_vifffii
mxi:__ZL77StandaloneInputModule_t70867863_CustomAttributesCacheGenerator_m_VerticalAxisP21CustomAttributesCache
GRb:__Z35Transfer_Blittable_FixedBufferFieldI18StreamedBinaryReadILb0EEaEvRK29SerializationCommandArgumentsR31RuntimeSerializationCommandInfo
_Bh:_Component_GetComponents_m637589504
I8i:_Regex_IsMatch_m2159202025
fRa:__ZNK25MultiBlocksMemoryFileData5CloneEv
ihk:_GC_add_ext_descriptor
gik:__ZN6il2cpp2os14WindowsRuntime22GetRestrictedErrorInfoEv
BVd:_Image_CalculateLayoutInputHorizontal_m3275149860
F3f:_RemotingServices_GetMethodBaseFromName_m3271095947
XSa:__ZN17ArchiveFileSystem11CreateAsDirER13FileEntryData
jyj:__ZL25UnresolvedVirtualCall_114P12Il2CppObjectssaaaPK10MethodInfo
wrk:dynCall_iiiiiiiiiiii
sFd:_ASCIIEncoding_GetBytes_m3617160053
K1i:_InternalEnumerator_1_MoveNext_m2289229080_AdjustorThunk
NMf:_CipherSuiteCollection_System_Collections_IList_RemoveAt_m143866082
ZE:__ZN26AnimatorControllerPlayable26ParameterControlledByCurveEi
aAa:__ZN22VertexDeclarationCacheD0Ev
KYb:__ZL26KeywordSetToStringDontSortRKNSt3__26vectorIN4core12basic_stringIcNS1_20StringStorageDefaultIcEEEENS_9allocatorIS5_EEEERS5_
ymd:__Z54Register_UnityEngine_Analytics_CustomEventData_AddCharv
Gqa:__ZN6prcoreL17RemapGenericFloatI16TexFormatRGFloat17TexFormatRGBAHalfEEvPKNS_9InnerInfoE
vJ:__ZN12AudioManager22CreateFMODSoundFromWWWEP10IWWWStream15FMOD_SOUND_TYPE17FMOD_SOUND_FORMATjjbbP10SampleClip
K3b:__ZNK32RendererMaterialAnimationBinding15GenerateBindingERKN4core12basic_stringIcNS0_20StringStorageDefaultIcEEEEbRN11UnityEngine9Animation14GenericBindingE
mVj:__ZN24dense_hashtable_iteratorINSt3__24pairIK10KeyWrapperINS1_IPK11Il2CppImageP11Il2CppClassEEEjEES9_17ReflectionMapHashIS8_EN14dense_hash_mapIS9_jSD_NS9_14EqualsComparerINS0_8equal_toIS8_EEEENS0_9allocatorISB_EEE9SelectKeyESI_SK_E30advance_past_empty_and_deletedEv
GDg:__Z40RuntimeInvoker_HandshakeType_t2540099417PFvvEPK10MethodInfoPvPS4_
lFh:_UnityEventBase_UnityEngine_ISerializationCallbackReceiver_OnBeforeSerialize_m1773826808
EQh:_DefaultComparer_GetHashCode_m361278435_gshared
PNj:__ZNSt3__26vectorIN6il2cpp6icalls8mscorlib6System12PropertyPairENS_9allocatorIS5_EEE21__push_back_slow_pathIS5_EEvOT_
U3:__ZN8Remapper23GetOrGenerateInstanceIDERK26SerializedObjectIdentifier
IUe:_StreamWriter_Flush_m3426120024
bTa:__ZN17FileSystemHandler10AtomicMoveER13FileEntryDataS1_
ab:invoke_iiiiiifffiiifii
lSe:_MemoryStream__ctor_m1489366847
HAd:_SecurityElement_IsValidTag_m64902195
sHh:_Enumerator_System_Collections_IEnumerator_get_Current_m229223308_AdjustorThunk
A6g:_PropertyInfo_SetValue_m2961483868
c9g:_GUILayoutEntry_set_style_m70917293
oif:_List_1_System_Collections_IList_Contains_m4193366963_gshared
Kqj:_UnityEvent_3_FindMethod_Impl_m1889846153_gshared
P4f:_DictionaryEnumerator_get_Value_m1915638953
fYg:_ConstructorInfo_Invoke_m2144827141
hji:__ZL82Object_t1021602117_CustomAttributesCacheGenerator_Object_get_hideFlags_m4158950869P21CustomAttributesCache
Dtb:__ZN6Sprite8TransferI24GenerateTypeTreeTransferEEvRT_
hmc:__Z48Register_UnityEngine_Transform_SetAsFirstSiblingv
o7g:_Font_get_fontSize_m1732593415
Gtb:__ZN7SubMesh8TransferI24GenerateTypeTreeTransferEEvRT_
D5g:_MonoProperty_get_CanWrite_m2124922514
eNj:__ZN6il2cpp6icalls8mscorlib6SystemL16CheckMemberMatchI9FieldInfoNS_5utils10functional6FilterINSt3__212basic_stringIcNS8_11char_traitsIcEENS8_9allocatorIcEEEENS5_13VmStringUtils23CaseInsensitiveComparerEEEEEbPKT_PK11Il2CppClassSN_iRKT0_
TLf:_CipherSuite_get_HashAlgorithmType_m3902365773
wok:_poll
ZRe:_Stream_BeginRead_m1985960185
Rbh:_GUIStyle_GetFontInternalDuringLoadingThread_m229734483
s1b:__ZN13ProduceHelperI14Texture2DArrayLb0EE7ProduceE18MemLabelIdentifier18ObjectCreationMode
bKf:_MD4Managed_GG_m1462438360
fic:__Z46Mesh_CUSTOM_PrintErrorCantAccessMeshForIndicesP12Il2CppObject
jjc:__Z53PlayableHandle_CUSTOM_INTERNAL_CALL_GetPlayableTypeOfR9HPlayable
ddc:__ZN9Transform23SetSiblingIndexInternalEib
H$e:_SimpleCollator_LastIndexOfOrdinal_m45234497
NPe:_BinaryReader_CheckBuffer_m1059275266
tBa:__ZN13GfxDeviceGLES17DestroySubProgramEPN9ShaderLab10SubProgramE
gu:__ZN7mecanim5human12HumanPoseSubERNS0_9HumanPoseERKS1_S4_
PJf:_MD4_Create_m2582504069
Ovj:_HashSet_1_System_Collections_IEnumerable_GetEnumerator_m2498631708_gshared
G5j:__ZN6il2cpp8metadata15GenericMetadata15GetGenericClassEiPK17Il2CppGenericInst
H1d:_Boolean_System_IConvertible_ToInt16_m977801621
pGb:__Z18Transfer_BlittableI14SafeBinaryReadLb0E10Matrix4x4fEvRK29SerializationCommandArgumentsR31RuntimeSerializationCommandInfo
SUa:__Z24GetFixedBehaviourManagerv
xPg:__Z69RuntimeInvoker_Void_t1841601450_Int32_t2071877448_Vector4_t2243707581PFvvEPK10MethodInfoPvPS4_
iZa:__ZN12FlareManager9UpdateJobEP25FlareManagerUpdateJobData
JMj:__ZN6il2cpp2vm10ThreadPool4WaitEP17Il2CppAsyncResultPPv
Hmk:_vfprintf
d4f:_SerializationException__ctor_m1019897788
Eoa:__ZL13SortTexByNameRKNSt3__24pairIN9ShaderLab16FastPropertyNameEN18UnityPropertySheet11UnityTexEnvEEES7_
VZa:__ZN20DynamicPropertySheetD0Ev
ocb:__ZN14SafeBinaryRead17RegisterConverterEPKcS1_PFbPvRS_E
o_:__ZN35RegisterRuntimeInitializeAndCleanup8RegisterEPFvPvES2_iS0_
y0d:_AsyncCallback__ctor_m3071689932
EFf:_ReadOnlyCollection_1_System_Collections_IList_Clear_m2600246370_gshared
UTc:__ZN4PPtrI17PhysicsMaterial2DE8TransferI18StreamedBinaryReadILb0EEEEvRT_
WQg:__Z62RuntimeInvoker_Int32_t2071877448_ParameterModifier_t1820634920PFvvEPK10MethodInfoPvPS4_
Z2e:_DSAManaged_NormalizeArray_m2287089393
qmc:__Z21Object_CUSTOM_DestroyP12Il2CppObjectf
D2i:_InternalEnumerator_1_System_Collections_IEnumerator_get_Current_m2389982234_AdjustorThunk
WUa:__ZN8Material26ResetAllCachedMaterialDataEP6Shader
MJi:_Selectable_get_interactable_m1725029500
$Wh:__ZL66RuntimeArray_CustomAttributesCacheGenerator_Array_Sort_m3002148658P21CustomAttributesCache
jed:_UNITY_TT_Get_MM_Var
cDj:__ZN6il2cpp6icalls8mscorlib6System7Decimal13decimal2Int64EP19il2cpp_decimal_reprPx
ba:invoke_diddi
pJd:_ExecuteEvents__cctor_m288775360
Ufd:__ZNK2UI6Canvas13GetRenderModeEv
Eee:_Double_TryParseStringConstant_m2585405703
Wwh:_AudioClipPlayable_GetHandle_m234442096_AdjustorThunk
JFb:__Z18Transfer_BlittableI14SafeBinaryReadLb0EiEvRK29SerializationCommandArgumentsR31RuntimeSerializationCommandInfo
xLj:__ZN6il2cpp2vm13MetadataCache30GetPropertyDefinitionFromIndexEi
DNi:_ResourceEnumerator__ctor_m1679839941
kvd:_RijndaelTransform_Clear_m1652144089
BQe:_MonoIO_GetException_m2577367044
wpd:__ZN22BaseUnityConnectClient17InitializeSessionERKN4core12basic_stringIcNS0_20StringStorageDefaultIcEEEES6_N19CloudServiceHandler13InitModeFlagsE
TJh:_Enumerator_MoveNext_m1404007384_gshared
sZe:_NumberFormatter_get_IsZero_m1325357749
Mxk:_emscripten_glDeleteBuffers__wrapper
lKg:__Z121RuntimeInvoker_Void_t1841601450_Single_t2076509932_Single_t2076509932_Single_t2076509932_Single_t2076509932_RuntimeObjectPFvvEPK10MethodInfoPvPS4_
Pne:_Enum_ToObject_m322320225
MFh:_Enumerator_get_Current_m2754383612_gshared
qbc:__ZN13MonoBehaviour34StopCoroutineFromEnumeratorManagedE18ScriptingObjectPtr
Tyd:_X509Certificate__ctor_m3860837120
F5c:_gray_raster_reset
zqh:_AnimationOffsetPlayable_CreateHandle_m1204489623
u7g:_GameObject_Internal_CreateGameObject_m3428198595
dOg:__Z109RuntimeInvoker_RuntimeObject_Ray_t2469606224_Single_t2076509932_Int32_t2071877448_RuntimeObject_RuntimeObjectPFvvEPK10MethodInfoPvPS4_
Kzh:_Camera_RaycastTry2D_m755036866
zFf:_ReadOnlyCollection_1_System_Collections_Generic_IListU3CTU3E_set_Item_m3663361643_gshared
mE:__ZN7mecanim9animation14AvatarConstant15InitializeClassEv
ePc:__ZN11UnityEngine9Analytics18SceneLoadTimeEvent12SetSceneLoadERKN4core12basic_stringIcNS2_20StringStorageDefaultIcEEEEiyyyy
LCb:__ZN30RuntimeInitializeOnLoadManager8TransferI18StreamedBinaryReadILb0EEEEvRT_
hPh:_Dictionary_2__ctor_m1206668798_gshared
J_g:_TypeBuilder_not_supported_m3178173643
o6c:_UNITY_tt_face_load_pclt
_bc:__ZL34GetComponentsImplementationRecurseILb1ELi0ELi2EEbR10GameObjectbRK17CompareParametersRK39GetComponentsImplementation_ReturnValue
SUc:__ZN10ClipperLib7Clipper24InsertLocalMinimaIntoAELEx
Jjk:__ZN6il2cpp6icalls8mscorlib6System9Threading5Mutex20CreateMutex_internalEbP12Il2CppStringPb
AEc:__ZN16CustomDataModule8TransferI19StreamedBinaryWriteILb0EEEEvRT_
h6d:_ArrayListWrapper_Remove_m1105489978
jZa:__ZNK6Camera18WorldToScreenPointERK8Vector3fPb
fld:__ZN14UnityAnalyticsD0Ev
kNf:_TlsClientSettings_set_TargetHost_m3421266913
PSg:__Z84RuntimeInvoker_Void_t1841601450_RaycastResultU5BU5DU26_t2399554255_Int32_t2071877448PFvvEPK10MethodInfoPvPS4_
$9d:_HashKeys_CopyTo_m3566668422
qAa:__Z18IsCompressedFormat14GraphicsFormat
YZi:_InternalEnumerator_1_Dispose_m549215360_AdjustorThunk
c4d:_Convert_ToSByte_m2665932200
i3:__ZNSt3__227__insertion_sort_incompleteIRPFbRKN18AwakeFromLoadQueue4ItemES4_EPS2_EEbT0_S9_T_
EZg:_ILGenerator_label_fixup_m1325994348
zLh:_ValueCollection_System_Collections_ICollection_get_IsSynchronized_m45572582_gshared
Aue:_Array_InternalArray__IEnumerable_GetEnumerator_TisContactPoint2D_t3659330976_m478005999_gshared
BJj:__ZN14dense_hash_mapI10KeyWrapperIN6il2cpp5utils13dynamic_arrayIPK10Il2CppTypeLj4EEEEPFvvENS1_8metadata19Il2CppSignatureHashENS8_14EqualsComparerINSB_22Il2CppSignatureCompareEEENSt3__29allocatorINSG_4pairIKS8_SA_EEEEE15set_deleted_keyERSJ_
AFi:_Navigation_Equals_m4214630671_AdjustorThunk
LCf:_ReadOnlyCollection_1_System_Collections_Generic_IListU3CTU3E_set_Item_m257196015_gshared
R2g:_FieldInfo_GetPseudoCustomAttributes_m2500972355
Fqb:__ZN26EnlightenSystemInformation8TransferI14SafeBinaryReadEEvRT_
NEc:__ZN13InitialModule5ResetEv
zFe:_Array_InternalArray__get_Item_TisLink_t2723257478_m2281261655_gshared
lxh:_AudioClipPlayable_INTERNAL_CALL_GetIsPlayingInternal_m4246314919
gxb:__ZN12MeshRendererD0Ev
gaj:_ExpressionAssertion_IsComplex_m783019628
a9d:_Hashtable__ctor_m2702360557
Lh:_utime
JIe:_DateTimeFormatInfo_get_RawAbbreviatedDayNames_m3998113647
KRh:_DefaultComparer_GetHashCode_m2596628120_gshared
BIf:_PrimalityTest_Invoke_m4058801829
XGe:_Mesh_GetAllocArrayFromChannel_TisRuntimeObject_m1450958222_gshared
Cn:FUNCTION_TABLE_viiiiif
w7f:_RemotingConfiguration_SetCustomErrorsMode_m1844153208
Hn:FUNCTION_TABLE_viiiiii
fli:__ZL98Physics2D_t2540166467_CustomAttributesCacheGenerator_Physics2D_GetColliderFromInstanceID_m95920619P21CustomAttributesCache
rFe:_Array_InternalArray__get_Item_TisChar_t3454481338_m3646615547_gshared
XC:__ZN7mecanim9animation22DestroyAvatarWorkspaceEPNS0_15AvatarWorkspaceERNS_6memory9AllocatorE
Lsk:dynCall_viddi
udj:_ScriptableObject_CreateInstance_m3271154163
KTd:__ZN21InterfaceFuncInvoker0IiE6InvokeEjP11Il2CppClassP12Il2CppObject
i9i:_AnchorInfo_get_IsPosition_m3791659233
Dwe:_Array_InternalArray__IndexOf_TisResourceCacheItem_t333236149_m761772858_gshared
Mnc:__ZNSt3__210__list_impIN10GUIManager12SortedScriptE11memory_poolIS2_EE5clearEv
C8h:__ZL76Convert_t2607082565_CustomAttributesCacheGenerator_Convert_ToInt64_m44696721P21CustomAttributesCache
Inb:__ZN14PlayableOutput17SetSourcePlayableEP8Playable
N7f:_TrackingServices__cctor_m3639412334
noj:_InvokableCall_1_add_Delegate_m3068046591_gshared
pqc:__Z32GUIStyle_Set_Custom_PropRichTextP12Il2CppObjecth
pC:__ZN7mecanim9animation29MotionOutputGetDeltaTransformEPKNS0_12MotionOutputE
i$b:__Z13RegisterClassI16GraphicsSettingsEvv
LLh:_ValueCollection_System_Collections_IEnumerable_GetEnumerator_m1773104428_gshared
dPc:__ZN27PerformanceReportingManager21OnSceneTimingCallbackERK15SceneLoadTimingRKN4core12basic_stringIcNS3_20StringStorageDefaultIcEEEE
IE:__ZN8Animator14OnAddComponentEPN5Unity9ComponentE
tof:_List_1_CheckMatch_m1184924052_gshared
Clc:__Z43Transform_CUSTOM_INTERNAL_get_localRotationP12Il2CppObjectP11Quaternionf
$fj:_Touch_get_fingerId_m4109475843_AdjustorThunk
Tvk:_glGetShaderInfoLog__wrapper
ni:_emscripten_glGetTexParameteriv
aif:_List_1_ToArray_m3752387798_gshared
ZHi:_ScrollRect_get_elasticity_m3987376518
YKf:_RSAManaged_ImportParameters_m3060955884
N6e:_DeriveBytes__ctor_m3089550878
dQi:_ChannelData_CopyFrom_m4049054607
o$b:__Z13RegisterClassI4MeshEvv
cwi:__ZL94AxisEventData_t1524870173_CustomAttributesCacheGenerator_AxisEventData_get_moveDir_m3968662359P21CustomAttributesCache
gnb:__ZN8PlayableD0Ev
rU:__Z84Register_UnityEngine_Audio_AudioMixerPlayable_INTERNAL_CALL_SetAutoNormalizeInternalv
MK:__ZN12AudioManager8TransferI19StreamedBinaryWriteILb0EEEEvRT_
ESe:_WriteDelegate_Invoke_m2103848735
$if:_List_1_get_Capacity_m4262042666_gshared
Imj:_X509Crl_get_IssuerName_m756409840
fQb:__ZN18StreamedBinaryReadILb1EE21TransferSTLStyleArrayI13dynamic_arrayI11ColorRGBA32Lj4EEEEvRT_17TransferMetaFlags
vJh:_Transform_1_EndInvoke_m687617772_gshared
bCc:__ZN13dynamic_arrayIN9SubModule14SubEmitterDataELj4EE18resize_initializedEjRKS1_12ResizePolicy
orj:_U3CStartU3Ec__Iterator0_Reset_m2580847683_gshared
J3b:__ZNK32RendererMaterialAnimationBinding12GetPPtrValueERKN11UnityEngine9Animation10BoundCurveE
XQb:__Z18Transfer_BlittableI18StreamedBinaryReadILb0EELb0E8Vector2fEvRK29SerializationCommandArgumentsR31RuntimeSerializationCommandInfo
e7f:_RemotingConfiguration_get_ProcessId_m3870172209
nWc:__ZN16CircleCollider2D10SmartResetEv
Bid:__ZN2UI11CanvasGroup12CleanupClassEv
FKe:_SortKey_ToString_m2406913228
dfa:__ZN22LocalFileSystemHandler9MakeLocalER13FileEntryDatab
ndk:__ZN6il2cpp2vm8Profiler10AllocationEP12Il2CppObjectP11Il2CppClass
Kde:_Convert_ToDateTime_m1020507389
k6b:__ZNK9HPlayable7IsValidEv
J3c:__ZNSt3__23mapIN20TextRenderingPrivate7FontRefENS1_6OSFontENS_4lessIS2_EENS_9allocatorINS_4pairIKS2_S3_EEEEEixERS8_
Qca:__Z13FormatOrderedPKcz
zQe:_Path_IsPathRooted_m1347207448
Z8f:_ObjectManager_RegisterObjectInternal_m879109503
Eqe:_Array_get_swapper_TisVector4_t2243707581_m97441823_gshared
bya:__ZNSt3__26__sortIRNS_4lessIiEEPiEEvT0_S5_T_
V0c:__ZN14SafeBinaryRead21TransferSTLStyleArrayI10vector_mapINSt3__24pairIttEEfN20TextRenderingPrivate8FontImpl14KerningCompareENS2_9allocatorINS3_IS4_fEEEEEEEvRT_17TransferMetaFlags
L$b:__Z13RegisterClassI15QualitySettingsEvv
Wbk:__ZN6il2cpp2vm6String21InitializeEmptyStringEP11Il2CppClass
r4a:__ZN25DeferredRenderLoopScratchD0Ev
uw:__ZN27AnimationLayerMixerPlayable14SetInputWeightEif
cu:__ZN7mecanim9animation17EvaluateHumanPoseERKNS0_18ClipMuscleConstantERKNS0_15ClipMuscleInputEPKfRKNS0_12MotionOutputERNS_5human9HumanPoseE
C6h:__ZL90UTF7Encoding_t741406939_CustomAttributesCacheGenerator_UTF7Encoding_GetHashCode_m359766848P21CustomAttributesCache
A$c:__ZN14dense_hash_mapINSt3__24pairIPK10Collider2DS4_EE11Collision2DNS2_23ColliderPairHashFunctorENS0_8equal_toIS5_EE13stl_allocatorINS1_IKS5_S6_EEL18MemLabelIdentifier65ELi16EEE15set_deleted_keyERSB_
cUb:__ZN15dense_hashtableINSt3__24pairIKiN4core17string_with_labelILi1EEEEEi18SInt32HashFunctionN14dense_hash_mapIiS5_S7_NS0_8equal_toIiEE13stl_allocatorIS6_L18MemLabelIdentifier1ELi16EEE9SelectKeyESA_SD_E9copy_fromERKSG_j
Fka:__ZN6Camera11ResetAspectEv
zmg:_Type_get_IsGenericType_m3396841573
qYa:__ZNSt3__227__insertion_sort_incompleteIRPFbP10GUIElementS2_EPS2_EEbT0_S7_T_
XZf:_X509BasicConstraintsExtension_get_HasPathLengthConstraint_m3788532759
hmb:__ZNK17InstancedPropInfo22FillInstancePropertiesER19ShaderPropertySheetjPK17BatchInstanceDatajRK15RenderNodeQueue
ema:__ZN22CreateGpuProgramOutputD2Ev
I1h:__ZL58_AssemblyBuilder_t418776366_CustomAttributesCacheGeneratorP21CustomAttributesCache
RMb:__Z18Transfer_BlittableI19StreamedBinaryWriteILb0EELb1EsEvRK29SerializationCommandArgumentsR31RuntimeSerializationCommandInfo
uwd:_RSACryptoServiceProvider_EncryptValue_m802714447
u2j:__ZN6il2cpp6icalls8mscorlib6System2IO6MonoIO9SetLengthE12Il2CppIntPtrxPi
$7h:__ZL76Convert_t2607082565_CustomAttributesCacheGenerator_Convert_ToByte_m932798552P21CustomAttributesCache
xS:__ZN13ProduceHelperI13AudioListenerLb0EE7ProduceE18MemLabelIdentifier18ObjectCreationMode
Kdf:_List_1_System_Collections_ICollection_get_SyncRoot_m1594235606_gshared
oHe:_DateTimeFormatInfo_GetInstance_m3133223810
VHf:_ModulusRing_BarrettReduction_m2802101099
IRa:__ZN12HandlerChain4OpenER13FileEntryData14FilePermission16FileAutoBehavior
vtj:_EqualityComparer_1_get_Default_m2134906921_gshared
K3g:_MonoMethodInfo_GetParametersInfo_m3456861922
jUj:__ZN15dense_hashtableINSt3__24pairIK10KeyWrapperINS1_IPK10MethodInfoP11Il2CppClassEEEjEES9_17ReflectionMapHashIS8_EN14dense_hash_mapIS9_jSD_NS9_14EqualsComparerINS0_8equal_toIS8_EEEENS0_9allocatorISB_EEE9SelectKeyESI_SK_E6insertERKSB_
mPc:__ZN27PerformanceReportingManager29OnSceneLoadedAfterAwakeStaticEPS_iR18AwakeFromLoadQueueN19RuntimeSceneManager11LoadingModeE
Fsa:__ZN18AssetBundleManager55CollectPreloadObjectsFromAssetBundleLoadAssetOperationsER13dynamic_arrayIiLj4EE
Y5:__ZN14FileCacherReadD2Ev
uxa:__ZN13RendererScene23UpdatePreviousFrameDataEii
Owd:_RSAPKCS1SignatureDeformatter_VerifySignature_m1825067195
syj:__ZL25UnresolvedVirtualCall_123P12Il2CppObjectffPK10MethodInfo
Dfc:__Z50Register_UnityEngine_CullingGroup_FinalizerFailurev
P9e:_KeyValuePair_2_ToString_m2613351884_gshared
nsa:__ZN27UnloadUnusedAssetsOperationD0Ev
ukb:__ZN6Camera15ThreadedCleanupEv
qx:__ZN26AnimatorControllerPlayable6MemoryD2Ev
byi:__ZL69ColorBlock_t2652774230_CustomAttributesCacheGenerator_m_DisabledColorP21CustomAttributesCache
WLf:_CipherSuite_get_Code_m3902213587
CGi:_Scrollbar__ctor_m2244981801
q2j:__ZN6il2cpp6icalls8mscorlib6System2IO6MonoIO9GetLengthE12Il2CppIntPtrPi
aag:_ObjectRecord_get_HasPendingFixups_m670959802
qxd:_SHA256Managed_HashCore_m4111458495
aqe:_CultureInfo_get_CompareInfo_m3085280862
PYh:__ZL55Dictionary_2_t2276497324_CustomAttributesCacheGeneratorP21CustomAttributesCache
_9f:_ObjectManager_RecordDelayedFixup_m1895730844
C3j:__ZNK15dense_hashtableINSt3__24pairIK10KeyWrapperIP14Il2CppIUnknownEjEES5_N6il2cpp5utils11PointerHashIS3_EEN14dense_hash_mapIS5_jSB_NS5_14EqualsComparerINS0_8equal_toIS4_EEEENS0_9allocatorIS7_EEE9SelectKeyESG_SI_E12test_deletedERK24dense_hashtable_iteratorIS7_S5_SB_SK_SG_SI_E
pkf:_List_1_System_Collections_IList_get_IsFixedSize_m3522184224_gshared
OI:__ZN9AudioClip23VirtualRedirectTransferER18StreamedBinaryReadILb0EE
nOf:_ClientSessionInfo_CheckDisposed_m1394638186
_bg:_SByte_Parse_m2544167007
xCd:_Single_CompareTo_m2081476257
Ple:_StackFrame_GetILOffset_m115192054
nbg:_RuntimeTypeHandle_GetHashCode_m3697629454_AdjustorThunk
m0e:_BigInteger__ctor_m2945783161
ZPf:_TlsClientHello_Update_m1723542631
d3h:__ZL96ProxyAttribute_t4031752430_CustomAttributesCacheGenerator_ProxyAttribute_IsContextOK_m2391079277P21CustomAttributesCache
KLe:_IndexOutOfRangeException__ctor_m3497760912
MRg:__Z60RuntimeInvoker_Void_t1841601450_AnimatorClipInfo_t3905751349PFvvEPK10MethodInfoPvPS4_
hEf:_ReadOnlyCollection_1_CopyTo_m1652036789_gshared
Mj:_glCopyTexSubImage2D
Y6f:_RealProxy_InternalGetTransparentProxy_m3415358600
S3b:__ZNK24RendererAnimationBinding13GetFloatValueERKN11UnityEngine9Animation10BoundCurveE
OHc:__ZNK21RotationBySpeedModule6UpdateERK27ParticleSystemReadOnlyStateRK19ParticleSystemStateR23ParticleSystemParticlesRKN4math7_float4Ejj
IX:__ZNK15DownloadHandler14HasPendingDataEv
Prf:_Collection_1_Insert_m3594407958_gshared
_da:__ZN18ScreenManagerWebGL13SetShowCursorEb
ldk:__ZN6il2cpp6icalls8mscorlib6System7Convert24InternalFromBase64StringEP12Il2CppStringb
tyd:_SymmetricAlgorithm_CreateDecryptor_m4240570785
pMi:_Text_get_preferredWidth_m3352156860
gXg:_AssemblyCompanyAttribute__ctor_m1217508649
Eid:__ZN2UI13CanvasManager14GetRenderOrderEPKNS_6CanvasE
nGb:__Z18Transfer_BlittableI14SafeBinaryReadLb0E5RectTIfEEvRK29SerializationCommandArgumentsR31RuntimeSerializationCommandInfo
PDf:_ReadOnlyCollection_1_System_Collections_Generic_IListU3CTU3E_RemoveAt_m878653284_gshared
uHe:_DateTimeFormatInfo_GetFormat_m3676195179
JGa:__ZN14GfxContextGLES14GetFramebufferEv
xJg:__Z92RuntimeInvoker_Void_t1841601450_PlayableHandleU26_t4210769902_RuntimeObject_SByte_t454417549PFvvEPK10MethodInfoPvPS4_
rpa:__ZN6prcoreL21CreateRemapAnyBlitterE13TextureFormatS0_
Clk:__ZN6il2cpp2os5Event4WaitEjb
T9b:__ZN17AnimationCurveTplIfE16StripInvalidKeysEv
Axe:_Array_InternalArray__ICollection_Add_TisKeyValuePair_2_t3716250094_m2381539361_gshared
x7e:_X509Extension_WriteLine_m2850991173
xhd:__ZNK2UI6Canvas17GetSortingLayerIDEv
QZb:__ZL12HashLen0to16PKcj
uYc:__ZN14Raycast2DQuery8RunQueryEb
G5b:__Z13RegisterClassI17GlobalGameManagerEvv
Y6a:__ZN8Renderer24SetupNewRendererForSceneEv
bCi:__ZL70GridLayoutGroup_t1515633077_CustomAttributesCacheGenerator_m_StartAxisP21CustomAttributesCache
aJ:__ZL16FMOD_ErrorString11FMOD_RESULT_599
cse:_Array_InternalArray__ICollection_Remove_TisInt64_t909078037_m2653583130_gshared
Hgf:_List_1_AddCollection_m2628217188_gshared
Qhg:_Thread_get_ExecutionContext_m922067206
dwc:__Z35Transfer_Blittable_FixedBufferFieldI8JSONReadtEvRK29SerializationCommandArgumentsR31RuntimeSerializationCommandInfo
ZNf:_RecordProtocol_get_Context_m2688493529
rna:__ZN4PPtrI7TextureE8TransferI14SafeBinaryReadEEvRT_
H6b:__ZN14PlayableOutput6HandleEv
_sb:__ZNK6Sprite22GetTypeVirtualInternalEv
fIi:_ScrollRect_get_viewport_m3177057249
Bn:FUNCTION_TABLE_iiiiiiiiiiiiii
cEg:__Z100RuntimeInvoker_Void_t1841601450_SByte_t454417549_SByte_t454417549_Int32_t2071877448_SByte_t454417549PFvvEPK10MethodInfoPvPS4_
bDh:_CustomYieldInstruction_get_Current_m1743233962
Xod:__ZN19UnityConnectService18OnPlayerQuitStaticEPS_
gCj:_Enemy__ctor_m2474411757
e7c:_UNITY_tt_get_cmap_info
OFd:_DecoderExceptionFallback_GetHashCode_m2972426052
yab:__ZN16ReflectionProbes8ScheduleEN18ReflectionProbeJob7JobTypeEP15ReflectionProbei
cxf:_Collection_1_IsFixedSize_m3675221982_gshared
L8h:__ZL77Convert_t2607082565_CustomAttributesCacheGenerator_Convert_ToSByte_m883113940P21CustomAttributesCache
dKc:__Z19CalculateVertexDataI11ColorRGBA32EvRK14StrideIteratorI8Vector3fES5_RKS1_IT_EbPK16MeshTriangleDataRKN4math5_int4ESG_P12SkinMeshInfoRNSD_8floatNx3ESK_RNSD_4pix4E
zcf:_Enumerator_MoveNext_m3293920409_AdjustorThunk
ufa:__Z18IsDirectoryCreatedRKN4core12basic_stringIcNS_20StringStorageDefaultIcEEEE
hSg:__Z68RuntimeInvoker_Void_t1841601450_Int32_t2071877448_Double_t4078015681PFvvEPK10MethodInfoPvPS4_
Dgd:__ZN2UI13CanvasManagerD2Ev
zNc:__ZZN14ParticleSystem15InitializeClassEvEN52PreLateUpdateParticleSystemBeginUpdateAllRegistrator7ForwardEv
PAi:__ZL73ScrollRect_t1199013257_CustomAttributesCacheGenerator_m_VerticalScrollbarP21CustomAttributesCache
fZf:_X509KeyUsageExtension_ToString_m1992050580
o3c:_UNITY_FT_GlyphLoader_Done
v9i:_BalancingGroup__ctor_m2474435406
ZQg:__Z49RuntimeInvoker_Int32_t2071877448_Byte_t3683104436PFvvEPK10MethodInfoPvPS4_
OPi:_ConstructionCall__ctor_m1143766850
Vdh:_GUIStyleState_Init_m2434147050
c5i:_Comparer_1_System_Collections_IComparer_Compare_m3203078743_gshared
dPf:_Context_get_RandomSC_m1687420621
aZc:__ZN19OverlapPointQuery2D14InitializeAABBER6b2AABB
Rjh:_PlayableHandle_IsValid_m1005197654_AdjustorThunk
kKe:_RegionInfo_get_GeoId_m3780064049
U7c:_tt_cmap14_char_var_index
PRb:__Z35Transfer_Blittable_FixedBufferFieldI18StreamedBinaryReadILb0EEdEvRK29SerializationCommandArgumentsR31RuntimeSerializationCommandInfo
r9c:_psh_globals_new
sSe:_FileStream_Seek_m950719389
iLd:_StandaloneInputModule_set_allowActivationOnMobileDevice_m2631121618
Wde:_Decimal_stripStyles_m294582157
dvh:_AnimatorControllerPlayable_Play_m614561002
AAa:__ZN9GfxDevice20SetMaxBufferedFramesEi
Uif:_List_1_RemoveAll_m4125997475_gshared
aPg:__Z72RuntimeInvoker_Boolean_t3825574718_TypeU26_t1535498077_Int32_t2071877448PFvvEPK10MethodInfoPvPS4_
hwg:__Z98RuntimeInvoker_Void_t1841601450_Int32_t2071877448_Int32_t2071877448_RuntimeObject_SByte_t454417549PFvvEPK10MethodInfoPvPS4_
pTc:__ZN10Collider2D19WakeAllBodyContactsEv
uN:__ZN24AudioScriptBufferManagerD2Ev
Mrk:dynCall_vdd
aid:__ZN2UIL17UnloadAllCanvasesEv
Jdb:__Z23ConvertIntegerToTypePtrIsEbPvR14SafeBinaryRead
R1h:__ZL54_MethodBase_t1935530873_CustomAttributesCacheGeneratorP21CustomAttributesCache
PRc:__ZN12b2MouseJoint11ShiftOriginERK6b2Vec2
rtj:_EqualityComparer_1__ctor_m99476293_gshared
fIf:_BigInteger_Incr2_m505983313
syh:_PCMReaderCallback_BeginInvoke_m3119095492
i5d:_ArrayList_get_Count_m523955479
Oyg:__Z96RuntimeInvoker_Void_t1841601450_SByte_t454417549_RuntimeObject_SByte_t454417549_SByte_t454417549PFvvEPK10MethodInfoPvPS4_
E6d:_FixedSizeArrayListWrapper_Remove_m1359458911
zpa:__ZN6prcoreL29inner_stretch_rgb565_bilinearEPKNS_9InnerInfoE
Raj:_Uri__ctor_m3927533881
jGc:__Z13UpdateSizeTplIL27ParticleSystemCurveEvalMode3EEvRK11MinMaxCurveR23ParticleSystemParticlesbjj
wSj:__ZNK15dense_hashtableINSt3__24pairIK10KeyWrapperINS1_IPK14Il2CppAssemblyP11Il2CppClassEEEjEES9_17ReflectionMapHashIS8_EN14dense_hash_mapIS9_jSD_NS9_14EqualsComparerINS0_8equal_toIS8_EEEENS0_9allocatorISB_EEE9SelectKeyESI_SK_E12test_deletedEj
cTh:_EqualityComparer_1_System_Collections_IEqualityComparer_Equals_m3724603646_gshared
pkd:__Z33Canvas_Get_Custom_PropWorldCameraP12Il2CppObject
DLi:_Text_get_mainTexture_m813502234
qlk:__ZN6il2cpp8metadata19Il2CppSignatureHash4HashERKNS_5utils13dynamic_arrayIPK10Il2CppTypeLj4EEE
y3a:__ZNK14RenderSettings19GetFlatAmbientColorEv
Hva:__ZN6prcoreL10inner_flipILj4EEEvPhS1_j
kAb:__ZN18StreamedBinaryReadILb0EE21TransferSTLStyleArrayI10vector_mapIPKN5Unity4TypeE7Hash128NSt3__24lessIS6_EENS8_9allocatorINS8_4pairIS6_S7_EEEEEEEvRT_17TransferMetaFlags
sy:__ZNK27StateMachineBehaviourPlayer15IsSenderEnabledEv
woh:_CustomEventData_Add_m1028036439
nsh:_AnimatorControllerPlayable_SetInteger_m881630854
xFh:_Enumerator_VerifyState_m2118679243_gshared
VVd:_InputField_get_shouldHideMobileInput_m3694613599
bmc:__Z40Register_UnityEngine_Transform_SetParentv
PSf:_SslClientStream_get_HaveRemoteValidation2Callback_m3555576758
XCg:__Z56RuntimeInvoker_TimeSpan_t3430258949_TimeSpan_t3430258949PFvvEPK10MethodInfoPvPS4_
Tub:__ZN14Texture2DArray17UploadToGfxDeviceEv
jDf:_ReadOnlyCollection_1_System_Collections_Generic_IListU3CTU3E_Insert_m4216310986_gshared
tzf:_ReadOnlyCollection_1_System_Collections_Generic_IListU3CTU3E_set_Item_m1532495847_gshared
rM:__Z14FMODMemoryFreePvjPKc
GVi:_InternalEnumerator_1_System_Collections_IEnumerator_Reset_m3731327620_AdjustorThunk
Vwi:__ZL104PointerEventData_t1599784723_CustomAttributesCacheGenerator_PointerEventData_get_worldNormal_m1704987468P21CustomAttributesCache
Fjj:_YieldInstruction_t3462875981_marshal_pinvoke_cleanup
wVd:_Image_AddQuad_m1600600902
Kad:_cf2_glyphpath_moveTo
Wdj:_SharedBetweenAnimatorsAttribute__ctor_m1221241062
vMd:_AnimationTriggers_set_disabledTrigger_m609579531
w_h:__ZL47File_t1930543328_CustomAttributesCacheGeneratorP21CustomAttributesCache
Jie:_DateTimeOffset__ctor_m1796624924
S9g:_GUILayoutUtility_get_spaceStyle_m1918520192
KHd:_BaseRaycaster_OnDisable_m1716508791
$u:__ZN7mecanim23TransformValueArrayLoopEiiiRKN4math4trsXES3_RNS_10ValueArrayEf
R$i:_InternalEnumerator_1_MoveNext_m1741571735_gshared
goc:__ZN5IMGUI14GUIWindowStateD2Ev
$Vh:__ZL82Enum_t2459695545_CustomAttributesCacheGenerator_Enum_GetUnderlyingType_m3513899012P21CustomAttributesCache
qhk:_GC_is_heap_ptr
d0j:__GLOBAL__sub_I_Assembly_cpp
yQf:_TlsServerSettings_set_CertificateRequest_m3419519893
DB:__ZN7mecanim5human10RetargetToEPKNS0_5HumanEPKNS0_9HumanPoseES6_RKN4math4trsXEPS4_PNS_8skeleton13SkeletonPoseTIS8_EESF_
Uu:__ZN7mecanim9animation8SeekClipERKNS0_12StreamedClipERNS0_18StreamedClipMemoryEf
Dmg:_Type_get_IsGenericParameter_m161434704
S0g:_MethodBuilder_get_Attributes_m3678061338
qm:_emscripten_glIsTexture
Yfh:_Mathf_Clamp_m3542052159
k6d:_ArrayListWrapper_CopyTo_m793444109
Z8h:__ZL79Convert_t2607082565_CustomAttributesCacheGenerator_Convert_ToUInt16_m3265369225P21CustomAttributesCache
Xk:_emscripten_glHint
eUg:__Z33RuntimeInvoker_Color32_t874517518PFvvEPK10MethodInfoPvPS4_
Ydd:_ft_var_readpackeddeltas
aie:_DateTime_AddMilliseconds_m1813199744_AdjustorThunk
Gbg:_SByte_System_IConvertible_ToSByte_m108774324_AdjustorThunk
W0g:_MethodBuilder_GetParameterCount_m467267889
Gjc:__Z65PlayableOutputHandle_CUSTOM_INTERNAL_CALL_GetPlayableOutputTypeOfR15HPlayableOutput
qyh:_DelegatePInvokeWrapper_PCMReaderCallback_t3007145346
OOb:__Z35Transfer_Blittable_FixedBufferFieldI18StreamedBinaryReadILb1EEtEvRK29SerializationCommandArgumentsR31RuntimeSerializationCommandInfo
Yoh:_AnimationEvent_set_intParameter_m1174062029
v0f:_X509ChainStatus_t4278378721_marshal_pinvoke
OKf:_RSAManaged__ctor_m1680944437
tm:_SDL_UpperBlit
Zch:_GUIStyle_op_Implicit_m781448948
e4a:__Z35GetTextureDecodeValuesWithIntensity16TextureUsageMode17TextureColorSpace10ColorSpacef
o3d:_Byte_GetHashCode_m2885528842_AdjustorThunk
zYj:__ZN15dense_hashtableINSt3__24pairIK10KeyWrapperINS1_IPK9EventInfoP11Il2CppClassEEEjEES9_17ReflectionMapHashIS8_EN14dense_hash_mapIS9_jSD_NS9_14EqualsComparerINS0_8equal_toIS8_EEEENS0_9allocatorISB_EEE9SelectKeyESI_SK_E15set_deleted_keyERKSB_
zMh:_Dictionary_2_OnDeserialization_m2092139626_gshared
KRc:__ZNK12b2MouseJoint10GetAnchorAEv
c7j:__ZNK6il2cpp2os6Socket12GetLastErrorEv
DDb:__ZN14SafeBinaryRead20OverrideRootTypeNameEPKc
VDj:__ZNK10KeyWrapperIPK22Il2CppGenericParameterE14EqualsComparerINSt3__28equal_toIS2_EEEclERKS3_SA_
a6:__ZN14FileCacherRead16UnlockCacheBlockEj
B6e:_X509Certificate_GetUnsignedBigInteger_m3491353542
h1c:__ZNSt3__26vectorIN4core12basic_stringIcNS1_20StringStorageDefaultIcEEEE13stl_allocatorIS5_L18MemLabelIdentifier34ELi16EEE6assignINS_11__wrap_iterIPS5_EEEENS_9enable_ifIXaasr21__is_forward_iteratorIT_EE5valuesr16is_constructibleIS5_NS_15iterator_traitsISF_E9referenceEEE5valueEvE4typeESF_SF_
Spi:__ZL90Event_t3028476042_CustomAttributesCacheGenerator_Event_Internal_GetMousePosition_m38523489P21CustomAttributesCache
eJb:__Z18Transfer_BlittableI17RemapPPtrTransferLb1E8Vector3fEvRK29SerializationCommandArgumentsR31RuntimeSerializationCommandInfo
E_c:__ZN13ProduceHelperI16CircleCollider2DLb0EE7ProduceE18MemLabelIdentifier18ObjectCreationMode
s$h:__ZL57StackBehaviour_t1390406961_CustomAttributesCacheGeneratorP21CustomAttributesCache
Irk:dynCall_iifii
Yc:_emscripten_glUniform1f
mTf:_SslStreamBase_get_MightNeedHandshake_m3432170694
P3c:__Z20ParseImageParametersR11UTF16StringRiRN20TextRenderingPrivate16TextFormatChangeE
bd:_emscripten_glUniform1i
m_i:_InternalEnumerator_1_System_Collections_IEnumerator_Reset_m651165750_AdjustorThunk
vDb:__ZN13MonoBehaviour9CallAwakeEv
K7:__Z33UnregisterDeviceEventCallbackImplPFv23UnityGfxDeviceEventTypeE
Z9g:__Z14bankers_roundff
EVb:__ZN9ShaderLab16SerializedTagMapaSERKS0_
yte:_SetPropertyUtility_SetStruct_TisFillMethod_t1640962579_m1867757822_gshared
cW:__ZN11UnityEngine15CloudWebService16SessionContainer20RestoreSessionHeaderERKN4core12basic_stringIcNS2_20StringStorageDefaultIcEEEES8_RNS0_13SessionHeaderE
xie:_DateTime_ToString_m1117481977
osd:__ZN22UnityWebRequestManager13BackendRetainEv
Tcc:__ZN8Material28ApplyMaterialPropertyDrawersEv
r0g:_GenericTypeParameterBuilder_GetGenericArguments_m277381309
GUg:__Z63RuntimeInvoker_KeyValuePair_2_t888819835_IntPtr_t_RuntimeObjectPFvvEPK10MethodInfoPvPS4_
LC:__ZN11UnityEngine9Animation27CreateAvatarBindingConstantER9TransformPKN7mecanim9animation14AvatarConstantERNS3_6memory9AllocatorE
iCb:__ZN14SafeBinaryRead21TransferSTLStyleArrayINSt3__26vectorIN30RuntimeInitializeOnLoadManager9ClassInfoE13stl_allocatorIS4_L18MemLabelIdentifier12ELi16EEEEEEvRT_17TransferMetaFlags
mqg:_UnitySerializationHolder_GetObjectData_m2280028722
Oog:_UInt64_System_IConvertible_ToDateTime_m2412118561
Gcc:__ZN9BlobWriteC2ER13dynamic_arrayIhLj16EE24TransferInstructionFlags19BuildTargetPlatform
r4:__ZN14MessageHandler3GetEv
pbh:_GUISkin_set_verticalScrollbarThumb_m2647835739
lHa:__ZN10DynamicVBO9DrawChunkERK21DynamicVBOChunkHandle17ShaderChannelMaskS3_P17VertexDeclarationPKNS_10DrawParamsEi
pd:_emscripten_glAttachShader
aCf:_ReadOnlyCollection_1__ctor_m1539890895_gshared
zAa:__ZN9GfxDevice13SetActiveTierE12GraphicsTier
jbf:_Enumerator_System_Collections_IEnumerator_get_Current_m3079057684_AdjustorThunk
imf:_List_1_System_Collections_ICollection_get_SyncRoot_m1804424478_gshared
Uyb:__ZNSt3__26vectorIN4core12basic_stringIcNS1_20StringStorageDefaultIcEEEENS_9allocatorIS5_EEE6assignIPS5_EENS_9enable_ifIXaasr21__is_forward_iteratorIT_EE5valuesr16is_constructibleIS5_NS_15iterator_traitsISC_E9referenceEEE5valueEvE4typeESC_SC_
r3e:_KeyPairPersistence_get_UserPath_m3433052783
Ttf:_Collection_1_ClearItems_m1410275009_gshared
lVg:__Z36RuntimeInvoker_Enumerator_t975728254PFvvEPK10MethodInfoPvPS4_
nVh:__ZL58Decimal_t724701077_CustomAttributesCacheGenerator_MinusOneP21CustomAttributesCache
Cue:_Array_InternalArray__IEnumerable_GetEnumerator_TisKeyframe_t1449471340_m3949799719_gshared
YFb:__Z18Transfer_BlittableI14SafeBinaryReadLb0E11QuaternionfEvRK29SerializationCommandArgumentsR31RuntimeSerializationCommandInfo
xRb:__Z18Transfer_BlittableI18StreamedBinaryReadILb0EELb1E12PropertyNameEvRK29SerializationCommandArgumentsR31RuntimeSerializationCommandInfo
bii:__ZL99MonoBehaviour_t1158329972_CustomAttributesCacheGenerator_MonoBehaviour_set_useGUILayout_m2666356651P21CustomAttributesCache
RWd:_InputField_get_inputType_m2187991661
Z_:_tlsf_walk_heap
$5e:_PKCS12_Decode_m731190390
M_j:__ZNK15dense_hashtableINSt3__24pairIK10KeyWrapperIP11Il2CppClassES4_EES5_N6il2cpp8metadata16SZArrayClassHashEN14dense_hash_mapIS5_S4_SA_NS5_14EqualsComparerINS9_19SZArrayClassCompareEEENS0_9allocatorIS7_EEE9SelectKeyESE_SG_E10test_emptyERK24dense_hashtable_iteratorIS7_S5_SA_SI_SE_SG_E
u$i:_InternalEnumerator_1_get_Current_m1550231132_gshared
u9i:_Reference_get_IgnoreCase_m2810892634
iYd:_InputField_ForceLabelUpdate_m1432314039
qb:invoke_vif
qti:__ZL99SendMouseEvents_t3505065032_CustomAttributesCacheGenerator_SendMouseEvents_SetMouseMoved_m532965689P21CustomAttributesCache
rb:invoke_vid
Lpk:__ZNSt3__212basic_stringIcNS_11char_traitsIcEENS_9allocatorIcEEE6insertEjPKc
a6h:__ZL67UnverifiableCodeAttribute_t765455733_CustomAttributesCacheGeneratorP21CustomAttributesCache
tb:invoke_vii
AXi:_InternalEnumerator_1_get_Current_m3444791149_gshared
ffi:__ZL86Component_t3819376471_CustomAttributesCacheGenerator_Component_SendMessage_m3615678587P21CustomAttributesCache
SAi:__ZL82ScrollRect_t1199013257_CustomAttributesCacheGenerator_m_HorizontalScrollbarSpacingP21CustomAttributesCache
iUd:_LayoutGroup_get_padding_m1653511445
pAj:__ZL25UnresolvedVirtualCall_228P12Il2CppObjecti22UICharInfo_t3056636800PK10MethodInfo
Wfb:__ZN12TLSAllocatorI14StackAllocatorE16ThreadInitializeEP13BaseAllocator
I5d:_ArrayList_Sort_m2778059513
Eti:__ZL107StackTraceUtility_t1881293839_CustomAttributesCacheGenerator_StackTraceUtility_SetProjectFolder_m2154926761P21CustomAttributesCache
nUd:_LayoutGroup_SetChildAlongAxis_m2732017156
wjd:__Z41CanvasRenderer_CUSTOM_DisableRectClippingP12Il2CppObject
FJf:_MD2_Create_m539024737
Oae:_SortedList_get_SyncRoot_m3299704254
Bdf:_List_1_System_Collections_ICollection_CopyTo_m2020941110_gshared
obe:_Slot_t2267560602_marshal_pinvoke
Qek:_GC_allochblk
_Yg:_TypeBuilder_get_Module_m1668298460
eFg:__Z112RuntimeInvoker_Void_t1841601450_RuntimeObject_Int32_t2071877448_Int32_t2071877448_RuntimeObject_SByte_t454417549PFvvEPK10MethodInfoPvPS4_
I5f:_SoapAttribute_get_XmlNamespace_m1436066016
vRa:__ZN25SingleBlockMemoryFileDataD0Ev
Uhb:__ZNSt3__26vectorI14ConstantStringNS_9allocatorIS1_EEE6assignINS_11__wrap_iterIPS1_EEEENS_9enable_ifIXaasr21__is_forward_iteratorIT_EE5valuesr16is_constructibleIS1_NS_15iterator_traitsISA_E9referenceEEE5valueEvE4typeESA_SA_
ZV:__ZN11UnityEngine15CloudWebService16SessionContainer21ConvertFromFolderTimeERKN4core12basic_stringIcNS2_20StringStorageDefaultIcEEEEPjPt
sHb:__ZNSt3__26vectorI8GUIStyle13stl_allocatorIS1_L18MemLabelIdentifier1ELi16EEE7reserveEj
$$j:__ZN6il2cpp6icalls8mscorlib6System9Threading6Thread27GetSerializedCurrentCultureEP12Il2CppThread
W0i:_InternalEnumerator_1_Dispose_m3765482968_AdjustorThunk
Mwe:_Array_InternalArray__IndexOf_TisUInt32_t2149682021_m3231515987_gshared
uXi:_InternalEnumerator_1_MoveNext_m1667794624_AdjustorThunk
l1b:__Z31CalculateHierarchyTransformType23TransformAccessReadOnly
E$b:__Z13RegisterClassI11TimeManagerEvv
hM:__ZN4FMOD8ChannelI11setPositionEjj
PTc:__ZN10Collider2D12SetPolygon2DEP9Polygon2D
Fxg:__Z136RuntimeInvoker_IntPtr_t_RuntimeObject_Int32_t2071877448_Int32_t2071877448_Int32_t2071877448_Int32_t2071877448_MonoIOErrorU26_t1029615899PFvvEPK10MethodInfoPvPS4_
jCh:_Component_SendMessage_m913946877
HBi:__ZL75ToggleGroup_t1030026315_CustomAttributesCacheGenerator_U3CU3Ef__amU24cache1P21CustomAttributesCache
KSi:_SynchronizedClientContextSink__ctor_m978504596
Rba:__ZN17BaseObjectManager13StaticDestroyEPv
_ej:_TextGenerationSettings_CompareVector2_m592645251
Fti:__ZL108StackTraceUtility_t1881293839_CustomAttributesCacheGenerator_StackTraceUtility_ExtractStackTrace_m1593581205P21CustomAttributesCache
kje:_DBNull_System_IConvertible_ToChar_m3344298044
eLg:__Z65RuntimeInvoker_Boolean_t3825574718_RuntimeObject_Int64_t909078037PFvvEPK10MethodInfoPvPS4_
m7e:_X509Certificate_GetObjectData_m3888130484
EBb:__ZNSt3__26vectorIN15ResourceManager10DependencyE13stl_allocatorIS2_L18MemLabelIdentifier51ELi16EEEC2INS_11__wrap_iterIPS2_EEEET_SB_RKS5_PNS_9enable_ifIXaasr21__is_forward_iteratorISB_EE5valuesr16is_constructibleIS2_NS_15iterator_traitsISB_E9referenceEEE5valueEvE4typeE
dDh:_CustomYieldInstruction_Reset_m3409422382
T5i:_LinkStack_Push_m2660199875
bL:__ZN4FMOD6Reverb13setPropertiesEPK22FMOD_REVERB_PROPERTIES
Tnh:_CustomEventData_AddChar_m1103619816
D_a:__ZN9DepthPass13PrepareSubsetEjRK10RenderNodeifRK17ShaderReplaceData
Leh:_Input_get_compositionString_m636835668
Ikj:_X509CertificateCollection_Add_m4008705157
_4f:_MonoMethodMessage_set_Uri_m3218581120
w8b:__Z35SetMeshComponentFromArrayFromScriptR4Mesh30InternalScriptingShaderChannel34InternalScriptingVertexChannelTypei17ScriptingArrayPtri
Aac:__Z18ExtractTagThrowingR11ICallString
coa:__ZN4PPtrI6ShaderE8TransferI19StreamedBinaryWriteILb0EEEEvRT_
Tsf:_Collection_1_System_Collections_IList_Add_m1953936885_gshared
kuf:_Collection_1_IsFixedSize_m1816795498_gshared
Pq:__ZN4core20StringStorageDefaultIcE6assignEPKcj
G6j:__ZN15dense_hashtableINSt3__24pairIK10KeyWrapperIP12Il2CppObjectEN6il2cpp2gc9CachedCCWEEES5_NS7_5utils11PointerHashIS3_EEN14dense_hash_mapIS5_S9_SD_NS5_14EqualsComparerINS0_8equal_toIS4_EEEENS0_9allocatorISA_EEE9SelectKeyESI_SK_E3endEv
lCb:__Z14resize_trimmedINSt3__26vectorIi13stl_allocatorIiL18MemLabelIdentifier12ELi16EEEEEvRT_j
UKd:_MouseButtonEventData_ReleasedThisFrame_m482758300
rZj:__ZN15dense_hashtableINSt3__24pairIK10KeyWrapperINS1_IP11Il2CppClassjEEES4_EES6_N6il2cpp8metadata14ArrayClassHashEN14dense_hash_mapIS6_S4_SB_NS6_14EqualsComparerINSA_17ArrayClassCompareEEENS0_9allocatorIS8_EEE9SelectKeyESF_SH_E9copy_fromERKSK_j
J6d:_ReadOnlyArrayListWrapper_set_Item_m2199017141
m8a:__ZN6Camera6SetFarEf
Dkj:_DeriveBytes_DeriveIV_m3343375195
K4c:_UNITY_FT_Init_Class_ft_bitmap_glyph_class
awd:_RNGCryptoServiceProvider_GetBytes_m167497991
hqa:__ZN6prcoreL12RemapGenericI17TexFormatABGR888817TexFormatARGB8888EEvPKNS_9InnerInfoE
pib:__ZN11GameManager17MainThreadCleanupEv
rvf:_Collection_1_GetEnumerator_m1417525918_gshared
bld:__Z50Register_UnityEngine_UISystemProfilerApi_EndSamplev
jHg:__Z60RuntimeInvoker_Boolean_t3825574718_PlayableOutput_t988259697PFvvEPK10MethodInfoPvPS4_
r_g:_TypeBuilder_get_Assembly_m492491492
ewf:_Collection_1_InsertItem_m1225429801_gshared
zTc:__ZN10Collider2D12AddToManagerEv
xFc:__ZN14ParticleSystem10ResetSeedsEv
Lcd:_UNITY_tt_slot_init
CUa:__ZZ23InitPlayerLoopCallbacksvEN41PostLateUpdateUpdateResolutionRegistrator7ForwardEv
_td:_HMACSHA512__cctor_m1167457383
OSb:__Z25scripting_array_class_get17ScriptingClassPtrj
quc:__ZL22Transfer_ManagedObjectI9JSONWriteLb1EEvRK29SerializationCommandArgumentsR31RuntimeSerializationCommandInfo
wI:__ZNK10SampleClip22GetTypeVirtualInternalEv
WBa:__ZN9GfxDevice20DestroyRenderSurfaceER12ObjectHandleI17RenderSurface_TagP17RenderSurfaceBaseE
Gca:__ZN18SpriteAtlasManagerC2Ev
Q1b:__ZL24PrepareSpriteRenderNodesILb1EEvR35RenderNodeQueuePrepareThreadContext
kPa:__ZN9GfxDevice22UpdateComputeResourcesEjPK9TextureIDPK16TextureDimensionPKijPKjjPK15ComputeBufferIDS7_PK20ComputeBufferCounterjSC_S2_S5_S9_SF_
o5b:__ZN12_GLOBAL__N_15qAsinEff
cEe:_Dictionary_2_Do_ICollectionCopyTo_TisKeyValuePair_2_t3749587448_m2536766696_gshared
Xfb:__ZN12TLSAllocatorI14StackAllocatorE13ThreadCleanupEv
yHg:__Z154RuntimeInvoker_RaycastHit2D_t4063908774_Vector2_t2243707579_Vector2_t2243707579_Single_t2076509932_Int32_t2071877448_Single_t2076509932_Single_t2076509932PFvvEPK10MethodInfoPvPS4_
OQ:__Z18GetAudioManagerPtrv
Ove:_Array_IndexOf_TisRuntimeObject_m1815604637_gshared
aef:_List_1_GetEnumerator_m2837081829_gshared
Wck:__ZThn4_N6il2cpp2vm13ComObjectBase16MarshalInterfaceEP13Il2CppIStreamRK10Il2CppGuidPvjS7_j
Gvb:__ZN4Mesh27SwizzleVertexColorsIfNeededEb
Dgb:__Z27FindActiveTransformWithPathPKc
pAh:_CanvasGroup_get_alpha_m1304564441
tjb:__ZN12BaseRendererD0Ev
Adb:__Z29StdTemplateConversionFunctionIbyEbPvR14SafeBinaryRead
nEg:__Z44RuntimeInvoker_X509KeyUsageFlags_t2461349531PFvvEPK10MethodInfoPvPS4_
G7e:_SecurityParser_OnEndElement_m2909940377
z0a:__ZNK6Camera7GetNearEv
$Ja:__ZN7ApiGLES11UnmapBufferEjN2gl12BufferTargetE
fdk:__ZN6il2cpp5utilsL24Utf32CharToSurrogatePairEjRA2_Ds
vpb:__Z25GetNextAllowedTextureSizeib13TextureFormat
afa:__ZN20LocalFileSystemWebGL4CopyER13FileEntryDataS1_
Njf:_List_1_CheckIndex_m4231572822_gshared
yY:__ZN19CloudServiceHandler6RetainEv
flk:__ZN6il2cpp2os9Semaphore4WaitEb
oRc:__ZN15b2FrictionJointD0Ev
OAd:_StrongName_Equals_m67226644
Ijb:__ZN12BaseRenderer20FlattenToRenderQueueER15RenderNodeQueueRK20DeprecatedSourceData
t$g:_FieldBuilder_get_Attributes_m2174064290
dWe:_UnmanagedMemoryStream_get_Length_m587008850
Osa:__Z34scripting_liveness_calculation_endPv
K8j:__ZN6il2cpp2os6ThreadC2Ev
DBd:_SecurityFrame_InitFromRuntimeFrame_m45195821
R_h:__ZL53TextReader_t1561828458_CustomAttributesCacheGeneratorP21CustomAttributesCache
lCj:_EnemyCollision_OnTriggerEnter2D_m3774661107
j$f:_X509Chain_IsSignedWith_m292245392
pu:__ZN21AnimationClipPlayable22ProcessAnimationNoClipEPK35AnimationPlayableEvaluationConstantPK32AnimationPlayableEvaluationInputP33AnimationPlayableEvaluationOutput
B8j:__ZNK6il2cpp2os10SocketImpl12GetLastErrorEv
Zre:_Array_InternalArray__ICollection_Remove_TisDateTime_t693205669_m1275668216_gshared
BNh:_Dictionary_2__ctor_m871840915_gshared
Ued:__ZNK19TextRenderingModule8TMGenGetERK11UTF16StringPN13TextRendering4FontE10TextAnchor13TextAlignmentfffbb11ColorRGBA32fii
Nvc:__Z18Transfer_BlittableI8JSONReadLb0E8Vector3fEvRK29SerializationCommandArgumentsR31RuntimeSerializationCommandInfo
hQi:_ChannelServices__cctor_m3534779830
U_j:__ZN6il2cpp2vm6Thread6DetachEP12Il2CppThread
B8c:_Render_Single_Pass
Oee:_Convert_ToInt16_m416789348
mGd:_EncoderExceptionFallback_Equals_m762170768
ixj:__ZL24UnresolvedVirtualCall_59P12Il2CppObjectS0_aPK10MethodInfo
tuj:_EqualityComparer_1__cctor_m2666196678_gshared
wdj:_MovedFromAttribute__ctor_m1535041828
nGh:_Enumerator_get_CurrentValue_m3147984131_AdjustorThunk
C8g:_GUIStyle_Init_m3872198731
RC:__ZN7mecanim8skeleton30SkeletonBuildReverseIndexArrayEPiPKiPKNS0_8SkeletonES6_
enc:__Z19GetGUIBlendMaterialv
GJg:__Z69RuntimeInvoker_Boolean_t3825574718_TextGenerationSettings_t2543476768PFvvEPK10MethodInfoPvPS4_
w9j:__ZN6il2cpp2os10ThreadImpl5SleepEjb
m3i:_InternalEnumerator_1_System_Collections_IEnumerator_Reset_m3669601605_AdjustorThunk
anj:_X509ExtensionCollection_System_Collections_IEnumerable_GetEnumerator_m2600902401
emd:__ZN11UnityEngine9Analytics15UserCustomEvent3AddEPKcb
bVf:_ListDictionary_FindEntry_m432748847
Dxk:_glBindSampler__wrapper
Zoj:_UnityAction_1_Invoke_m3523417209_gshared
Vf:_emscripten_set_mouseup_callback
$Oa:__ZN9GfxDevice27SetRandomWriteTargetTextureEi9TextureID
ENg:__Z58RuntimeInvoker_Boolean_t3825574718_SpriteState_t1353336012PFvvEPK10MethodInfoPvPS4_
dej:_SpaceAttribute__ctor_m1444406696
pCa:__ZN9GfxDevice47SwitchColorRenderSurfaceOutOfFastMemoryPlatformEP17RenderSurfaceBaseb
jea:__ZNK18ScreenManagerWebGL8GetWidthEv
Zrk:dynCall_iiifii
sLj:__ZN6il2cpp2vm13MetadataCache33GetFieldDefaultValueDataFromIndexEi
WTd:_GridLayoutGroup_set_startAxis_m1635162426
tI:__ZN10SampleClipD2Ev
PSi:_SynchronizationAttribute_EnterContext_m2984912761
kWh:__ZL73Enum_t2459695545_CustomAttributesCacheGenerator_Enum_ToObject_m2601523252P21CustomAttributesCache
mqe:_CultureInfo_construct_internal_locale_from_name_m971766383
v9j:__ZN6il2cpp2os10ThreadImpl13SetWaitObjectEPNS0_5posix15PosixWaitObjectE
q3d:_Byte_Equals_m368616327_AdjustorThunk
pye:_Array_InternalArray__ICollection_Add_TisUIVertex_t1204258818_m3869382594_gshared
iY:__ZN11UnityEngine15CloudWebService20WebRequestRestClientC2Ev
fcd:_cff_cmap_unicode_init
MXa:__ZNSt3__224__buffered_inplace_mergeIRN10vector_mapIiN17InstancedPropInfo12PropertyTypeENS_4lessIiEE13stl_allocatorINS_4pairIiS3_EEL18MemLabelIdentifier1ELi16EEE13value_compareENS_11__wrap_iterIPS8_EEEEvT0_SH_SH_T_NS_15iterator_traitsISH_E15difference_typeESL_PNSK_10value_typeE
Bsi:__ZL95CustomEventData_t1269126727_CustomAttributesCacheGenerator_CustomEventData_AddInt64_m1803231272P21CustomAttributesCache
Ene:_Enum_ToObject_m2460371738
j1e:_PrimalityTests_Test_m1088386156
d6:__ZN14FileCacherRead13GetFileLengthEv
dpc:__Z36Event_CUSTOM_Internal_SetNativeEvent13Il2Cpp_IntPtr
kok:_readlink
bWj:__ZN15dense_hashtableINSt3__24pairIK10KeyWrapperINS1_IPK9EventInfoP11Il2CppClassEEEjEES9_17ReflectionMapHashIS8_EN14dense_hash_mapIS9_jSD_NS9_14EqualsComparerINS0_8equal_toIS8_EEEENS0_9allocatorISB_EEE9SelectKeyESI_SK_E12resize_deltaEjj
CCe:_Array_Resize_TisVector3_t2243707580_m893658391_gshared
LXi:_InternalEnumerator_1_System_Collections_IEnumerator_get_Current_m4259662004_AdjustorThunk
eGe:_Array_InternalArray__get_Item_TisKeyframe_t1449471340_m1003508933_gshared
VGc:__ZN14ParticleSystem38UpdateModulesPostSimulationIncrementalER24ParticleSystemUpdateDataR23ParticleSystemParticlesjRKf
djk:__ZN6il2cpp8metadata14Il2CppTypeHash4HashEPK10Il2CppType
XAg:__Z50RuntimeInvoker_Double_t4078015681_Int64_t909078037PFvvEPK10MethodInfoPvPS4_
V5e:_StrongName_get_PublicKeyToken_m1968460885
Kyb:__ZNK6Sprite9GetBoundsE8Vector2fbb
sWa:__ZNK19RenderEventsContext21CleanupCommandBuffersEv
Nzj:__ZL25UnresolvedVirtualCall_198P12Il2CppObject6Guid_tS1_PK10MethodInfo
gFa:__ZN11ContextGLES6CreateEi
JPe:_BinaryReader_Dispose_m4249456877
XIg:__Z53RuntimeInvoker_AnimatorControllerPlayable_t1744083903PFvvEPK10MethodInfoPvPS4_
Tde:_Double_ToString_m1085043609
nSb:__Z19TransferField_ArrayI18StreamedBinaryReadILb0EE27Converter_SimpleNativeClassI17AnimationCurveTplIfEEEvRK23StaticTransferFieldInfoR31RuntimeSerializationCommandInfoRT0_
hMf:_CipherSuite_createEncryptionCipher_m1926075645
Ifb:__ZN14StackAllocator16FrameMaintenanceEb
pTd:_Graphic_Raycast_m3582517890
hib:__Z18ReadStringFromFilePN4core17string_with_labelILi1EEERKNS_12basic_stringIcNS_20StringStorageDefaultIcEEEE
O0:__ZNK10GameObject20QueryComponentByTypeEPKN5Unity4TypeE
ocf:_Enumerator_MoveNext_m1367380970_AdjustorThunk
H1g:_OpCode_GetHashCode_m2974727122
iMf:_CipherSuite_createDecryptionCipher_m1118350455
Y6i:_PatternCompiler_EmitReference_m1381860071
yH:__Z78AnimatorControllerPlayable_CUSTOM_INTERNAL_CALL_IsParameterControlledByCurveIDR9HPlayablei
ume:_Double_System_IConvertible_ToInt16_m4200640326
HHg:__Z84RuntimeInvoker_RuntimeObject_RayU26_t3651946800_Single_t2076509932_Int32_t2071877448PFvvEPK10MethodInfoPvPS4_
Cwa:__ZN11TextureData5ResetEv
Pgc:__Z53Register_UnityEngine_GameObject_get_activeInHierarchyv
v0g:_GenericTypeParameterBuilder_get_IsGenericType_m1883522222
WIb:__Z35Transfer_Blittable_FixedBufferFieldI17RemapPPtrTransferiEvRK29SerializationCommandArgumentsR31RuntimeSerializationCommandInfo
k2:__ZL30InitializeCoreScriptingClassesv
axf:_Collection_1_CheckWritable_m3938993573_gshared
Qg:_glBlitFramebuffer
fTa:__ZN17ArchiveFileSystem5TouchER13FileEntryData
IQf:_SecurityParameters_set_Cipher_m3888132335
r1e:_BigInteger_GeneratePseudoPrime_m2606361440
TIe:_DateTimeFormatInfo_get_ShortTimePattern_m20923983
RIb:__Z35Transfer_Blittable_SingleValueFieldI14SafeBinaryReadhEvRT_R17GeneralMonoObjectRK23StaticTransferFieldInfo
Zzi:__ZL140U3CMouseDragOutsideRectU3Ec__Iterator1_t2599668326_CustomAttributesCacheGenerator_U3CMouseDragOutsideRectU3Ec__Iterator1_Dispose_m2134284531P21CustomAttributesCache
Xpi:__ZL90Event_t3028476042_CustomAttributesCacheGenerator_Event_Internal_SetNativeEvent_m1899228752P21CustomAttributesCache
Aqd:__ZN22BaseUnityConnectClientC2ERN11UnityEngine7Connect20BasePersistentValuesE
I4e:_EncryptedPrivateKeyInfo_get_Algorithm_m2779196942
E5f:_RemotingServices_GetRealProxy_m620317996
T_a:__ZN13dynamic_arrayI11CulledLightLj4EE6insertEPS0_PKS0_S4_
iVi:_ArrayReadOnlyList_1_RemoveAt_m2270349795_gshared
hob:__ZNK12CubemapArray22GetTypeVirtualInternalEv
dCj:_Predicate_1_Invoke_m2060780095_gshared
oLj:__ZN6il2cpp2vm13MetadataCache23GetInterfaceOffsetIndexEi
ao:FUNCTION_TABLE_vif
bo:FUNCTION_TABLE_vid
eo:FUNCTION_TABLE_vii
ata:__Z40scripting_liveness_calculation_from_root18ScriptingObjectPtrPv
XKc:__ZN13InitialModuleD2Ev
kla:__ZN7Texture23VirtualRedirectTransferER24GenerateTypeTreeTransfer
t2c:_UNITY_FT_Set_Transform
I3b:__ZNK32RendererMaterialAnimationBinding12SetPPtrValueERKN11UnityEngine9Animation10BoundCurveEi
yUi:_ArrayReadOnlyList_1_Contains_m1266627404_gshared
WHg:__Z63RuntimeInvoker_Double_t4078015681_PlayableHandleU26_t4210769902PFvvEPK10MethodInfoPvPS4_
EEg:__Z101RuntimeInvoker_OpFlags_t378191910_SByte_t454417549_SByte_t454417549_SByte_t454417549_SByte_t454417549PFvvEPK10MethodInfoPvPS4_
ixk:_glDeleteFramebuffers__wrapper
OUd:_Image_get_overrideSprite_m706080347
TQg:__Z54RuntimeInvoker_Int32_t2071877448_LabelData_t3712112744PFvvEPK10MethodInfoPvPS4_
IHf:_BigInteger_ModInverse_m1881894572
wOj:__ZN6il2cpp2vm7Runtime17GetDelegateInvokeEP11Il2CppClass
KCi:__ZL79LayoutRebuilder_t2155218138_CustomAttributesCacheGenerator_U3CU3Ef__amU24cache4P21CustomAttributesCache
Qoh:_AnimationEvent__ctor_m3458990599
Jgf:_List_1_AddEnumerable_m3541747636_gshared
SXj:__ZN30dense_hashtable_const_iteratorINSt3__24pairIK10KeyWrapperIPK22Il2CppGenericParameterEPK24MonoGenericParameterInfoEES6_N6il2cpp5utils11PointerHashIS4_EEN14dense_hash_mapIS6_SA_SF_NS6_14EqualsComparerINS0_8equal_toIS5_EEEENS0_9allocatorISB_EEE9SelectKeyESK_SM_E30advance_past_empty_and_deletedEv
Hqb:__ZN28EnlightenRendererInformation8TransferI14SafeBinaryReadEEvRT_
iDg:__Z88RuntimeInvoker_RuntimeObject_RuntimeObject_Int32_t2071877448_RuntimeObject_RuntimeObjectPFvvEPK10MethodInfoPvPS4_
W0h:__ZL69DefaultDependencyAttribute_t3858269114_CustomAttributesCacheGeneratorP21CustomAttributesCache
bQa:__ZNK15Lz4Decompressor16DecompressMemoryEPKvPjPvS2_
X6c:_UNITY_tt_face_build_cmaps
Ilh:_Ray_ToString_m2019179238
l_c:__ZN11Rigidbody2D8TransferI24GenerateTypeTreeTransferEEvRT_
Cbj:_Uri_GetOpaqueWiseSchemeDelimiter_m3686606461
afb:__ZNSt3__26__treeINS_12__value_typeIN4core12basic_stringIcNS2_20StringStorageDefaultIcEEEEPN16MemoryFileSystem4NodeEEENS_19__map_value_compareIS6_SA_NS_4lessIS6_EELb1EEE13stl_allocatorISA_L18MemLabelIdentifier54ELi16EEE4findIS6_EENS_15__tree_iteratorISA_PNS_11__tree_nodeISA_PvEEiEERKT_
Lje:_Decimal_System_IConvertible_ToType_m3828527724_AdjustorThunk
cXd:_InputField_get_caretPositionInternal_m3011712053
i6c:_UNITY_tt_face_load_os2
xJf:_HMAC_get_Key_m2528863640
Oxf:_Collection_1_IsSynchronized_m1366278230_gshared
t6h:__ZL93StringBuilder_t1221177846_CustomAttributesCacheGenerator_StringBuilder_AppendLine_m1686706871P21CustomAttributesCache
rG:__Z90Register_UnityEngine_Animations_AnimationOffsetPlayable_INTERNAL_CALL_CreateHandleInternalv
sIb:__Z29Transfer_Blittable_ArrayFieldI14SafeBinaryRead8Vector4fEvRT_R9ArrayInfoRK23StaticTransferFieldInfo
sqe:_Array_get_swapper_TisInt32_t2071877448_m2837069166_gshared
fUj:__ZN6il2cpp2gc19AppendOnlyGCHashMapINSt3__24pairIPK10MethodInfoP11Il2CppClassEEP22Il2CppReflectionMethod17ReflectionMapHashIS9_ENS2_8equal_toIS9_EEE3AddERKS9_SB_
x2h:__ZL62IDynamicMessageSink_t3056162262_CustomAttributesCacheGeneratorP21CustomAttributesCache
QOg:__Z77RuntimeInvoker_Boolean_t3825574718_AspectModeU26_t218518220_Int32_t2071877448PFvvEPK10MethodInfoPvPS4_
cnh:_RectTransform_INTERNAL_get_rect_m1177342209
ftf:_Collection_1_Clear_m268154422_gshared
mKd:_PointerEventData_IsScrolling_m1971908975
HTg:__Z56RuntimeInvoker_ContentType_t1028629049_Int32_t2071877448PFvvEPK10MethodInfoPvPS4_
tUa:__ZZ23InitPlayerLoopCallbacksvEN51PostLateUpdateUpdateCustomRenderTexturesRegistrator7ForwardEv
Koi:__ZL53UILineInfo_t3621277874_CustomAttributesCacheGeneratorP21CustomAttributesCache
Xje:_Decimal_System_IConvertible_ToInt16_m3159038792
Nu:__ZN7mecanim9animation12EvaluateClipEPKNS0_4ClipEPKNS0_9ClipInputEPNS0_10ClipMemoryEPNS0_10ClipOutputE
Sqb:__ZN4PPtrI11LightProbesE8TransferI18StreamedBinaryReadILb0EEEEvRT_
JOi:_ComVisibleAttribute__ctor_m1789587486
Fzj:__ZL25UnresolvedVirtualCall_190P12Il2CppObject6Guid_tS1_PK10MethodInfo
V4g:_MonoMethodInfo_GetReturnType_m2864247130
NBg:__Z39RuntimeInvoker_DateTimeKind_t2186819611PFvvEPK10MethodInfoPvPS4_
J6a:__ZN13RenderManager29SetCurrentCameraAndStackStateEP6CameraP25CameraStackRenderingState
G_j:__ZN15dense_hashtableINSt3__24pairIK10KeyWrapperINS1_IP11Il2CppClassjEEES4_EES6_N6il2cpp8metadata14ArrayClassHashEN14dense_hash_mapIS6_S4_SB_NS6_14EqualsComparerINSA_17ArrayClassCompareEEENS0_9allocatorIS8_EEE9SelectKeyESF_SH_E12resize_deltaEjj
ci:_JS_WebRequest_Release
WQe:_DirectoryNotFoundException__ctor_m2242202556
xW:__ZN11UnityEngine15CloudWebService14DataErrorEventD0Ev
fHg:__Z64RuntimeInvoker_RuntimeObject_PlayableOutputHandleU26_t2649796401PFvvEPK10MethodInfoPvPS4_
ZEd:_String_CreateString_m2448464375
Q0f:_X509SubjectKeyIdentifierExtension__ctor_m2959112706
oGh:_Enumerator_Reset_m1147555085_AdjustorThunk
K2g:_FieldInfo_get_IsNotSerialized_m2322769148
PEc:__ZN14EmissionModule5ResetEv
xhj:_Vector3_get_zero_m1527993324
jai:__ZL68Math_t2022911894_CustomAttributesCacheGenerator_Math_Max_m2671311541P21CustomAttributesCache
Q5j:__ZN6il2cpp8metadata15GenericMetadata7InflateEPK19Il2CppGenericMethodPK20Il2CppGenericContext
BVa:__ZN19ShaderPropertySheet16SetArrayPropertyEN9ShaderLab16FastPropertyNameENS_12PropertyTypeEPKvj
O4g:_MonoGenericCMethod_get_ReflectedType_m2689239043
Pxf:_Collection_1_IsFixedSize_m499196375_gshared
ePd:_ColorTween_set_startColor_m3546206870_AdjustorThunk
SWh:__ZL67RuntimeArray_CustomAttributesCacheGenerator_Array_IndexOf_m77084779P21CustomAttributesCache
$ji:__ZL96Transform_t3275118058_CustomAttributesCacheGenerator_Transform_INTERNAL_set_rotation_m3703763817P21CustomAttributesCache
WUh:__ZL63String_t_CustomAttributesCacheGenerator_String_Split_m394273024P21CustomAttributesCache
sgd:__ZN2UI11CanvasGroup23VirtualRedirectTransferER19StreamedBinaryWriteILb0EE
y_i:_InternalEnumerator_1_get_Current_m4083613828_gshared
ooc:__ZN8GUIState8EndOnGUIEv
ogg:_UnicodeEncoding_GetString_m542738941
f2j:__ZN6il2cpp6icalls8mscorlib6System2IO6MonoIO16get_ConsoleErrorEv
Scd:_UNITY_TT_Get_VMetrics
vQe:_Path_InsecureGetFullPath_m2635272425
Gbe:_Enumerator_Clone_m1124749523
Hhe:_DateTime_System_IConvertible_ToUInt32_m1363211018
Wag:_RuntimeMethodHandle__ctor_m1162528746
cpf:_Enumerator_Dispose_m3300818037_AdjustorThunk
umf:_List_1_AsReadOnly_m4108578222_gshared
nYh:__ZL65DebuggerHiddenAttribute_t638884887_CustomAttributesCacheGeneratorP21CustomAttributesCache
odg:_DSA__ctor_m613430209
tte:_SetPropertyUtility_SetStruct_TisSingle_t2076509932_m3849235084_gshared
HHa:__ZN7Texture21GetMasterTextureLimitEv
q9a:__Z12CanAddScriptR10GameObject17ScriptingClassPtrPS1_S2_
aZj:__ZN6il2cpp2vm10Reflection12HasAttributeEP12Il2CppObjectP11Il2CppClass
Lhi:__ZL81Mesh_t1356156583_CustomAttributesCacheGenerator_Mesh_get_subMeshCount_m1945011773P21CustomAttributesCache
Zxc:__ZN8JSONRead21TransferSTLStyleArrayI13dynamic_arrayI4AABBLj4EEEEvRT_18MemLabelIdentifier17TransferMetaFlags
yoj:_InvokableCall_1__ctor_m121193486_gshared
X0:__ZN9ShaderLabL25StaticInitializeShaderLabEPv
bPh:_Dictionary_2_ContainsKeyValuePair_m3818021458_gshared
U:Math_max
Yxf:_Collection_1_System_Collections_IList_Insert_m1511106741_gshared
Pxj:__ZL24UnresolvedVirtualCall_92P12Il2CppObjectPK10MethodInfo
iPj:_il2cpp_class_get_methods
yQe:_Path_CanonicalizePath_m383914732
vFh:_Enumerator_System_Collections_IEnumerator_get_Current_m1631145297_gshared
N5d:_ArrayList_Synchronized_m2395071980
S8j:__ZN6il2cpp2os6Thread16GetCurrentThreadEv
IWh:__ZL81RuntimeArray_CustomAttributesCacheGenerator_Array_SetValue_m169741241____indices1P21CustomAttributesCache
J5b:__ZN10GameObject13ComponentPair15SetComponentPtrEPN5Unity9ComponentE
ZVe:_UnexceptionalStreamWriter_Write_m3206913035
p$b:__Z13RegisterClassI10MeshFilterEvv
iF:__ZNK26AnimatorControllerPlayable24GetAnimatorClipInfoCountEib
njb:__ZN10TagManager8TransferI19StreamedBinaryWriteILb0EEEEvRT_
bFb:__ZN11PreloadData23VirtualRedirectTransferER18StreamedBinaryReadILb0EE
eub:__ZN13sorted_vectorI4PPtrI11SpriteAtlasENSt3__24lessIS2_EE13stl_allocatorIS2_L18MemLabelIdentifier1ELi16EEE21sort_clear_duplicatesEv
Vz:__Z17dynamic_pptr_castIP10MonoScript6ObjectET_RK4PPtrIT0_E
wth:_AnimatorControllerPlayable_GetAnimatorTransitionInfo_m2080024628_AdjustorThunk
mdg:_DESTransform_ProcessBlock_m2826669227
pMe:_Int16_CompareTo_m3493496879
$jj:_GeneralNames_get_IPAddresses_m1712556836
Kii:__ZL56RenderTexture_t2666733923_CustomAttributesCacheGeneratorP21CustomAttributesCache
pti:__ZL56ColorWriteMask_t926634530_CustomAttributesCacheGeneratorP21CustomAttributesCache
Zuh:_AnimatorControllerPlayable_Play_m3296663958_AdjustorThunk
Ysb:__ZN6Sprite17MainThreadCleanupEv
Tci:__ZL56OidCollection_t3790243618_CustomAttributesCacheGeneratorP21CustomAttributesCache
n5h:__ZL61SignatureDescription_t89145500_CustomAttributesCacheGeneratorP21CustomAttributesCache
_Zi:_InternalEnumerator_1_MoveNext_m3389738333_AdjustorThunk
xN:__ZN10AudioMixer14UpdateMuteSoloEv
hWa:__Z17GetMonoManagerPtrv
K0j:__ZN6il2cpp2vm9Exception27RaiseNullReferenceExceptionEv
Opf:_Stack_1_System_Collections_ICollection_get_SyncRoot_m3151629354_gshared
uWc:__ZNK16CircleCollider2D22GetCompositeCapabilityEv
bFi:_MaskableGraphic_UnityEngine_UI_IClippable_get_gameObject_m954171032
Yla:__ZN9ShaderLab10SubProgram7CompileEv
HGa:__ZN7ApiGLES16SetPatchVerticesEi
vTe:_MonoIOStat_t1621921065_marshal_pinvoke
BTa:__ZN10MemoryFileC2E18MemLabelIdentifierP14MemoryFileData14FilePermission
E6f:_TrackingServices_NotifyUnmarshaledObject_m1794048369
pEj:__ZN6il2cpp2vm5Class20FromGenericParameterEPK22Il2CppGenericParameter
v3h:__ZL59RemotingServices_t2399536837_CustomAttributesCacheGeneratorP21CustomAttributesCache
XY:__ZN19CloudServiceHandler11FlushEventsEv
rba:__ZN15GlobalCallbacksC2Ev
aBe:_Array_InternalArray__set_Item_TisLabelFixup_t4090909514_m565370771_gshared
yWc:__ZN7b2World10CreateBodyEPK9b2BodyDef
aI:__Z82Register_UnityEngine_Animations_AnimatorControllerPlayable_INTERNAL_CALL_SetBoolIDv
T3c:_UNITY_FT_New_Memory_Face
Jbi:__ZL74X509Crl_t1699034837_CustomAttributesCacheGenerator_U3CU3Ef__switchU24map13P21CustomAttributesCache
mag:_SerializationEntry__ctor_m1619256036_AdjustorThunk
UG:__Z81AnimatorControllerPlayable_CUSTOM_INTERNAL_CALL_GetAnimatorTransitionInfoInternalR9HPlayablei
M1c:__ZN20TextRenderingPrivate21TextMeshGeneratorImpl5FlushEv
Xza:__ZN26VertexDeclarationCacheGLES24DestroyVertexDeclarationEP17VertexDeclaration
GAd:__Z15CastclassSealedP12Il2CppObjectP11Il2CppClass
P_b:__ZN15ApplicationInfo14GetSandboxTypeEv
gvg:__Z41RuntimeInvoker_TypeAttributes_t2229518203PFvvEPK10MethodInfoPvPS4_
YIb:__Z18Transfer_BlittableI17RemapPPtrTransferLb1EhEvRK29SerializationCommandArgumentsR31RuntimeSerializationCommandInfo
dbk:__ZNSt3__26vectorIjNS_9allocatorIjEEE26__swap_out_circular_bufferERNS_14__split_bufferIjRS2_EE
L7a:__ZN16ReflectionProbes40UpdateRealtimeReflectionProbesTimeslicedEv
Jrj:_ListPool_1_Get_m529219189_gshared
X4j:__ZNSt3__26__treeINS_12__value_typeIP24Il2CppReflectionAssemblyPvEENS_19__map_value_compareIS3_S5_NS_4lessIS3_EELb1EEENS_9allocatorIS5_EEE16__insert_node_atEPNS_16__tree_node_baseIS4_EERSF_SF_
U0g:_MethodBuilder_GetBaseDefinition_m774166361
v8f:_FormatterConverter__ctor_m3958982477
$Bb:__ZNK30RuntimeInitializeOnLoadManager22GetTypeVirtualInternalEv
WIj:__ZN15dense_hashtableINSt3__24pairIK10KeyWrapperIN6il2cpp5utils13dynamic_arrayIPK10Il2CppTypeLj4EEEEPFvvEEESA_NS3_8metadata19Il2CppSignatureHashEN14dense_hash_mapISA_SD_SG_NSA_14EqualsComparerINSF_22Il2CppSignatureCompareEEENS0_9allocatorISE_EEE9SelectKeyESK_SM_E12resize_deltaEjj
n3b:__ZN16ReflectionProbes15InitializeClassEv
tik:__ZN6il2cpp5utils5MatchENSt3__212basic_stringIcNS1_11char_traitsIcEENS1_9allocatorIcEEEEjRKS7_j
p4c:_UNITY_FT_Destroy_Class_psnames_module_class
TSc:__ZNK12b2WheelJoint17GetReactionTorqueEf
jKj:__ZNK15dense_hashtableINSt3__24pairIK10KeyWrapperIPK11Il2CppClassEPKcEES6_N6il2cpp5utils11PointerHashIS3_EEN14dense_hash_mapIS6_S9_SE_NS6_14EqualsComparerINS0_8equal_toIS5_EEEENS0_9allocatorISA_EEE9SelectKeyESJ_SL_E12test_deletedEj
A6i:_MRUList_Evict_m2430323183
ICf:_ReadOnlyCollection_1_System_Collections_Generic_ICollectionU3CTU3E_Remove_m1060547576_gshared
zLg:__Z68RuntimeInvoker_Boolean_t3825574718_Rect_t3681755626_SByte_t454417549PFvvEPK10MethodInfoPvPS4_
JFe:_Array_InternalArray__get_Item_TisRuntimeObject_m371871810_gshared
MVe:_NullTextWriter_Write_m2306984725
$z:__ZN8Animator13BatchedFKPassERK13dynamic_arrayIP14PlayableOutputLj4EE
qRf:_RecordProtocol_ProcessChangeCipherSpec_m3233959862
QBh:_Component_GetComponent_m4225719715
ujc:__Z75Register_UnityEngine_Playables_PlayableHandle_INTERNAL_CALL_SetTimeInternalv
ASd:_Graphic_set_raycastTarget_m1229173591
yDe:_Array_Sort_TisVector4_t2243707581_m474199742_gshared
Wgf:_List_1_CheckIndex_m2247532995_gshared
Yri:__ZL93GUIUtility_t3275770671_CustomAttributesCacheGenerator_GUIUtility_set_guiIsExiting_m2362636745P21CustomAttributesCache
HVe:_TextWriter_Write_m576684782
Qij:_Vector3_Max_m2105825185
$j:_glIsVertexArray
ECb:__ZNSt3__26vectorIN4core12basic_stringIcNS1_20StringStorageDefaultIcEEEE13stl_allocatorIS5_L18MemLabelIdentifier12ELi16EEEC2INS_11__wrap_iterIPS5_EEEET_SE_RKS8_PNS_9enable_ifIXaasr21__is_forward_iteratorISE_EE5valuesr16is_constructibleIS5_NS_15iterator_traitsISE_E9referenceEEE5valueEvE4typeE
KQa:__ZN25SingleBlockMemoryFileDataC2E18MemLabelIdentifierPvjb
Ygb:__ZN5Unity9Component8TransferI18StreamedBinaryReadILb0EEEEvRT_
fa:invoke_fff
VLi:_Text_get_fontSize_m3105730761
juk:b14
HQf:_TlsServerHello_Update_m1740270635
Dfd:__ZN2UI6Canvas17MainThreadCleanupEv
Rpa:__ZN6prcoreL12RemapGenericI17TexFormatARGB155517TexFormatRGBA8888EEvPKNS_9InnerInfoE
BIi:_ScrollRect_Rebuild_m3423824761
ymf:_List_1_Find_m3862454845_gshared
BNd:_CanvasScaler_get_physicalUnit_m3637173174
p6i:_MatchCollection_get_Item_m2609281578
BNa:__ZN7ApiGLES13CreateProgramEv
glb:__ZN11HaloManager7AddHaloEv
ihg:_UTF8Encoding__ctor_m100325490
THa:__ZN4crnd12crn_unpackerD2Ev
yLi:_StencilMaterial_ClearAll_m1372779118
lk:_emscripten_glTexImage2D
e5f:_ObjRefSurrogate_SetObjectData_m1873902916
Dcd:_tt_driver_class_pic_init
a2:__ZN18ScriptingArguments9AddStringEPKc
ugk:_setup_header
jAf:_ReadOnlyCollection_1_System_Collections_IList_get_IsReadOnly_m1367736517_gshared
Wei:__ZL116Component_t3819376471_CustomAttributesCacheGenerator_Component_GetComponentsInParent_m1920178904____includeInactive1P21CustomAttributesCache
Mqk:runPostSets
dwi:__ZL93AxisEventData_t1524870173_CustomAttributesCacheGenerator_AxisEventData_set_moveDir_m254243794P21CustomAttributesCache
Nva:__ZL23stbir__resize_arbitraryPvPKviiiS_iiiffffPfiij14stbir_datatype12stbir_filterS4_10stbir_edgeS5_16stbir_colorspace
uFc:__ZN23ParticleSystemParticles13array_reserveEj
qif:_List_1_System_Collections_IList_Insert_m848656350_gshared
bLb:__Z18Transfer_BlittableI24GenerateTypeTreeTransferLb1E8Vector4fEvRK29SerializationCommandArgumentsR31RuntimeSerializationCommandInfo
PMe:_Int16_ToString_m3971652088_AdjustorThunk
kyj:__ZL25UnresolvedVirtualCall_115P12Il2CppObjecttaaPK10MethodInfo
wk:_pthread_detach
VLj:__ZN6il2cpp2vm19SocketPollingThread7RunLoopEv
I9e:_KeyValuePair_2__ctor_m1640124561_AdjustorThunk
u4f:_MethodDictionary_AllocInternalProperties_m3261295876
n6b:__ZN15DirectorManager20ScheduleGraphDestroyERK14HPlayableGraph
Jya:__ZNSt3__213__stable_sortIRN10vector_mapI17ScriptingClassPtrPKN5Unity4TypeENS_4lessIS2_EENS_9allocatorINS_4pairIS2_S6_EEEEE13value_compareENS_11__wrap_iterIPSB_EEEEvT0_SJ_T_NS_15iterator_traitsISJ_E15difference_typeEPNSM_10value_typeEi
hdi:__ZL77U3CPrivateImplementationDetailsU3E_t1486305139_CustomAttributesCacheGeneratorP21CustomAttributesCache
qWb:__ZN9ShaderLab25SerializedTextureProperty8TransferI24GenerateTypeTreeTransferEEvRT_
dHf:_Comparison_1_Invoke_m2645957248_gshared
XBk:_emscripten_glIsShader__wrapper
UWj:__ZN6il2cpp2gc19AppendOnlyGCHashMapINSt3__24pairIPK14Il2CppAssemblyP11Il2CppClassEEP24Il2CppReflectionAssembly17ReflectionMapHashIS9_ENS2_8equal_toIS9_EEEC2Ev
T7c:_tt_cmap14_char_next
U$h:__ZL69AssemblyTrademarkAttribute_t3740556705_CustomAttributesCacheGeneratorP21CustomAttributesCache
MDa:__ZN13GfxDeviceGLES28GetNativeVertexBufferPointerEP9GfxBuffer
jka:__ZN11NamedObject8TransferI18StreamedBinaryReadILb0EEEEvRT_
xMa:__ZNK17GPUSkinPoseBuffer12GetBoneCountEv
HCj:_Player_LanzarDisparo_m2668376192
kqc:__Z32GUIStyle_Get_Custom_PropFontSizeP12Il2CppObject
dag:_DelegatePInvokeWrapper_CallbackHandler_t362827733
Fai:__ZL59ResolveEventArgs_t1859808873_CustomAttributesCacheGeneratorP21CustomAttributesCache
gpj:_UnityAction_1_BeginInvoke_m3462722079_gshared
n3j:__ZNK15dense_hashtableINSt3__24pairIK10KeyWrapperIP14Il2CppIUnknownEjEES5_N6il2cpp5utils11PointerHashIS3_EEN14dense_hash_mapIS5_jSB_NS5_14EqualsComparerINS0_8equal_toIS4_EEEENS0_9allocatorIS7_EEE9SelectKeyESG_SI_E12test_deletedEj
C2g:_EventInfo_get_MemberType_m3337516651
Dwc:__Z18Transfer_BlittableI8JSONReadLb1EyEvRK29SerializationCommandArgumentsR31RuntimeSerializationCommandInfo
Tk:_emscripten_glMatrixMode
Hs:__ZN8Animator23VirtualRedirectTransferER18StreamedBinaryReadILb0EE
x$h:__ZL93TypeBuilder_t3308873219_CustomAttributesCacheGenerator_TypeBuilder_GetConstructors_m774120094P21CustomAttributesCache
NY:__ZN19CloudServiceHandler19StopEventDispatcherEv
KRe:_NotSupportedException__ctor_m836173213
Q4f:_MethodReturnDictionary__ctor_m756139344
TV:__ZN11UnityEngine15CloudWebService14DataDispatcher16PrepareDataBlockERNS0_16SessionContainerE
SNa:__ZN18GfxFramebufferGLES5ClearE13GfxClearFlagsRK10ColorRGBAffib
KOg:__Z70RuntimeInvoker_Void_t1841601450_Playable_t1896841784_Int32_t2071877448PFvvEPK10MethodInfoPvPS4_
Hqk:___cxa_guard_release
xnf:_List_1_GetIndex_m2513359832_gshared
UWi:_InternalEnumerator_1__ctor_m967618647_gshared
CRb:__ZL26Transfer_SimpleNativeClassI18StreamedBinaryReadILb0EE10RectOffsetLb0EEvRK29SerializationCommandArgumentsR31RuntimeSerializationCommandInfo
m4c:_UNITY_ft_destroy_default_module_classes
Xef:_List_1_CheckMatch_m1772343151_gshared
m_a:__ZL12DepthPassJobPN21GfxDeviceAsyncCommand10ArgScratchEPKNS_3ArgE
TUb:__ZNSt3__26vectorIN9ShaderLab20SerializedSubProgram16TextureParameterENS_9allocatorIS3_EEE6assignINS_11__wrap_iterIPS3_EEEENS_9enable_ifIXaasr21__is_forward_iteratorIT_EE5valuesr16is_constructibleIS3_NS_15iterator_traitsISC_E9referenceEEE5valueEvE4typeESC_SC_
hPe:_IntPtr_Equals_m1214967011_AdjustorThunk
qlf:_List_1_Add_m3591975577_gshared
sjd:__Z55Register_UnityEngine_CanvasGroup_get_ignoreParentGroupsv
R$b:__Z13RegisterClassI19LowerResBlitTextureEvv
jwi:__ZL100PointerEventData_t1599784723_CustomAttributesCacheGenerator_U3CpointerPressRaycastU3Ek__BackingFieldP21CustomAttributesCache
WBc:__ZN11MinMaxCurve5ResetE23ParticleSystemCurveModef
Xm:FUNCTION_TABLE_iiiiiiiiiiii
tFc:__ZNK14ParticleSystem27CalculateMaxActiveParticlesEv
Kkb:__ZN16GraphicsSettingsD0Ev
fdb:__Z29StdTemplateConversionFunctionIshEbPvR14SafeBinaryRead
czk:_pthread_mutex_init__wrapper
l6a:__ZN15LODGroupManager21CalculateLODDataArrayERK13LODParametersPK6Cameraf
n:cttz_i8
wad:_UNITY_FT_GlyphLoader_Add
$ki:__ZL108Physics2D_t2540166467_CustomAttributesCacheGenerator_Physics2D_GetRayIntersectionAll_m253330691____distance1P21CustomAttributesCache
XIe:_DateTimeFormatInfo_get_FullDateTimePattern_m2607507656
fRf:_HttpsClientStream_RaiseServerCertificateValidation_m3356770426
yle:_DelegateSerializationHolder__ctor_m3915060553
HCb:__ZN15SerializeTraitsINSt3__26vectorIN30RuntimeInitializeOnLoadManager9ClassInfoE13stl_allocatorIS3_L18MemLabelIdentifier12ELi16EEEEE8TransferI24GenerateTypeTreeTransferEEvRS7_RT_
SDe:_Array_swap_TisUIVertex_t1204258818_TisUIVertex_t1204258818_m1163375424_gshared
Pl:_emscripten_glViewport
Jck:__ZN6il2cpp6icalls8mscorlib6System15MonoCustomAttrs17IsDefinedInternalEP12Il2CppObjectP20Il2CppReflectionType
qvb:__ZN4Mesh21UnswizzleVertexColorsEb
wca:__ZN30dense_hashtable_const_iteratorINSt3__24pairIKN4core12basic_stringIcNS2_20StringStorageDefaultIcEEEEP11AssetBundleEES6_20StringHash32FunctionIS6_EN14dense_hash_mapIS6_S9_SC_NS0_8equal_toIS6_EENS0_9allocatorISA_EEE9SelectKeyESF_SH_EppEv
wQf:_TlsServerSettings_set_CertificateTypes_m264196087
iYi:_InternalEnumerator_1__ctor_m4150855019_gshared
Aie:_DateTime_ToString_m2276663647_AdjustorThunk
Acd:_cff_parse_font_bbox
Odc:__Z35Application_Get_Custom_PropIsEditorv
ms:__GLOBAL__sub_I_runtime_animation2_lump_cpp
vAb:__ZN14PlayerSettings23VirtualRedirectTransferER18StreamedBinaryReadILb0EE
W8e:_KeyValuePair_2__ctor_m3201181706_AdjustorThunk
Alk:__ZN6il2cpp2os5Event5ResetEv
I3a:__Z26CombineDepthNormalsTextureRK17RenderLoopContextR13dynamic_arrayI16RenderObjectDataLj4EE
Usj:_AesManaged__ctor_m2322442838
C5j:__ZN6il2cpp8metadata15GenericMetadata17InflateParametersEPK13ParameterInfohPK20Il2CppGenericContextb
sOe:_Int64_System_IConvertible_ToUInt32_m850395426_AdjustorThunk
d3:__ZN18AwakeFromLoadQueue28InvokePersistentManagerAwakeEPNS_4ItemEj17AwakeFromLoadMode
f$g:_TypeBuilder_GetMethodsByName_m229541072
nyh:_PCMReaderCallback_Invoke_m3610389815
Xtd:_HMACSHA512__ctor_m2390736870
Ly:__ZNK17AnimationPlayable27GetNextCompatibleDescendantEi
wjk:__ZNSt3__26__treeINS_12__value_typeIPvxEENS_19__map_value_compareIS2_S3_NS_4lessIS2_EELb1EEENS_9allocatorIS3_EEE16__insert_node_atEPNS_16__tree_node_baseIS2_EERSD_SD_
Lhb:__ZN4PPtrI6SpriteE8TransferI18StreamedBinaryReadILb0EEEEvRT_
b$g:_TypeBuilder_GetInterfaces_m1818658502
KSf:_TlsException_get_Alert_m4022765752
wHf:_BigInteger_op_Equality_m2683055762
Cga:__Z25SetNeedToPerformRenderingb
pDc:__ZN12LightsModule8TransferI17RemapPPtrTransferEEvRT_
h5g:_MonoMethod_GetPseudoCustomAttributes_m466965107
U8i:__ZN21InterfaceFuncInvoker0IP19LinkRef_t2090853131E6InvokeEjP11Il2CppClassP12Il2CppObject
HKh:_ValueCollection_System_Collections_Generic_IEnumerableU3CTValueU3E_GetEnumerator_m1604400448_gshared
V1a:__ZNSt3__227__insertion_sort_incompleteIR23CompareReflectionProbesP31RuntimeReflectionProbeBlendInfoEEbT0_S5_T_
B_a:__ZN14qsort_internal30FindAndMovePivotToLastPositionIP15RODataDepthPassi17ROSorterDepthPassEEvT_S4_T0_T1_
ROg:__Z75RuntimeInvoker_Boolean_t3825574718_SingleU26_t4173844468_Single_t2076509932PFvvEPK10MethodInfoPvPS4_
Mzc:__ZN29InitialModulePropertyBindings13GetFloatValueERK14ParticleSystemi
Hrd:__ZN20UnityWebRequestProtoI19TransportJavaScript16AtomicRefCounter14RedirectHelper14ResponseHelper15DownloadHandler13UploadHandler12HeaderHelper14AsyncOperationE35Task_FinalizeAfterDHCompleteContentEPv
Zcj:_ResourceRequest_t2560315377_marshal_pinvoke
cHh:_Enumerator_System_Collections_IDictionaryEnumerator_get_Value_m3005608231_gshared
Dwj:__ZL24UnresolvedVirtualCall_26P12Il2CppObjectS0_iiPK10MethodInfo
sEi:_MaskUtilities_NotifyStencilStateChanged_m1527407683
jxg:__Z94RuntimeInvoker_Void_t1841601450_RuntimeObject_Int32_t2071877448_RuntimeObject_SByte_t454417549PFvvEPK10MethodInfoPvPS4_
x6a:__ZN12CullingGroup10SendEventsEPK17CullingGroupEventj
T2e:_DSAManaged_GenerateKeyPair_m2711647034
hcb:__ZN13sorted_vectorINSt3__24pairIN4core12basic_stringIcNS2_20StringStorageDefaultIcEEEES6_EEN10vector_mapIS6_S6_27compare_tstring_insensitiveIS6_E13stl_allocatorIS7_L18MemLabelIdentifier37ELi16EEE13value_compareESD_E9erase_oneIS6_EEjRKT_
sAj:__ZL25UnresolvedVirtualCall_231P12Il2CppObject22UILineInfo_t3621277874PK10MethodInfo
yrb:__ZThn32_NK8Renderer8GetLayerEv
Txe:_Array_InternalArray__ICollection_Add_TisResourceCacheItem_t333236149_m1151081240_gshared
jUg:__Z39RuntimeInvoker_RaycastHit2D_t4063908774PFvvEPK10MethodInfoPvPS4_
oDf:_ReadOnlyCollection_1_System_Collections_Generic_ICollectionU3CTU3E_get_IsReadOnly_m2197226755_gshared
pQ:__ZN17AudioClipPlayable12PrepareFrameERK19DirectorVisitorInfo
cfe:_Convert_ToInt32_m2209788057
A4j:__ZN30dense_hashtable_const_iteratorINSt3__24pairIK10KeyWrapperINS1_IPKcS4_EEEiEES6_24NamespaceAndNamePairHashN14dense_hash_mapIS6_iS9_NS6_14EqualsComparerI26NamespaceAndNamePairEqualsEENS0_9allocatorIS8_EEE9SelectKeyESD_SF_E30advance_past_empty_and_deletedEv
R7f:_SoapServices_GetXmlTypeForInteropType_m3821579913
vuj:_EqualityComparer_1_System_Collections_IEqualityComparer_Equals_m3601790950_gshared
Nri:__ZL117GUIStyle_t1799908754_CustomAttributesCacheGenerator_GUIStyle_INTERNAL_CALL_Internal_GetCursorPixelPosition_m562482816P21CustomAttributesCache
Vzk:_emscripten_glTexParameterfv__wrapper
Fih:_Physics2D_INTERNAL_CALL_Internal_Raycast_m489831109
b6i:_Match__ctor_m2452513644
$Pj:_il2cpp_method_get_param_count
p_b:__ZN10systeminfo19ISOToSystemLanguageERN4core12basic_stringIcNS0_20StringStorageDefaultIcEEEE
NVj:__ZNK15dense_hashtableINSt3__24pairIK10KeyWrapperINS1_IPK12PropertyInfoP11Il2CppClassEEEjEES9_17ReflectionMapHashIS8_EN14dense_hash_mapIS9_jSD_NS9_14EqualsComparerINS0_8equal_toIS8_EEEENS0_9allocatorISB_EEE9SelectKeyESI_SK_E3endEv
BUd:_HorizontalOrVerticalLayoutGroup_get_childForceExpandWidth_m227100883
WLg:__Z34RuntimeInvoker_LogType_t1559732862PFvvEPK10MethodInfoPvPS4_
vph:_AnimationClipPlayable_op_Explicit_m1819456049
mgj:_TouchScreenKeyboard_get_active_m1442597648
bdi:__ZL68Uri_t19570940_CustomAttributesCacheGenerator_U3CU3Ef__switchU24map15P21CustomAttributesCache
S8c:_ps_dimension_done
IMd:_LayoutRebuilder_MarkLayoutForRebuild_m640589351
tfd:__Z46Register_UnityEngine_TextGenerator_Dispose_cppv
oKd:_PointerEventData_get_pressEventCamera_m724559964
Uzd:_String_IndexOfUnchecked_m3356721554
mqb:__ZN16LightmapSettings8TransferI14SafeBinaryReadEEvRT_
aJa:__ZN17BufferManagerGLES13ReleaseBufferEP14DataBufferGLES
Awc:__Z18Transfer_BlittableI8JSONReadLb1EjEvRK29SerializationCommandArgumentsR31RuntimeSerializationCommandInfo
KAi:__ZL63ScrollRect_t1199013257_CustomAttributesCacheGenerator_m_InertiaP21CustomAttributesCache
xkj:_PKCS12_Decrypt_m1557069392
lMi:_VertexHelper_AddUIVertexQuad_m280792808
lYf:_WebHeaderCollection_ToString_m1246460752
xYi:_InternalEnumerator_1_System_Collections_IEnumerator_get_Current_m2842514953_AdjustorThunk
xp:stackSave
Smj:_X509CrlEntry_get_Extensions_m79989256
m9c:_ps_dimension_end
qic:__Z41Register_UnityEngine_Mesh_Internal_Createv
Yeb:__ZN16MemoryFileSystem5TouchER13FileEntryData
Xxb:__ZN14SpriteRenderer23VirtualRedirectTransferER24GenerateTypeTreeTransfer
A5j:__ZNK15dense_hashtableI10KeyWrapperIP18Il2CppGenericClassES3_N6il2cpp8metadata22Il2CppGenericClassHashEN14dense_hash_setIS3_S6_NS3_14EqualsComparerINS5_25Il2CppGenericClassCompareEEENSt3__29allocatorIS3_EEE8IdentityESA_SD_E12test_deletedERK30dense_hashtable_const_iteratorIS3_S3_S6_SF_SA_SD_E
TYc:__ZNSt3__27__sort3IRN18Overlap2DQueryBase29ColliderHitsByDepthComparitorEPP10Collider2DEEjT0_S7_S7_T_
rFj:__ZN6il2cpp2vm5Class14GetNestedTypesEP11Il2CppClassPPv
mud:_MACTripleDES_Initialize_m1318099802
jKf:_MD5SHA1_VerifySignature_m507888141
D2d:_Byte_System_IConvertible_ToChar_m4188836679
FIe:_NumberFormatter_InitDecHexDigits_m2036076025
gCh:_Component_SendMessageUpwards_m2041012277
HHh:_Enumerator_get_CurrentKey_m3839846791_AdjustorThunk
nxc:__ZN8JSONRead21TransferSTLStyleArrayI13dynamic_arrayIaLj1EEEEvRT_18MemLabelIdentifier17TransferMetaFlags
t8a:__ZN6Camera9SetAspectEf
Wrd:__ZN19TransportJavaScript9DoRequestERKN4core12basic_stringIcNS0_20StringStorageDefaultIcEEEEm21UnityWebRequestMethodS6_bbP12HeaderHelperP13UploadHandlerP15DownloadHandlerP14ResponseHelperP15UnityWebRequest
nPd:_ColorTween_get_ignoreTimeScale_m641454126_AdjustorThunk
wa:invoke_viiffiii
EDc:__ZN8UVModule8TransferI18StreamedBinaryReadILb0EEEEvRT_
Kzf:_ReadOnlyCollection_1_Contains_m1800950533_gshared
xxi:__ZL79TouchInputModule_t2561058385_CustomAttributesCacheGenerator_m_ForceModuleActiveP21CustomAttributesCache
lBk:_emscripten_glBindVertexArray__wrapper
INg:__Z52RuntimeInvoker_Vector2_t2243707579_Int32_t2071877448PFvvEPK10MethodInfoPvPS4_
NJf:_MD4__ctor_m2366413460
uDh:_Display__ctor_m563295973
Tri:__ZL97GUIStyle_t1799908754_CustomAttributesCacheGenerator_GUIStyle_Internal_CalcMinMaxWidth_m3660306863P21CustomAttributesCache
MOh:_Dictionary_2_InitArrays_m435313205_gshared
qI:__ZN10ObjectPoolIN4FMOD3DSPENS0_4DSPIEE7GetFreeEi
Lwh:_AttributeHelperEngine_GetDefaultExecutionOrderFor_m451063166
j9a:__ZN9Transform37InitializeTransformHierarchyRecursiveER18TransformHierarchyRii
k1b:__Z34DefaultPrepareDispatchBoundsUpdateR13RendererScene18MemLabelIdentifier
BSd:_Graphic_get_useLegacyMeshGeneration_m1366444625
tzi:__ZL65InputField_t1631627530_CustomAttributesCacheGenerator_m_InputTypeP21CustomAttributesCache
Bxj:__ZL24UnresolvedVirtualCall_78P12Il2CppObjectPK10MethodInfo
g1e:_ModulusRing_Pow_m1137250399
_2i:_InternalEnumerator_1_MoveNext_m2410670600_AdjustorThunk
x_f:_X509Chain_Build_m2341271288
HWa:__ZN17MeshRenderingData4InitEP4MeshS1_iP15SharedGfxBufferS3_
Roj:_InvokableCall_2_Find_m1763382885_gshared
tCf:_ReadOnlyCollection_1_System_Collections_ICollection_get_SyncRoot_m2779904122_gshared
wTh:_EqualityComparer_1_System_Collections_IEqualityComparer_Equals_m1682986002_gshared
j9d:_Hashtable__cctor_m2952659675
y0f:_X509ChainStatus__ctor_m3628359961_AdjustorThunk
VCi:__ZL77LayoutUtility_t4076838048_CustomAttributesCacheGenerator_U3CU3Ef__amU24cache4P21CustomAttributesCache
jAd:_Evidence_get_HostEvidenceList_m2095478124
Ulc:__Z57Register_UnityEngine_Transform_INTERNAL_set_localPositionv
oNf:_Context_Clear_m4000337070
$Da:__ZN13GfxDeviceGLES26SetRandomWriteTargetBufferEi15ComputeBufferID
i3f:_IntervalCollection_Normalize_m538796191
gUa:__ZZ23InitPlayerLoopCallbacksvEN49EarlyUpdateResetFrameStatsAfterPresentRegistrator7ForwardEv
Lbe:_Console_SetEncodings_m342145566
wgj:_TrackedReference_op_Equality_m3491334086
sSd:_FontUpdateTracker_UntrackText_m3827316510
PUj:__ZN6il2cpp2gc19AppendOnlyGCHashMapINSt3__24pairIPK11Il2CppImageP11Il2CppClassEEP22Il2CppReflectionModule17ReflectionMapHashIS9_ENS2_8equal_toIS9_EEE10CopyValuesEPv
VFe:_Array_InternalArray__get_Item_TisSingle_t2076509932_m1495809753_gshared
pBe:_Array_InternalArray__set_Item_TisAnimatorClipInfo_t3905751349_m978873279_gshared
Bac:__ZNK11ICallString6ToUTF8Ev
E9i:_CaptureAssertion_get_Alternate_m2729005740
zek:_GC_number_stack_black_listed
A3j:__ZN24dense_hashtable_iteratorINSt3__24pairIK10KeyWrapperIP14Il2CppIUnknownEjEES5_N6il2cpp5utils11PointerHashIS3_EEN14dense_hash_mapIS5_jSB_NS5_14EqualsComparerINS0_8equal_toIS4_EEEENS0_9allocatorIS7_EEE9SelectKeyESG_SI_E30advance_past_empty_and_deletedEv
C_a:__ZNSt3__211__sift_downIR17ROSorterDepthPassP15RODataDepthPassEEvT0_S5_T_NS_15iterator_traitsIS5_E15difference_typeES5_
QXg:_Default_SelectMethod_m3081239996
vna:__ZN18UnityPropertySheet11UnityTexEnvC2Ev
Kcc:__ZNSt3__214__split_bufferIPN9BlobWrite11TypeContextENS_9allocatorIS3_EEE10push_frontERKS3_
sA:__ZN8Animator17ApplyOnAnimatorIKEiRNS_11AnimatorJobE
l6:__ZN12FileAccessor4ReadEyyPvPy
Vla:__ZN13dynamic_arrayI16ShaderKeywordSetLj4EE6insertEPS0_PKS0_S4_
GSb:__Z29Transfer_Blittable_ArrayFieldI18StreamedBinaryReadILb0EE11QuaternionfEvRT_R9ArrayInfoRK23StaticTransferFieldInfo
v4f:_MethodDictionary_IsOverridenKey_m3922224650
yae:_SyncHashtable_Contains_m3042906549
gof:_List_1_System_Collections_IList_set_Item_m4016273526_gshared
P0f:_X509KeyUsageExtension_CopyFrom_m931530012
_ph:_AnimationLayerMixerPlayable_IsLayerAdditiveInternal_m3902226808
V7a:__ZN13RenderTexture9SetHeightEi
_t:__ZN7mecanim9animation17ClearMotionOutputEPNS0_18AnimationNodeStateE
xmb:__ZN16LevelGameManager8TransferI24GenerateTypeTreeTransferEEvRT_
gEi:_LayoutUtility_U3CGetMinHeightU3Em__4_m1769295917
LBh:_Color32__ctor_m1932627809_AdjustorThunk
VTf:_SslStreamBase_Read_m1036897444
Kuh:_AnimatorControllerPlayable_INTERNAL_CALL_PlayInFixedTimeInternal_m44271350
gGi:_RectMask2D_PerformClipping_m1232012832
bIg:__Z66RuntimeInvoker_AudioMixerPlayable_t1831808911_Playable_t1896841784PFvvEPK10MethodInfoPvPS4_
vIh:_Transform_1_Invoke_m4020530914_gshared
y7c:_tt_cmap8_char_index
y2:__Z24scripting_class_get_name17ScriptingClassPtr
v8:__ZN13RuntimeStaticI15GUIEventManagerLb0EE13StaticDestroyEPv
O9g:_GUILayoutGroup_ResetCursor_m3160916532
a9j:__ZN6il2cpp2os6Thread15CurrentThreadIdEv
Xnh:_CustomEventData_AddUInt16_m3349298376
DHb:__Z29Transfer_Blittable_ArrayFieldI14SafeBinaryReadjEvRT_R9ArrayInfoRK23StaticTransferFieldInfo
vWc:__ZN16CircleCollider2D13PrepareShapesER13dynamic_arrayIP7b2ShapeLj4EERK10Matrix4x4f
oJi:_ScrollRect_get_minWidth_m3151814267
se:_emscripten_set_keydown_callback
V9d:_Enumerator_get_Value_m3684748062
ojb:__ZN19StreamedBinaryWriteILb0EE21TransferSTLStyleArrayINSt3__26vectorI17SortingLayerEntryNS2_9allocatorIS4_EEEEEEvRT_17TransferMetaFlags
IBc:__ZN18ColorBySpeedModule8TransferI14SafeBinaryReadEEvRT_
t6:__ZN12FileAccessorC2Ev
amj:_X509CertificateCollection_Compare_m1014334435
iab:__ZN9Transform35SetLocalPositionWithoutNotificationERKN4math7_float3E
aUg:__Z33RuntimeInvoker_TypeTag_t141209596PFvvEPK10MethodInfoPvPS4_
qIc:__Z15UpdateRandomTplIL27ParticleSystemCurveEvalMode0EEvRK11MinMaxCurveS3_S3_R5RandNR23ParticleSystemParticlesjjRKN4math8float3x3ERKNS8_7_float4E
s7i:_PatternLinkStack_GetCurrent_m2994645935
jkb:__ZN6Camera8TransferI19StreamedBinaryWriteILb0EEEEvRT_
CGf:_Comparison_1__ctor_m2929820459_gshared
Fug:__Z59RuntimeInvoker_RuntimeObject_RuntimeObject_SByte_t454417549PFvvEPK10MethodInfoPvPS4_
W$:__ZN14StackAllocator10ReallocateEPvji
tOj:__ZN6il2cpp2vm7Runtime12GetConfigDirEv
HD:__ZN4PPtrI13MonoBehaviourE8TransferI18StreamedBinaryReadILb0EEEEvRT_
x4f:_MethodDictionary_set_Item_m3475146889
VKc:__ZN16CustomDataModuleD2Ev
RQg:__Z71RuntimeInvoker_Int32_t2071877448_CustomAttributeNamedArgument_t94157543PFvvEPK10MethodInfoPvPS4_
B3h:__ZL62WellKnownObjectMode_t2630225581_CustomAttributesCacheGeneratorP21CustomAttributesCache
BMi:_Toggle_PlayEffect_m3950629415
Nve:_Array_IndexOf_TisRuntimeObject_m214763038_gshared
vBc:__ZN14VelocityModule8TransferI14SafeBinaryReadEEvRT_
nSg:__Z79RuntimeInvoker_Void_t1841601450_Int32_t2071877448_ParameterModifier_t1820634920PFvvEPK10MethodInfoPvPS4_
lEb:__Z39WriteQueueForTransferSignatureIntoCacheRK31TransferFunctionScriptingTraitsRK24TransferRequestSignature17ScriptingClassPtrR23CachedSerializationDataRb
$ta:__ZN13RenderManager18UpdateAllRenderersEv
Dtc:__Z35Transfer_Blittable_FixedBufferFieldI9JSONWritexEvRK29SerializationCommandArgumentsR31RuntimeSerializationCommandInfo
Zmd:__ZN22BaseUnityConnectClient30OnEnteringStatePausedOrStoppedEv
kVc:__ZN10ClipperLib7Clipper18SwapPositionsInAELEPNS_5TEdgeES2_
Dwf:_Collection_1_System_Collections_ICollection_get_SyncRoot_m2157752542_gshared
wVj:__ZN15dense_hashtableINSt3__24pairIK10KeyWrapperINS1_IPK12PropertyInfoP11Il2CppClassEEEjEES9_17ReflectionMapHashIS8_EN14dense_hash_mapIS9_jSD_NS9_14EqualsComparerINS0_8equal_toIS8_EEEENS0_9allocatorISB_EEE9SelectKeyESI_SK_E12resize_deltaEjj
lu:__ZN7mecanim5human12HumanPoseAddERNS0_9HumanPoseERKS1_S4_
epj:_UnityAction_1__ctor_m2836997866_gshared
pvh:_Animator_ResetTrigger_m865269317
Q7h:__ZL64AssemblyLoadEventArgs_t4233815743_CustomAttributesCacheGeneratorP21CustomAttributesCache
Hvf:_Collection_1_IsFixedSize_m218241296_gshared
vdi:__ZL181U3CCreateWhereIteratorU3Ec__Iterator1D_1_t2523986802_CustomAttributesCacheGenerator_U3CCreateWhereIteratorU3Ec__Iterator1D_1_System_Collections_IEnumerable_GetEnumerator_m3687475306P21CustomAttributesCache
eab:__Z24MergeTransformComponentsR9TransformS0_b
Xth:_AnimatorControllerPlayable_IsInTransition_m3708059860
Ayh:_DelegatePInvokeWrapper_AudioConfigurationChangeHandler_t3743753033
tTe:_MonoIO_get_PathSeparator_m2635828107
a8f:_TypeInfo_get_TypeName_m1722081275
KQc:__ZN15b2CircleContactD0Ev
DYe:_MonoType_get_Name_m865859211
Ope:_CultureInfo__cctor_m2290268677
HUi:_ArrayReadOnlyList_1_System_Collections_IEnumerable_GetEnumerator_m3039869667_gshared
mU:__Z71Register_UnityEngine_Audio_AudioClipPlayable_INTERNAL_CALL_ValidateTypev
c7f:_RemotingConfiguration__cctor_m2129988840
Ytf:_Collection_1_Insert_m44548038_gshared
C3i:_InternalEnumerator_1_MoveNext_m4175772187_AdjustorThunk
Xri:__ZL87GUIUtility_t3275770671_CustomAttributesCacheGenerator_U3CguiIsExitingU3Ek__BackingFieldP21CustomAttributesCache
Lck:__ZN6il2cpp2vm13ComObjectBase19GetRuntimeClassNameEPP15Il2CppHString__
MRb:__Z35Transfer_Blittable_FixedBufferFieldI18StreamedBinaryReadILb0EEyEvRK29SerializationCommandArgumentsR31RuntimeSerializationCommandInfo
Zj:_emscripten_glVertexAttribPointer
uqk:__ZNSt11logic_errorD0Ev
Ylb:__ZNK20IntermediateRenderer12GetSceneMaskEv
esa:__ZN14PreloadManager26UpdatePreloadingSingleStepENS_21UpdatePreloadingFlagsEi
xfh:_Material__ctor_m1440882780
Pxd:_SHA512Managed_Initialize_m891287980
xAd:_SecurityException__ctor_m1484114982
HQi:_SinkProviderData_get_Children_m100594762
Hmj:_X509Crl_GetHashName_m183504634
q$d:_Array_GetValue_m1507415734
_jc:__Z57Register_UnityEngine_RectTransform_INTERNAL_set_anchorMinv
tHe:_Object_MemberwiseClone_m2655589444
OAf:_ReadOnlyCollection_1_System_Collections_IList_get_Item_m375043207_gshared
ypa:__ZN6prcoreL25inner_stretch_i8_bilinearEPKNS_9InnerInfoE
Gsa:__ZL30RegisterFilteredObjectCallbackPP12Il2CppObjectiPv
VQe:_DirectoryInfo_ToString_m4208086799
q5g:_MonoMethod_get_IsGenericMethod_m4276550811
UIh:_Transform_1_BeginInvoke_m3826027984_gshared
cph:_AnimationEvent_set_time_m2162176572
nW:__ZN11UnityEngine15CloudWebService16SessionContainer24GetSessionHeaderJsonDataERKN4core12basic_stringIcNS2_20StringStorageDefaultIcEEEERNS2_13StringBuilderE
eee:_Decimal_op_Implicit_m2149927308
g8:__ZN13RuntimeStaticI21AssetReferenceStorageLb0EE13StaticDestroyEPv
w8j:__ZN6il2cpp6icalls8mscorlib6System9AppDomain22InternalGetProcessGuidEP12Il2CppString
F_b:__ZN15dense_hashtableINSt3__24pairIKN4core12basic_stringIcNS2_20StringStorageDefaultIcEEEE10vector_setI4PPtrI11SpriteAtlasENS0_4lessISB_EE13stl_allocatorISB_L18MemLabelIdentifier79ELi16EEEEES6_20StringHash32FunctionIS6_EN14dense_hash_mapIS6_SH_SK_NS0_8equal_toIS6_EESE_ISI_LSF_79ELi16EEE9SelectKeyESN_SO_E15insert_noresizeERKSI_
p3e:_KeyPairPersistence_get_UseMachineKeyStore_m560802076
pqf:_Collection_1_CopyTo_m1840908033_gshared
mR:__ZN19AudioPlayableOutput19DeallocateResourcesEv
DFh:_Enumerator_System_Collections_IDictionaryEnumerator_get_Entry_m345330700_AdjustorThunk
exk:_glBindRenderbuffer__wrapper
lNj:__ZNSt3__214__split_bufferIP9FieldInfoRNS_9allocatorIS2_EEEC2EjjS5_
wGd:_AbstractEventData__ctor_m3586111519
wLb:__Z18Transfer_BlittableI24GenerateTypeTreeTransferLb1EjEvRK29SerializationCommandArgumentsR31RuntimeSerializationCommandInfo
IJf:_MD2Managed_Padding_m410163267
jVj:__ZNK15dense_hashtableINSt3__24pairIK10KeyWrapperINS1_IPK11Il2CppImageP11Il2CppClassEEEjEES9_17ReflectionMapHashIS8_EN14dense_hash_mapIS9_jSD_NS9_14EqualsComparerINS0_8equal_toIS8_EEEENS0_9allocatorISB_EEE9SelectKeyESI_SK_E10test_emptyERK30dense_hashtable_const_iteratorISB_S9_SD_SM_SI_SK_E
WMi:_Toggle_UnityEngine_UI_ICanvasElement_get_transform_m4177274032
Rlb:__ZN11ColorRGBA328TransferI14SafeBinaryReadEEvRT_
nHh:_Enumerator_Dispose_m401572848_AdjustorThunk
Myh:_Bounds__ctor_m1202659404_AdjustorThunk
Xf:_emscripten_glClearDepth
L4b:__ZNK8GUILayer22GetTypeVirtualInternalEv
nnb:__ZN8Playable12SetPlayStateE9PlayState
Asb:__ZN14SafeBinaryRead21TransferSTLStyleArrayINSt3__26vectorIN15QualitySettings14QualitySettingENS1_9allocatorIS4_EEEEEEvRT_17TransferMetaFlags
VDe:_Array_swap_TisVector2_t2243707579_m3359959735_gshared
iRe:_File_OpenText_m4058508963
gAb:__ZNSt3__26vectorINS_4pairIPKN5Unity4TypeE7Hash128EENS_9allocatorIS7_EEE8__appendEj
b8f:_WellKnownClientTypeEntry__ctor_m670594074
Gyi:__ZL61FontData_t2614388407_CustomAttributesCacheGenerator_m_MinSizeP21CustomAttributesCache
PZj:__ZN15dense_hashtableINSt3__24pairIK10KeyWrapperIP11Il2CppClassES4_EES5_N6il2cpp8metadata16SZArrayClassHashEN14dense_hash_mapIS5_S4_SA_NS5_14EqualsComparerINS9_19SZArrayClassCompareEEENS0_9allocatorIS7_EEE9SelectKeyESE_SG_EC2ERKSJ_j
whe:_DateTime_System_IConvertible_ToSingle_m3927769066_AdjustorThunk
Mbd:_cff_font_load
khj:_Enumerator_Reset_m950879083
nRf:_RecordProtocol_SendRecord_m2977889250
vdc:__Z13IsPathCreatedRKN4core12basic_stringIcNS_20StringStorageDefaultIcEEEE
Tva:__ZL22stbir__encode_scanlineP11stbir__infoiPvPfiii
gzg:__Z136RuntimeInvoker_Void_t1841601450_Byte_t3683104436_RuntimeObject_Int64U26_t763825331_ObjectU26_t597476745_SerializationInfoU26_t4051840202PFvvEPK10MethodInfoPvPS4_
E0c:__ZN20QuadTreeNodeRenderer13StaticDestroyEPv
jX:__ZN11UnityEngine15CloudWebService20WebRequestRestClient5AbortEv
W0b:__ZN9Transform12CleanupClassEv
Dtg:__Z50RuntimeInvoker_Void_t1841601450_Double_t4078015681PFvvEPK10MethodInfoPvPS4_
Mhk:__ZN6il2cpp6icalls8mscorlib6System9Threading16NativeEventCalls19CloseEvent_internalE12Il2CppIntPtr
_z:__ZN11UnityEngine9Animation33SetGenericTransformPropertyValuesERKNS0_30AnimatorGenericBindingConstantERKN7mecanim10ValueArrayEP9Transformb
mNf:_ClientContext_set_ClientHelloProtocol_m2246603449
W3c:_UNITY_FT_Set_Pixel_Sizes
NYd:_U3CMouseDragOutsideRectU3Ec__Iterator1_MoveNext_m2845491958
GVb:__ZNSt3__26vectorIN9ShaderLab19SerializedSubShaderENS_9allocatorIS2_EEE26__swap_out_circular_bufferERNS_14__split_bufferIS2_RS4_EE
HDe:_Array_swap_TisAnimatorClipInfo_t3905751349_TisAnimatorClipInfo_t3905751349_m1375833338_gshared
pvg:__Z116RuntimeInvoker_RuntimeObject_RuntimeObject_Int32_t2071877448_RuntimeObject_RuntimeObject_RuntimeObject_RuntimeObjectPFvvEPK10MethodInfoPvPS4_
pDj:_AnalyticsTracker_TriggerEvent_m1494303835
zLd:_StandaloneInputModule_IsModuleSupported_m623598506
T_j:__ZN6il2cpp2vmL24thread_cleanup_on_cancelEPv
BNi:_ResourceReader_Close_m3256966401
dcg:_SByte_ToString_m4105923225_AdjustorThunk
fag:_StreamingContext_t1417235061_marshal_pinvoke_cleanup
Spe:_CultureInfo_ConstructCurrentUICulture_m3363349599
Atb:__ZN13dynamic_arrayI7SubMeshLj4EE18resize_initializedEjRKS0_12ResizePolicy
VBi:__ZL75CanvasScaler_t2574720772_CustomAttributesCacheGenerator_m_FallbackScreenDPIP21CustomAttributesCache
aYe:_MonoType_GetEvent_m4160342003
SFi:_RawImage_set_texture_m2400157626
Hvj:_PrimeHelper_ToPrime_m1606935350_gshared
emb:__Z30ProcessDynamicBatchGeometryJobP25DynamicVBOGeometryJobDataj
tTh:_EqualityComparer_1__ctor_m81618677_gshared
__a:__ZNSt3__27__sort4IRNS_6__lessI11CulledLightS2_EEPS2_EEjT0_S6_S6_S6_T_
YQj:__ZN6il2cpp2vm14TypeNameParser26ParseArrayModifierOptionalEv
fxh:_AudioClipPlayable_INTERNAL_CALL_GetLoopedInternal_m3082735156
C_e:_MSCompatUnicodeTable_Level3_m260824928
oZd:_LayoutElement_OnEnable_m3478706401
L3:__Z26scripting_object_get_class18ScriptingObjectPtr
rBj:_Func_3__ctor_m3917225629_gshared
t0b:__ZNK28MonoBehaviourPropertyBinding15GenerateBindingERKN4core12basic_stringIcNS0_20StringStorageDefaultIcEEEEbRN11UnityEngine9Animation14GenericBindingE
rdh:_GUIStyle_CalcMinMaxWidth_m2027503105
JMe:_Int32_FindExponent_m3187554672
B3e:_KeyPairPersistence_Load_m1355205585
nIi:_ScrollRect_get_horizontalScrollbarVisibility_m4152068235
LNe:_Int32_ToString_m2960866144_AdjustorThunk
unj:_Predicate_1_Invoke_m3539717340_gshared
_vj:_HashSet_1_Contains_m3626542335_gshared
kQg:__Z104RuntimeInvoker_Int32_t2071877448_AnimatorClipInfo_t3905751349_AnimatorClipInfo_t3905751349_RuntimeObjectPFvvEPK10MethodInfoPvPS4_
BCd:_Single_CompareTo_m2081476257_AdjustorThunk
Nak:__ZN6il2cpp6icalls8mscorlib6System11Environment15internalGetHomeEv
vtk:dynCall_iiiiiiffiiiiiiiiiffffiiii
Lgb:__ZNK5Unity9Component7GetNameEv
QNj:__ZNSt3__214__split_bufferIN6il2cpp6icalls8mscorlib6System12PropertyPairERNS_9allocatorIS5_EEEC2EjjS8_
e9h:__ZL79Convert_t2607082565_CustomAttributesCacheGenerator_Convert_ToUInt16_m2130758075P21CustomAttributesCache
O9f:__ZN21InterfaceFuncInvoker4IP12Il2CppObjectS1_P28SerializationInfo_t22898743028StreamingContext_t1417235061S1_E6InvokeEjP11Il2CppClassS1_S1_S3_S4_S1_
aai:__ZL58IFormatProvider_t2849799027_CustomAttributesCacheGeneratorP21CustomAttributesCache
_Rg:__Z75RuntimeInvoker_Void_t1841601450_Int32_t2071877448_KeyValuePair_2_t888819835PFvvEPK10MethodInfoPvPS4_
ksj:_ObjectPool_1_Get_m3724675538_gshared
Dbb:__ZN13ScreenManagerD0Ev
ySc:__ZNK11b2RopeJoint16GetReactionForceEf
lB:__ZN7mecanim8skeleton26SkeletonPoseComputeGlobalQEPKNS0_8SkeletonEPKNS0_13SkeletonPoseTIN4math4trsXEEEPS7_ii
myc:__ZN8JSONRead21TransferSTLStyleArrayI13dynamic_arrayIfLj4EEEEvRT_18MemLabelIdentifier17TransferMetaFlags
RNc:__ZN14ParticleSystem40OnTrailGeometryJobsScheduledRenderThreadERK8JobFence
Nif:_List_1_GetEnumerator_m2672519407_gshared
wEc:__ZN13TriggerModule8TransferI19StreamedBinaryWriteILb0EEEEvRT_
NA:__ZN9BlobWrite8TransferI22OffsetPtrArrayTransferIiEEEvRT_PKc17TransferMetaFlags
vzg:__Z82RuntimeInvoker_Boolean_t3825574718_SByte_t454417549_RuntimeObject_SByte_t454417549PFvvEPK10MethodInfoPvPS4_
m_e:_ContractionComparer_Compare_m314873025
eek:__ZN6il2cpp6icalls8mscorlib6System7Runtime15InteropServices8GCHandle15GetTargetHandleEP12Il2CppObjectii
w3a:__ZN14qsort_internal18QSortSingleJobDataIP16RenderObjectDatai26RenderDeferredObjectSorterE7SortJobEPS4_
SJb:__Z18Transfer_BlittableI17RemapPPtrTransferLb1EjEvRK29SerializationCommandArgumentsR31RuntimeSerializationCommandInfo
geh:_GUIUtility_EndGUIFromException_m2091524531
bOe:_Int64_System_IConvertible_ToDouble_m638786774
HM:__ZN4FMOD6System7releaseEv
Z9d:_HashKeys_get_IsSynchronized_m4207641174
gNb:__Z18Transfer_BlittableI19StreamedBinaryWriteILb0EELb1E8BitFieldEvRK29SerializationCommandArgumentsR31RuntimeSerializationCommandInfo
Q5:__Z18PathToAbsolutePathRKN4core12basic_stringIcNS_20StringStorageDefaultIcEEEE
vDg:__Z44RuntimeInvoker_HashAlgorithmType_t1654661965PFvvEPK10MethodInfoPvPS4_
$9e:_Enumerator_MoveNext_m3078170540_AdjustorThunk
ryd:_SymmetricAlgorithm_get_Padding_m718051685
Kld:__ZN21UnityAnalyticsManager15ThreadedCleanupEv
Qhk:__ZN6il2cpp6icalls8mscorlib6System10Reflection16MonoPropertyInfo16GetTypeModifiersEPvb
Msj:_Action_Invoke_m3801112262
Ptg:__Z79RuntimeInvoker_Decimal_t724701077_RuntimeObject_Int32_t2071877448_RuntimeObjectPFvvEPK10MethodInfoPvPS4_
FBh:_Color_Lerp_m3323752807
yva:__ZL13BlitImageImplR14ImageReferenceiiRKS_NS_10ColorSpaceENS_8BlitModeEb
hJc:__ZL15AccumulateNoiseILb1ELi1EEN4math8floatNx2ERKNS0_8floatNx3ERKfiS6_S6_
Qqa:__ZN6prcoreL17RemapGenericFloatI18TexFormatRGBAFloat17TexFormatRGBFloatEEvPKNS_9InnerInfoE
b8h:__ZL76Convert_t2607082565_CustomAttributesCacheGenerator_Convert_ToChar_m541258017P21CustomAttributesCache
azj:__ZL25UnresolvedVirtualCall_159P12Il2CppObject18Color32_t874517518PK10MethodInfo
dtg:__Z64RuntimeInvoker_RuntimeObject_Int16_t4041245914_Int16_t4041245914PFvvEPK10MethodInfoPvPS4_
Xni:__ZL157AnimatorControllerPlayable_t1744083903_CustomAttributesCacheGenerator_AnimatorControllerPlayable_INTERNAL_CALL_IsParameterControlledByCurveString_m3721812988P21CustomAttributesCache
pwa:__ZN29SerializeTraitsForStringTypesIN4core12basic_stringIcNS0_20StringStorageDefaultIcEEEEE8TransferI24GenerateTypeTreeTransferEEvRS4_RT_
Xch:_GUIUtility_Internal_GetHotControl_m2510727642
OK:__ZN12AudioManager29ShutdownReinitializeAndReloadEv
hkj:_NetscapeCertTypeExtension_Decode_m2210025005
nOg:__Z56RuntimeInvoker_Void_t1841601450_KeyValuePair_2_t38854645PFvvEPK10MethodInfoPvPS4_
Eyh:_AudioSource_PlayOneShot_m4118899740
Anh:_RectTransform_GetLocalCorners_m1836626405
k8f:_BaseFixupRecord_DoFixup_m1821597450
sEj:__ZN15dense_hashtableINSt3__24pairIK10KeyWrapperIPK22Il2CppGenericParameterEP11Il2CppClassEES6_N6il2cpp5utils11PointerHashIS4_EEN14dense_hash_mapIS6_S9_SE_NS6_14EqualsComparerINS0_8equal_toIS5_EEEENS0_9allocatorISA_EEE9SelectKeyESJ_SL_E6insertERKSA_
mRe:_FileLoadException__ctor_m1356374414
rMf:_TlsStream_Reset_m1504601050
Wcf:__ZN23InterfaceActionInvoker2IP23Int32U5BU5D_t3030399641iE6InvokeEjP11Il2CppClassP12Il2CppObjectS1_i
nGa:__ZN14DataBufferGLES16RecreateWithDataEjPKv
Pcc:__Z29GetGlobalAllowNameConversionsv
Yab:__ZN8Material8SetColorEN9ShaderLab16FastPropertyNameERK10ColorRGBAf
A3g:_Module_GetCustomAttributes_m3581287913
IXh:__ZL67Type_t_CustomAttributesCacheGenerator_Type_IsSubclassOf_m2450899481P21CustomAttributesCache
AO:__ZN11AudioSource23VirtualRedirectTransferER18StreamedBinaryReadILb0EE
l8:__ZN21AssetReferenceStorageC2Ev
NNb:__ZN10RectOffset8TransferI19StreamedBinaryWriteILb0EEEEvRT_
j1c:__ZNSt3__26vectorIN4core12basic_stringIcNS1_20StringStorageDefaultIcEEEE13stl_allocatorIS5_L18MemLabelIdentifier34ELi16EEEC2INS_11__wrap_iterIPS5_EEEET_SE_RKS8_PNS_9enable_ifIXaasr21__is_forward_iteratorISE_EE5valuesr16is_constructibleIS5_NS_15iterator_traitsISE_E9referenceEEE5valueEvE4typeE
C2:__ZL41AssemblyNameMatchesWithOrWithoutExtensionPKcS0_
XPg:__Z53RuntimeInvoker_Boolean_t3825574718_Color32_t874517518PFvvEPK10MethodInfoPvPS4_
mwh:_AssemblyIsEditorAssembly__ctor_m2639706522
FKa:__ZN14GfxContextGLES43AddRenderSurfaceToDeferredFBOInvalidateListEPK17RenderSurfaceGLES
R$j:__ZN6il2cpp6icalls8mscorlib6System9Threading6Thread15Thread_internalEP12Il2CppThreadP14Il2CppDelegate
dla:__ZN11NamedObject23VirtualRedirectTransferER14SafeBinaryRead
JWh:__ZL74RuntimeArray_CustomAttributesCacheGenerator_Array_BinarySearch_m3522310993P21CustomAttributesCache
M3c:__ZNSt3__26vectorIN20TextRenderingPrivate8FontImpl13CharacterInfoE13stl_allocatorIS3_L18MemLabelIdentifier1ELi16EEE6insertENS_11__wrap_iterIPKS3_EERS9_
osa:__ZN23PreloadManagerOperation6IsDoneEv
Aii:__ZL102DataUtility_t4181890362_CustomAttributesCacheGenerator_DataUtility_INTERNAL_CALL_GetOuterUV_m121019172P21CustomAttributesCache
COj:__ZN6il2cpp2vm7Runtime15InvokeWithThrowEPK10MethodInfoPvPS5_
g7e:_X509Certificate_get_RawData_m3000055075
YEj:__ZNSt3__26vectorIPK10Il2CppTypeNS_9allocatorIS3_EEE21__push_back_slow_pathIRKS3_EEvOT_
w7b:__Z33GetHasChangedDeprecatedSystemMaskv
kXc:__ZN10Effector2D10EndContactEP9b2Contact
nck:__ZN6il2cpp5utils11StringUtils11Utf16ToUtf8ERKNSt3__212basic_stringIDsNS2_11char_traitsIDsEENS2_9allocatorIDsEEEE
PTg:__Z30RuntimeInvoker_Link_t865133271PFvvEPK10MethodInfoPvPS4_
OGh:_Enumerator_VerifyState_m1165543189_AdjustorThunk
cie:_DateTime_AddSeconds_m722082155_AdjustorThunk
k7d:_SynchronizedArrayListWrapper_CopyTo_m956887031
bKj:__ZNSt3__213__lower_boundIRN6il2cpp5utils11collections13ArrayValueMapIPK10Il2CppType17Il2CppInteropData26InteropDataToTypeConverterNS1_8metadata14Il2CppTypeLessENSA_26Il2CppTypeEqualityComparerEE22LowerBoundFindComparerEPKS8_S7_EET0_SI_SI_RKT1_T_
I4i:_Comparer_1__ctor_m1202126643_gshared
eki:__ZL92Transform_t3275118058_CustomAttributesCacheGenerator_Transform_get_parentInternal_m927919099P21CustomAttributesCache
Qwa:__ZN21LightProbeProxyVolume18HasHardwareSupportEv
hYc:__ZNK20b2SeparationFunction17FindMinSeparationEPiS0_f
tpa:__ZN6prcoreL31inner_stretch_argb8888_bilinearEPKNS_9InnerInfoE
YOb:__Z18Transfer_BlittableI18StreamedBinaryReadILb1EELb1E8BitFieldEvRK29SerializationCommandArgumentsR31RuntimeSerializationCommandInfo
O5c:_UNITY_FT_Outline_Decompose
yPf:_TlsClientCertificate_get_ClientCertificate_m3062440489
$zd:_StrongNamePublicKeyBlob_ToString_m3721281223
dui:__ZL80UnityEvent_t408735097_CustomAttributesCacheGenerator_UnityEvent__ctor_m588741179P21CustomAttributesCache
PXi:_InternalEnumerator_1_get_Current_m198513457_AdjustorThunk
yli:__ZL116AudioClipPlayable_t192218916_CustomAttributesCacheGenerator_AudioClipPlayable_INTERNAL_CALL_ValidateType_m1977251214P21CustomAttributesCache
L$i:_InternalEnumerator_1__ctor_m1240086835_AdjustorThunk
_Ya:__Z20scripting_object_new17ScriptingClassPtr
GKe:_TextInfo__ctor_m2782608694
Kfc:__Z31Display_CUSTOM_GetSystemExtImpl13Il2Cpp_IntPtrPiS0_
ipf:_Queue_1_System_Collections_ICollection_CopyTo_m772787461_gshared
Emc:__Z58Register_UnityEngine_Object_Internal_CloneSingleWithParentv
wTj:__ZN24dense_hashtable_iteratorINSt3__24pairIK10KeyWrapperINS1_IPK9FieldInfoP11Il2CppClassEEEjEES9_17ReflectionMapHashIS8_EN14dense_hash_mapIS9_jSD_NS9_14EqualsComparerINS0_8equal_toIS8_EEEENS0_9allocatorISB_EEE9SelectKeyESI_SK_E30advance_past_empty_and_deletedEv
PKe:_TextInfo_ToUpper_m299550697
hGf:_ReadOnlyCollection_1_System_Collections_IList_Contains_m4073811941_gshared
q3a:__ZN18ShadowMapJobHeaderD0Ev
HSd:_Graphic_OnRectTransformDimensionsChange_m1610753363
TDc:__ZN16CustomDataModule8TransferI18StreamedBinaryReadILb0EEEEvRT_
bge:_Convert_ToUInt16_m3265369225
P:Math_exp
HXe:_MonoEnumInfo_get_Cache_m3551569711
Zo:FUNCTION_TABLE_iiifi
k8j:__ZN6il2cpp2os5posix13PosixAutoLockD2Ev
Ire:_Array_InternalArray__ICollection_Contains_TisVector3_t2243707580_m3625701788_gshared
pza:__ZNSt3__26vectorINS_4pairIyP17VertexDeclarationEENS_9allocatorIS4_EEE6insertENS_11__wrap_iterIPKS4_EERS9_
wSi:__ZN21InterfaceFuncInvoker0IP6Type_tE6InvokeEjP11Il2CppClassP12Il2CppObject
hXh:__ZL66RuntimeArray_CustomAttributesCacheGenerator_Array_Sort_m1999601238P21CustomAttributesCache
Yof:_Enumerator__ctor_m1424070651_AdjustorThunk
uPb:__Z30TransferField_LinearCollectionI18StreamedBinaryReadILb1EEEvRK29SerializationCommandArgumentsR31RuntimeSerializationCommandInfo
V8a:__ZN13MonoBehaviour9SetScriptERK4PPtrI10MonoScriptE18ScriptingObjectPtr
yre:_Array_InternalArray__ICollection_Contains_TisPlayableBinding_t2498078091_m4267109606_gshared
u5c:_UNITY_FT_Create_Class_sfnt_module_class
mMi:_Text_CalculateLayoutInputHorizontal_m1578553982
kji:__ZL87Object_t1021602117_CustomAttributesCacheGenerator_Object_DestroyObject_m282495858____t1P21CustomAttributesCache
f3j:__ZNSt3__218uninitialized_copyIPNS_4pairIK10KeyWrapperIP14Il2CppIUnknownEjEES8_EET0_T_SA_S9_
wke:_Decimal_IsZero_m3557909184_AdjustorThunk
R4d:_Char_ToString_m1401375624
uud:_MD5CryptoServiceProvider__cctor_m3309191799
zfa:__ZNK10FileSystem16LastErrorMessageEv
Qkh:_ScriptPlayableOutput__ctor_m3107656159
G2f:_InterpreterFactory_get_NamesMapping_m3186583301
DLg:__Z74RuntimeInvoker_Vector2_t2243707579_Vector2_t2243707579_Vector2_t2243707579PFvvEPK10MethodInfoPvPS4_
_gi:__ZL87Input_t1785128008_CustomAttributesCacheGenerator_Input_get_compositionString_m636835668P21CustomAttributesCache
Mbf:_Enumerator_System_Collections_IEnumerator_Reset_m3052395060_gshared
_sf:_Collection_1_System_Collections_ICollection_get_SyncRoot_m1997144145_gshared
RHf:_Kernel_DwordDivMod_m3728402123
WCb:__ZN13MonoBehaviour13AwakeFromLoadE17AwakeFromLoadMode
LJb:__ZL26Transfer_SimpleNativeClassI17RemapPPtrTransfer8GradientLb1EEvRK29SerializationCommandArgumentsR31RuntimeSerializationCommandInfo
K7b:__ZN12CachedWriter9InitWriteER15CacheWriterBase
i6b:__Z21UnsignedInt64ToStringy
bhg:_UTF7Decoder__ctor_m549434986
n2i:_InternalEnumerator_1_get_Current_m1025321669_AdjustorThunk
Rhh:_Object_t1021602117_marshal_pinvoke
Iic:__Z36MonoBehaviour_CUSTOM_InvokeRepeatingP12Il2CppObjectP12Il2CppStringff
fmc:__Z66Register_UnityEngine_Transform_INTERNAL_CALL_InverseTransformPointv
Paa:__ZZN15DirectorManager15InitializeClassEvEN41FixedUpdateDirectorFixedUpdateRegistrator7ForwardEv
lZi:_InternalEnumerator_1_MoveNext_m2720582493_gshared
Rmj:_X509CrlEntry_get_RevocationDate_m1257876856
Qmj:_X509Crl_VerifySignature_m1390212587
A1f:_Group__ctor_m4103922028
mVa:__ZN6Camera26ClearIntermediateRenderersEj
yMj:__ZNSt3__214__split_bufferI6pollfdRNS_9allocatorIS1_EEEC2EjjS4_
WAk:_glLinkProgram__wrapper
bqa:__ZN6prcoreL12RemapGenericI17TexFormatARGB888815TexFormatBGR888EEvPKNS_9InnerInfoE
Aud:_MD5CryptoServiceProvider_ProcessFinalBlock_m1052610785
YG:__Z79AnimatorControllerPlayable_CUSTOM_INTERNAL_CALL_GetNextAnimatorClipInfoInternalR9HPlayablei
A7d:_BitArray_Set_m2878881714
RHc:__Z20UpdateCustomCurveTplIL27ParticleSystemCurveEvalMode1EEvRK11MinMaxCurveR23ParticleSystemParticlesiijjRKN4math5_int4E
gGc:__ZNK10SizeModule6UpdateER23ParticleSystemParticlesjj
EJi:_Selectable_get_colors_m3501193396
O3j:__ZN6il2cpp6icalls8mscorlib6System13Globalization11CultureInfo35construct_internal_locale_from_nameEP17Il2CppCultureInfoP12Il2CppString
LLb:__ZL22Transfer_ManagedObjectI24GenerateTypeTreeTransferLb1EEvRK29SerializationCommandArgumentsR31RuntimeSerializationCommandInfo
Sji:__ZL72SceneManager_t90660965_CustomAttributesCacheGenerator_activeSceneChangedP21CustomAttributesCache
c1h:__ZL55COMException_t1790481504_CustomAttributesCacheGeneratorP21CustomAttributesCache
Y1e:_ASN1_get_Count_m404940548
rSi:_ContextAttribute_Equals_m53324298
kAh:_Canvas_ForceUpdateCanvases_m2446828475
fk:_emscripten_set_main_loop_timing
Lfc:__Z34Display_CUSTOM_GetRenderingExtImpl13Il2Cpp_IntPtrPiS0_
Vqg:_WeakReference_AllocateHandle_m1783929473
iGa:__ZN14DataBufferGLES12RecordRenderEv
OCe:_Array_Sort_TisRuntimeObject_m3674422195_gshared
vab:__ZN14ImageReference10FlipImageYEv
eDc:__ZN21InheritVelocityModule8TransferI17RemapPPtrTransferEEvRT_
fkb:__Z32TransferEnumWithNameForceIntSizeI14SafeBinaryRead13TargetEyeMaskEvRT_RT0_PKc17TransferMetaFlags
Goc:__Z14GetDefaultSkini
Vpe:_CultureInfo_get_Name_m3316229893
Uhe:_DateTime_get_Ticks_m310281298_AdjustorThunk
nI:__ZN4FMOD3DSP9setBypassEb
AJc:__Z9StartConeILN11ShapeModule14MultiModeValueE1EEvRS0_R23ParticleSystemParticlesRK19ParticleSystemStateRK27ParticleSystemEmissionStateRKN4math8float3x3ERKNSB_8float4x4Ejbj
mfb:__Z19NormalizeWheelInputf
m1f:_CaptureCollection_CopyTo_m1982767892
gdb:__Z29StdTemplateConversionFunctionIsaEbPvR14SafeBinaryRead
Qre:_Array_InternalArray__ICollection_Remove_TisLink_t865133271_m1984184141_gshared
pyc:__Z29Transfer_Blittable_ArrayFieldI8JSONReadhEvRT_R9ArrayInfoRK23StaticTransferFieldInfo
XZd:_LayoutRebuilder_IsDestroyed_m3442208294
Dac:__ZN11MonoManager25GetImageFromAssemblyIndexEi
pGh:_Enumerator_VerifyState_m1547102902_AdjustorThunk
ilk:__ZN6il2cpp2os20ThreadLocalValueImpl8SetValueEPv
yWa:__ZN22RenderingCommandBuffer20CleanupCommandBufferEv
Lzg:__Z165RuntimeInvoker_Void_t1841601450_UInt32U26_t2197289955_Int32_t2071877448_UInt32U26_t2197289955_Int32_t2071877448_Int32_t2071877448_Int32_t2071877448_Int32_t2071877448PFvvEPK10MethodInfoPvPS4_
JSg:__Z99RuntimeInvoker_Void_t1841601450_CustomAttributeTypedArgumentU5BU5DU26_t4216645529_Int32_t2071877448PFvvEPK10MethodInfoPvPS4_
Ftc:__Z18Transfer_BlittableI9JSONWriteLb1EtEvRK29SerializationCommandArgumentsR31RuntimeSerializationCommandInfo
nRe:_FileLoadException__ctor_m918124939
yk:___syscall85
tkh:_PlayableHandle_GetHashCode_m1983839661_AdjustorThunk
nYa:__ZNSt3__26__sortIRPFbP10GUIElementS2_EPS2_EEvT0_S7_T_
yIf:_SequentialSearchPrimeGeneratorBase_GenerateSearchBase_m2930465198
Q4b:__ZN16GraphicsSettings12CleanupClassEv
b9j:__ZN6il2cpp2os6Thread19DetachCurrentThreadEv
NEj:__ZN6il2cpp2vmL21SetupInterfacesLockedEP11Il2CppClassRKNS_2os12FastAutoLockE
oFb:__ZN11MonoManager23VirtualRedirectTransferER24GenerateTypeTreeTransfer
kxg:__Z102RuntimeInvoker_Int32_t2071877448_RuntimeObject_Int32_t2071877448_Int32_t2071877448_Int32U26_t455636984PFvvEPK10MethodInfoPvPS4_
SCc:__ZN24GenerateTypeTreeTransfer8TransferI13dynamic_arrayIN8UVModule10SpriteDataELj4EEEEvRT_PKc17TransferMetaFlags
Xy:__ZN23AnimationPlayableOutput17SetSourcePlayableEP8Playable
a1f:_Capture__ctor_m885749277
tch:_GUIStyle_set_clipOffset_m3871613343
OVd:_SubmitEvent__ctor_m222860306
jW:__ZN11UnityEngine15CloudWebService14DataDispatcher15SetupWebRequestEv
yVe:_TextWriter__cctor_m4047845042
KRf:_ReceiveRecordAsyncResult_get_Record_m1336421357
Snd:__ZN11UnityEngine15PlatformWrapper13GetShaderCapsEv
w4a:__ZNSt3__211__sift_downIR26RenderDeferredObjectSorterP16RenderObjectDataEEvT0_S5_T_NS_15iterator_traitsIS5_E15difference_typeES5_
QOh:_Dictionary_2_CopyTo_m1385625162_gshared
_7h:__ZL76Convert_t2607082565_CustomAttributesCacheGenerator_Convert_ToByte_m509311047P21CustomAttributesCache
ZMh:_Dictionary_2_System_Collections_Generic_IEnumerableU3CSystem_Collections_Generic_KeyValuePairU3CTKeyU2CTValueU3EU3E_GetEnumerator_m1742521661_gshared
BLg:__Z87RuntimeInvoker_Void_t1841601450_RuntimeObject_StringU26_t638738783_StringU26_t638738783PFvvEPK10MethodInfoPvPS4_
gWd:_InputField_CaretBlink_m3960486606
$3e:_SmallXmlParser_ReadCharacters_m1966365555
tTf:_InternalAsyncResult_get_CompletedWithError_m3993955322
z5b:__ZN21FixedBehaviourManager6UpdateEv
edc:__ZN9Transform9SetParentEPS_NS_15SetParentOptionE
UTd:_GridLayoutGroup_set_startCorner_m1660251450
ODc:__ZN15CollisionModule8TransferI18StreamedBinaryReadILb0EEEEvRT_
x0:__ZN19ShaderPropertySheet8SetFloatEN9ShaderLab16FastPropertyNameEfNS_8SetFlagsE
uzi:__ZL68InputField_t1631627530_CustomAttributesCacheGenerator_m_AsteriskCharP21CustomAttributesCache
Cta:__ZN19RuntimeSceneManager24BeginIntegrateMainThreadEP10UnityScene
chj:_Transform_TransformPoint_m3272254198
W9j:__ZNSt3__2plIcNS_11char_traitsIcEENS_9allocatorIcEEEENS_12basic_stringIT_T0_T1_EERKS9_S6_
pWe:_LocalDataStoreSlot__cctor_m1192669356
lVb:__ZN9ShaderLab20SerializedSubProgramaSERKS0_
drk:_roundf
$Ed:_String_CreateString_m2556700934
mjb:__ZN18StreamedBinaryReadILb0EE21TransferSTLStyleArrayINSt3__26vectorI17SortingLayerEntryNS2_9allocatorIS4_EEEEEEvRT_17TransferMetaFlags
KJi:_Selectable_get_targetGraphic_m137842753
Ps:__ZN8Animator15SetPrepareStageEv
ZKi:_Slider_get_axis_m162140813
p4g:_MonoEventInfo_t2190036573_marshal_pinvoke
OEj:__ZN6il2cpp2vmL24SetupTypeHierarchyLockedEP11Il2CppClassRKNS_2os12FastAutoLockE
tfb:__ZL11TextHandleriPK23EmscriptenKeyboardEventPv
F1a:__Z20CalculateLightMatrixRK15SharedLightDataP10Matrix4x4f
vJi:_ScrollRect_SetLayoutHorizontal_m3486408020
k3c:_destroy_face
pvj:_GenericEqualityComparer_1_GetHashCode_m116190842_gshared
YFh:_Enumerator_VerifyState_m1547102902_gshared
P_h:__ZL55StreamWriter_t3858580635_CustomAttributesCacheGeneratorP21CustomAttributesCache
a0c:__ZN5physx19PxAllocatorCallbackD2Ev
ITa:__ZN24dense_hashtable_iteratorINSt3__24pairIKN4core12basic_stringIcNS2_20StringStorageDefaultIcEEEEP20ArchiveStorageReaderEES6_20StringHash32FunctionIS6_EN14dense_hash_mapIS6_S9_SC_NS0_8equal_toIS6_EE13stl_allocatorISA_L18MemLabelIdentifier54ELi16EEE9SelectKeyESF_SI_EC2EPK15dense_hashtableISA_S6_SC_SK_SF_SI_EPSA_SQ_b
jik:__ZN6il2cpp6icalls8mscorlib6System8Security12Cryptography24RNGCryptoServiceProvider13RngInitializeEP11Il2CppArray
hmf:_List_1_System_Collections_ICollection_get_IsSynchronized_m227393674_gshared
wLc:__ZN21RotationBySpeedModuleD0Ev
cXf:_IPAddress__cctor_m3624830012
JO:__ZN20SoundChannelInstance7setMuteEb
Zmb:__ZN4PPtrI5LightE8TransferI19StreamedBinaryWriteILb0EEEEvRT_
eoi:__ZL115AnimatorStateInfo_t2577870592_CustomAttributesCacheGenerator_AnimatorStateInfo_t2577870592____nameHash_PropertyInfoP21CustomAttributesCache
fAj:__ZL25UnresolvedVirtualCall_218P12Il2CppObject40CustomAttributeTypedArgument_t1498197914PK10MethodInfo
WYf:_AsnEncodedData_EnhancedKeyUsageExtension_m1452131166
XPb:__Z19TransferField_ArrayI18StreamedBinaryReadILb1EE27Converter_SimpleNativeClassI17AnimationCurveTplIfEEEvRK23StaticTransferFieldInfoR31RuntimeSerializationCommandInfoRT0_
A_c:__ZN7b2World18SetContactListenerEP17b2ContactListener
H1f:_GroupCollection_get_IsSynchronized_m1100663675
OGa:__ZN18GfxFramebufferGLES22MakeCurrentFramebufferENS_7BuiltinE
Xhk:__ZN6il2cpp2vm12MarshalAlloc4FreeEPv
g2f:_Interpreter_Close_m1500459069
ryj:__ZL25UnresolvedVirtualCall_122P12Il2CppObject32ScriptableRenderContext_t4271526S0_PK10MethodInfo
Ck:_JS_SystemInfo_GetWidth
kwa:__ZN12CachedReader4ReadEPvj
qad:_cf2_blues_init
TXi:_InternalEnumerator_1_System_Collections_IEnumerator_get_Current_m3600601141_gshared
dxd:_SHA1Internal_HashFinal_m3188468925
Xij:_Vector3_op_Inequality_m799191452
HHc:__ZNK14RotationModule6UpdateERK27ParticleSystemReadOnlyStateRK19ParticleSystemStateR23ParticleSystemParticlesRKN4math7_float4Ejj
H2:__ZN19RuntimeSceneManagerD2Ev
abi:__ZL55HeaderHandler_t324204131_CustomAttributesCacheGeneratorP21CustomAttributesCache
cQi:_ChannelData_get_CustomProperties_m1470957369
dEe:_Dictionary_2_Do_ICollectionCopyTo_TisRuntimeObject_m545661084_gshared
zX:__ZN11UnityEngine15CloudWebService25WebRequestDownloadHandler17OnCompleteContentEv
spa:__ZN6prcore17GetIntegerBlitterE13TextureFormatS0_N14ImageReference8BlitModeE
Azh:_Camera_INTERNAL_CALL_ScreenPointToRay_m2752248646
LUj:__ZN6il2cpp2gc19AppendOnlyGCHashMapINSt3__24pairIPK11Il2CppImageP11Il2CppClassEEP22Il2CppReflectionModule17ReflectionMapHashIS9_ENS2_8equal_toIS9_EEE11TryGetValueERKS9_PSB_
lHh:_Enumerator_VerifyState_m3173176371_AdjustorThunk
Jwi:__ZL109PointerEventData_t1599784723_CustomAttributesCacheGenerator_PointerEventData_get_eligibleForClick_m2497780621P21CustomAttributesCache
gWf:_TypeConverterAttribute__cctor_m506796812
jeg:_Encoding_get_IsReadOnly_m3729101432
Occ:__ZN9BlobWrite14ReduceCopyImplERK14ReduceCopyDataj
pqg:_ValueType_t3507792607_marshal_pinvoke_back
O4i:_Comparer_1_System_Collections_IComparer_Compare_m1790257529_gshared
VQg:__Z55RuntimeInvoker_Int32_t2071877448_ILTokenInfo_t149559338PFvvEPK10MethodInfoPvPS4_
t3g:_MethodInfo_get_ContainsGenericParameters_m572340060
QSc:__ZNK12b2WheelJoint10GetAnchorAEv
Xvk:_glShaderSource__wrapper
gRa:__ZN25MultiBlocksMemoryFileData17AdjustBlocksCountEj
v0j:__ZNSt3__214__split_bufferIN6il2cpp2vm22EmbeddedResourceRecordERNS_9allocatorIS3_EEED2Ev
tNf:_TlsClientHello__ctor_m1699671541
g4b:__ZZN12MeshRenderer15InitializeClassEvEN29FunctorImpl_134kDidModifyMesh4CallEPviR11MessageData
s1c:__ZN13TextRendering4Font8TransferI24GenerateTypeTreeTransferEEvRT_
Sqh:_AnimationOffsetPlayable_GetRotation_m3608800497_AdjustorThunk
QTa:__ZN23ManagedAttributeManager15InitializeClassEv
Afc:__Z27CullingGroup_CUSTOM_DisposeP12Il2CppObject
K$j:__ZN6il2cpp6icalls8mscorlib6SystemL23CheckWideningConversionEjjj
lLg:__Z69RuntimeInvoker_Color_t2020392075_Color_t2020392075_Single_t2076509932PFvvEPK10MethodInfoPvPS4_
RWa:__ZN13ComputeShader15SetTextureParamEjRKN9ShaderLab16FastPropertyNameE9TextureID16TextureDimension
oKi:_Shadow_set_effectDistance_m1951993364
q9g:_GUILayoutEntry_ApplyStyleSettings_m371609721
UOh:_Dictionary_2_ContainsKey_m416495915_gshared
wvf:_Collection_1_Remove_m1798559666_gshared
Im:_glStencilMask
Zzg:__Z70RuntimeInvoker_Boolean_t3825574718_Int16_t4041245914_Int32_t2071877448PFvvEPK10MethodInfoPvPS4_
y9j:__ZN6il2cpp2os10ThreadImpl16GetCurrentThreadEv
fOf:_TlsServerHelloDone__ctor_m2125611008
f9d:_Hashtable__ctor_m2337481811
SGh:_Enumerator_System_Collections_IEnumerator_get_Current_m2010873149_gshared
CQd:_Resources_t2975512894_marshal_pinvoke_cleanup
dph:_AnimationEvent_get_messageOptions_m3547411650
NXh:__ZL88Type_t_CustomAttributesCacheGenerator_Type_MakeGenericType_m2765875033____typeArguments0P21CustomAttributesCache
uBi:__ZL74SpriteState_t1353336012_CustomAttributesCacheGenerator_m_HighlightedSpriteP21CustomAttributesCache
L6f:_RealProxy__ctor_m2505535530
Mfk:_GC_push_conditional_with_exclusions
mog:_UInt32_System_IConvertible_ToUInt16_m2798641702_AdjustorThunk
H8f:_BinaryFormatter_get_DefaultSurrogateSelector_m219714691
iv:__ZN21AnimationPosePlayableD0Ev
MB:__ZN12_GLOBAL__N_121ProcessAnimationBeginER35AnimationPlayableEvaluationConstantR32AnimationPlayableEvaluationInputR33AnimationPlayableEvaluationOutput
puh:_AnimatorControllerPlayable_CrossFadeInFixedTime_m3016214003
ewg:__Z136RuntimeInvoker_Void_t1841601450_Int32_t2071877448_RuntimeObject_RuntimeObject_RuntimeObject_RuntimeObject_RuntimeObject_SByte_t454417549PFvvEPK10MethodInfoPvPS4_
c9:__ZN15dense_hashtableINSt3__24pairIKiiEEi21InstanceIDHashFunctorN14dense_hash_mapIiiS4_NS0_8equal_toIiEE13stl_allocatorIS3_L18MemLabelIdentifier65ELi16EEE9SelectKeyES7_SA_E9copy_fromERKSD_j
ayf:_Collection_1_System_Collections_IList_get_IsFixedSize_m3252091801_gshared
JPd:_FloatTween_get_ignoreTimeScale_m4161298485_AdjustorThunk
V5g:_MonoProperty_GetOptionalCustomModifiers_m3827844355
hok:_strrchr
bRi:__ZN21InterfaceFuncInvoker1IP8String_tS1_E6InvokeEjP11Il2CppClassP12Il2CppObjectS1_
Ssh:_AnimatorControllerPlayable_IsParameterControlledByCurve_m3990583163_AdjustorThunk
i$e:_SimpleCollator_GetSortKey_m2188419329
mCi:__ZL56LayoutElement_t2808691390_CustomAttributesCacheGeneratorP21CustomAttributesCache
OGi:_Scrollbar_Set_m244028386
ymc:__Z27Object_CUSTOM_DestroyObjectP12Il2CppObjectf
cnb:__ZN14RenderSettings27UpdateIndirectSpecularColorEv
NVg:__Z102RuntimeInvoker_RuntimeObject_UILineInfo_t3621277874_UILineInfo_t3621277874_RuntimeObject_RuntimeObjectPFvvEPK10MethodInfoPvPS4_
SAb:__ZN14PlayerSettings8TransferI18StreamedBinaryReadILb0EEEEvRT_
oOi:_FixedBufferAttribute__ctor_m2048050068
wNj:__ZN6il2cpp6icalls8mscorlib6System8MonoType16GetMethodsByNameEP20Il2CppReflectionTypeP12Il2CppStringibS5_
OOi:_GCHandle__ctor_m2952050298
gFe:_LayoutGroup_SetProperty_TisAxis_t1431825778_m2174054513_gshared
Orb:__ZN4PPtrI10GameObjectE8TransferI14SafeBinaryReadEEvRT_
wEi:_Mask_IsRaycastLocationValid_m62488857
uza:__ZNSt3__27__sort3IRNS_4lessIN22BuiltinResourceManager8ResourceEEEPS3_EEjT0_S7_S7_T_
a4i:_DefaultComparer_Compare_m3472472212_gshared
UTg:__Z31RuntimeInvoker_Slot_t2022531261PFvvEPK10MethodInfoPvPS4_
NRe:_MonoIO_GetLength_m2812344043
_8c:_ps_hints_t2mask
gvi:__ZL68UsedByNativeCodeAttribute_t3212052468_CustomAttributesCacheGeneratorP21CustomAttributesCache
mhj:_RequestAtlasCallback_Invoke_m2414509569
Ewb:__ZN10BlendShape8TransferI19StreamedBinaryWriteILb0EEEEvRT_
fhj:_Transform_IsChildOf_m10844547
TI:__Z32TransferEnumWithNameForceIntSizeI14SafeBinaryReadN10SampleClip8LoadTypeEEvRT_RT0_PKc17TransferMetaFlags
ePe:__Z21il2cpp_codegen_sizeofP11Il2CppClass
cha:__Z19GetTimeSinceStartupv
JBd:_SecurityFrame_get_Assembly_m2816566490
o9j:__ZN6il2cpp2os10ThreadImpl11SetPriorityENS0_14ThreadPriorityE
ped:_TT_Load_Composite_Glyph
Ijj:_NetFxCoreExtensions_CreateDelegate_m2492743074
Fxb:__Z33MultiplyMatrixArrayWithBase4x4REFPK10Matrix4x4fS1_S1_PS_j
eXh:__ZL66RuntimeArray_CustomAttributesCacheGenerator_Array_Sort_m2323017822P21CustomAttributesCache
R$d:_Array_Sort_m2994254654
Snf:_List_1__ctor_m593058937_gshared
zue:_Array_InternalArray__IEnumerable_GetEnumerator_TisColor32_t874517518_m2198639025_gshared
p$a:__ZN29RenderNodeQueuePrepareContextC2Ev
WR:__ZN10SampleClipC2E18MemLabelIdentifier18ObjectCreationMode
lWb:__ZN9ShaderLab20SerializedSubProgram16TextureParameter8TransferI24GenerateTypeTreeTransferEEvRT_
Psk:dynCall_viiiiiiiiiiiii
_ig:_Thread_set_Name_m1343706609
Njk:__ZN6il2cpp2os11MutexHandle4WaitEj
Pbc:__ZL34GetComponentsImplementationRecurseILb1ELi1ELi1EEbR10GameObjectbRK17CompareParametersRK39GetComponentsImplementation_ReturnValue
tIg:__Z75RuntimeInvoker_Playable_t1896841784_AnimationLayerMixerPlayable_t3057952312PFvvEPK10MethodInfoPvPS4_
Mjk:__ZN6il2cpp2os11MutexHandle4WaitEv
k5d:_ArrayList_set_Capacity_m592558035
lra:__ZN6prcoreL17RemapGenericFloatI15TexFormatRGHalf18TexFormatARGBFloatEEvPKNS_9InnerInfoE
zXe:_MonoEnumInfo_t2335995564_marshal_pinvoke_cleanup
aja:__ZNK13RenderTexture13GetDataHeightEv
Wga:__Z18SimulateMouseInputi
OVa:__ZN13RenderManager23AddRemoveCamerasDelayedEv
Juc:__ZN9JSONWrite8TransferI13dynamic_arrayIdLj8EEEEvRT_PKc17TransferMetaFlags
qsa:__ZN23PreloadManagerOperation11GetPriorityEv
soe:_Exception_get_InnerException_m3722561235
jse:_Array_InternalArray__ICollection_Remove_TisILTokenInfo_t149559338_m1523907845_gshared
Pld:__ZN11UnityEngine9Analytics15AnalyticsConfigC2Ev
tCh:_ContactFilter2D_CheckConsistency_m1391185667
WJg:__Z105RuntimeInvoker_Void_t1841601450_Vector2U26_t3911752445_RuntimeObject_RuntimeObject_Vector2U26_t3911752445PFvvEPK10MethodInfoPvPS4_
Hkf:_List_1_GetEnumerator_m4053501645_gshared
cMj:__ZN6il2cpp2gc9AllocatorIP17Il2CppAsyncResultE10deallocateEPvj
tvj:_Enumerator_CheckState_m1761755727_gshared
y9d:_Hashtable_Rehash_m2877670513
U7a:__ZN13RenderTexture8SetWidthEi
eYd:_InputField_Insert_m1593238693
J0b:__ZNK28RectTransformPropertyBinding12SetPPtrValueERKN11UnityEngine9Animation10BoundCurveEi
QQb:__Z18Transfer_BlittableI18StreamedBinaryReadILb0EELb0EfEvRK29SerializationCommandArgumentsR31RuntimeSerializationCommandInfo
Swb:__ZN10MeshFilterD0Ev
red:_UNITY_FT_GlyphLoader_CheckSubGlyphs
eMj:__ZN6il2cpp2vm21ThreadPoolCompartment20SpawnNewWorkerThreadEv
Oxe:_Array_InternalArray__ICollection_Add_TisCustomAttributeTypedArgument_t1498197914_m3260005285_gshared
z1a:__Z25SetupObjectBakedOcclusionbRK15SharedLightDataRK26SharedLightmapSettingsDataRK15LightmapIndicesR17ShaderPassContext
nae:_SyncHashtable_GetObjectData_m3774367030
h6i:__ZN21InterfaceFuncInvoker4IP17Match_t3164245899P17Regex_t1803876613P8String_tiiE6InvokeEjP11Il2CppClassP12Il2CppObjectS3_S5_ii
uLe:_Guid_GetHashCode_m1401300871
Yrj:_ListPool_1_U3Cs_ListPoolU3Em__0_m1243609651_gshared
qrc:__Z42Register_UnityEngine_GUIStyle_set_fontSizev
cI:__Z82Register_UnityEngine_Animations_AnimatorControllerPlayable_INTERNAL_CALL_GetBoolIDv
iwj:__ZL23UnresolvedVirtualCall_5P12Il2CppObjectsPK10MethodInfo
qD:__ZN4PPtrI6AvatarE8TransferI19StreamedBinaryWriteILb0EEEEvRT_
cA:__ZN8Animator9BuildJobsERK13dynamic_arrayIP14PlayableOutputLj4EERS0_INS_11AnimatorJobELj4EEPS7_bb
N$:__ZN9ShaderLab16FastPropertyName4InitEPKc
xRc:__ZN11b2GearJointD0Ev
N$b:__Z13RegisterClassIN2UI13RectTransformEEvv
G_e:_MSCompatUnicodeTable_ToWidthCompat_m2299599532
PDj:__ZN13Il2CppHashMapIPK22Il2CppGenericParameterP11Il2CppClassN6il2cpp5utils11PointerHashIS1_EENSt3__28equal_toIS2_EENS9_9allocatorINS9_4pairIK10KeyWrapperIS2_ES4_EEEEEC2EjRKS8_RKSB_
rZe:_NumberFormatter_get_IsFloatingSource_m2830957202
Ktb:__ZN10VertexData8TransferI17RemapPPtrTransferEEvRT_
Fia:__ZN13RenderTexture9SetMipMapEb
IGj:__ZN15dense_hashtableINSt3__24pairIK10KeyWrapperIPK11Il2CppClassEPKcEES6_N6il2cpp5utils11PointerHashIS3_EEN14dense_hash_mapIS6_S9_SE_NS6_14EqualsComparerINS0_8equal_toIS5_EEEENS0_9allocatorISA_EEE9SelectKeyESJ_SL_E13set_empty_keyERKSA_
vIi:_ScrollRect_set_verticalScrollbarSpacing_m2356851539
Lga:__Z18GetDirectorManagerv
jkh:_PlayableHandle_INTERNAL_CALL_SetTimeInternal_m3873000891
_Ze:_OperatingSystem_GetObjectData_m2276196875
_cj:_ResourceRequest_t2560315377_marshal_pinvoke_back
hwi:__ZL92PointerEventData_t1599784723_CustomAttributesCacheGenerator_U3CpointerDragU3Ek__BackingFieldP21CustomAttributesCache
Alc:__Z38Transform_CUSTOM_INTERNAL_get_rotationP12Il2CppObjectP11Quaternionf
GRj:__ZNSt3__26vectorIN6il2cpp2vm17TypeNameParseInfoENS_9allocatorIS3_EEE8allocateEj
Z0h:__ZL66CriticalFinalizerObject_t1920899984_CustomAttributesCacheGeneratorP21CustomAttributesCache
AUj:__ZNK15dense_hashtableINSt3__24pairIK10KeyWrapperINS1_IPK10MethodInfoP11Il2CppClassEEEjEES9_17ReflectionMapHashIS8_EN14dense_hash_mapIS9_jSD_NS9_14EqualsComparerINS0_8equal_toIS8_EEEENS0_9allocatorISB_EEE9SelectKeyESI_SK_E5beginEv
$Ia:__ZN7ApiGLES19UploadBufferSubDataEjN2gl12BufferTargetEllPKv
_ca:__ZNSt3__216__rotate_forwardINS_11__wrap_iterIPN4core12basic_stringIcNS2_20StringStorageDefaultIcEEEEEEEET_S9_S9_S9_
gDd:_String_System_IConvertible_ToInt32_m1927223638
Gse:_Array_InternalArray__ICollection_Remove_TisContentType_t1028629049_m3085152315_gshared
JIh:_Transform_1_EndInvoke_m4121732147_gshared
$zh:_Canvas_set_sortingOrder_m2922819993
c7g:_FailedToLoadScriptObject_t3605283378_marshal_pinvoke_back
GBh:_Color_get_red_m2410286591
Mxh:_AudioMixerPlayable_Create_m3525453973
oFd:_ASCIIEncoding__ctor_m4127831672
jHb:__Z19TransferField_ArrayI14SafeBinaryRead27Converter_SimpleNativeClassI8GUIStyleEEvRK23StaticTransferFieldInfoR31RuntimeSerializationCommandInfoRT0_
Azg:__Z63RuntimeInvoker_Void_t1841601450_RuntimeObject_Int16_t4041245914PFvvEPK10MethodInfoPvPS4_
afg:_UTF8Encoding__ctor_m3336862259
M2j:__ZN15dense_hashtableINSt3__24pairIK10KeyWrapperIP14Il2CppIUnknownEjEES5_N6il2cpp5utils11PointerHashIS3_EEN14dense_hash_mapIS5_jSB_NS5_14EqualsComparerINS0_8equal_toIS4_EEEENS0_9allocatorIS7_EEE9SelectKeyESG_SI_ED2Ev
qik:__ZN6il2cpp5utils10MemoryPoolC2Ej
p$f:_X509Chain_GetAuthorityKeyIdentifier_m2607407678
mik:__ZN6il2cpp5utils10MemoryPoolC2Ev
Hmb:__ZN14RenderSettings5ResetEv
C_b:__ZN6Sprite9BindAtlasERK4PPtrI11SpriteAtlasE
R0j:__ZNSt3__212basic_stringIDsNS_11char_traitsIDsEENS_9allocatorIDsEEE6appendEPKDsj
gE:__ZZN8Animator15InitializeClassEvEN37FunctorImpl_421kDidModifyOverrideClip4CallEPviR11MessageData
aLd:_RaycastResult_set_gameObject_m1138581891_AdjustorThunk
Zyh:_Bounds_get_extents_m4077324178_AdjustorThunk
Z0i:_InternalEnumerator_1_get_Current_m3724267862_AdjustorThunk
wEe:_Dictionary_2_Do_ICollectionCopyTo_TisKeyValuePair_2_t3716250094_m1740410536_gshared
lQh:_DefaultComparer__ctor_m580747638_gshared
l8g:_GUI_CallWindowDelegate_m2039577415
ani:__ZL137AnimatorControllerPlayable_t1744083903_CustomAttributesCacheGenerator_AnimatorControllerPlayable_CrossFade_m3391147919____normalizedTime3P21CustomAttributesCache
f5e:_RSAManaged_Dispose_m3018788098
oNc:__ZN14ParticleSystem18MarkAllSubEmittersEPS_
qsc:__ZN8Gradient8TransferI9JSONWriteEEvRT_
mig:_Monitor_Monitor_pulse_m2135582245
POf:_Context_get_ReceivedConnectionEnd_m3369356276
EVf:_NameObjectCollectionBase_get_Count_m2353593692
Tfb:__ZNK12TLSAllocatorI14StackAllocatorE22GetAllocatedMemorySizeEv
Q$h:__ZL54AssemblyName_t894705941_CustomAttributesCacheGeneratorP21CustomAttributesCache
oge:_Convert_ToUInt32_m3394039268
X9a:__ZN17RemapPPtrTransfer12PushMetaFlagE17TransferMetaFlags
HP:__ZNK7WeakPtrI20SoundChannelInstanceE10SharedData9GetRawPtrEv
XRa:__ZN12HandlerChain4NameEv
szb:__ZNSt3__26vectorI9InputAxisNS_9allocatorIS1_EEE10deallocateEv
sMe:_Int16_Equals_m3925135434_AdjustorThunk
dkd:__Z44Register_UnityEngine_CanvasRenderer_get_cullv
mKh:_Enumerator_Dispose_m2532362830_AdjustorThunk
zZh:__ZL60IHashCodeProvider_t1980576455_CustomAttributesCacheGeneratorP21CustomAttributesCache
i0b:__ZN13ProduceHelperI13MonoBehaviourLb0EE7ProduceE18MemLabelIdentifier18ObjectCreationMode
abf:_Enumerator_VerifyState_m1677639504_AdjustorThunk
Idb:__Z29StdTemplateConversionFunctionIbbEbPvR14SafeBinaryRead
Mbk:__ZNK15dense_hashtableINSt3__24pairIK10KeyWrapperIPK19Il2CppGenericMethodEP10MethodInfoEES6_N6il2cpp8metadata23Il2CppGenericMethodHashEN14dense_hash_mapIS6_S9_SD_NS6_14EqualsComparerINSC_26Il2CppGenericMethodCompareEEENS0_9allocatorISA_EEE9SelectKeyESH_SJ_E12test_deletedEj
DMf:_CipherSuiteCollection_get_Item_m280627160
HFb:__Z44InitializeTransferFunctionScriptingTraitsForI17RemapPPtrTransferEvR31TransferFunctionScriptingTraits
U3f:_SerializationInfoEnumerator_MoveNext_m1876990879
Fkg:_TimeSpan_Duration_m4205681645
pbb:__ZN14UnityWebStream24UpdateAllUnityWebStreamsEv
psf:_Collection_1_System_Collections_IList_get_IsReadOnly_m2329986891_gshared
$Xh:__ZL60ObsoleteAttribute_t3878847927_CustomAttributesCacheGeneratorP21CustomAttributesCache
$Gg:__Z79RuntimeInvoker_Playable_t1896841784_PlayableGraph_t1041204988_Int32_t2071877448PFvvEPK10MethodInfoPvPS4_
NGc:__Z19UpdateProceduralTplIL27ParticleSystemCurveEvalMode4EEvRK20DualMinMaxPolyCurvesR23ParticleSystemParticlesPfRKN4math7_float4E
oze:_Array_InternalArray__ICollection_CopyTo_TisRaycastHit2D_t4063908774_m3837098618_gshared
Ata:__ZN18LoadSceneOperation21MustCompleteNextFrameEv
KO:__ZNK12AudioManager16GetAudioListenerEv
w4g:_MonoField_get_FieldType_m598011426
osf:_Collection_1_System_Collections_IList_get_IsFixedSize_m1624702704_gshared
yId:_EventTrigger_OnScroll_m626934407
mei:__ZL48Camera_t189460977_CustomAttributesCacheGeneratorP21CustomAttributesCache
s7a:__ZNSt3__26vectorI11CameraStackNS_9allocatorIS1_EEE8__appendEj
p0j:__ZNSt3__212basic_stringIcNS_11char_traitsIcEENS_9allocatorIcEEE6__initINS_11__wrap_iterIPcEEEENS_9enable_ifIXsr21__is_forward_iteratorIT_EE5valueEvE4typeESB_SB_
nTc:__ZNK11Rigidbody2D20GetAttachedCollidersER13dynamic_arrayIP10Collider2DLj4EE
nXd:_InputField_OnDisable_m1865339380
jog:_UInt32_System_IConvertible_ToType_m747769316
eu:__ZN7mecanim9animation12GetHumanPoseERKNS0_18ClipMuscleConstantEPKNS0_10ValueDeltaERNS_5human9HumanPoseE
zld:__ZN11UnityEngine9Analytics15UserCustomEvent12CustomParams6InsertEPKcRNS1_11CustomValueE
FFe:_Array_InternalArray__get_Item_TisInt16_t4041245914_m2533263979_gshared
Lv:__ZN22AnimationMixerPlayable17ProcessRootMotionEP35AnimationPlayableEvaluationConstantP32AnimationPlayableEvaluationInputP33AnimationPlayableEvaluationOutput
SNb:__Z29Transfer_Blittable_ArrayFieldI19StreamedBinaryWriteILb0EEjEvRT_R9ArrayInfoRK23StaticTransferFieldInfo
W5:__Z13GetFileSystemv
l7:__ZNK5Unity4Type21FindAllDerivedClassesER13dynamic_arrayIPKS0_Lj4EENS0_17TypeFilterOptionsE
u8:__ZN13RuntimeStaticI15GUIEventManagerLb0EE16StaticInitializeEPv
syb:__ZN14SafeBinaryRead8TransferIfEEvRT_PKc17TransferMetaFlags
SRb:__ZL12InvokeMethodI18StreamedBinaryReadILb0EEEvRK29SerializationCommandArgumentsR31RuntimeSerializationCommandInfo
oJe:_DaylightTime_get_Delta_m2316831491
GYc:__ZNSt3__27__sort5IR24RayHitsByDepthComparitorP12RaycastHit2DEEjT0_S5_S5_S5_S5_T_
Ere:_Array_InternalArray__ICollection_Contains_TisUILineInfo_t3621277874_m1175659630_gshared
Vjg:_WaitHandle_WaitOne_m370363697
Gwi:__ZL114PointerEventData_t1599784723_CustomAttributesCacheGenerator_PointerEventData_set_pointerCurrentRaycast_m2431897513P21CustomAttributesCache
v1f:_FactoryCache_Lookup_m1681894361
wie:_DateTime_Subtract_m698282245_AdjustorThunk
ayb:__ZThn32_N14SpriteRenderer15AddAsRenderNodeER15RenderNodeQueueRK20DeprecatedSourceData
w4i:_DefaultComparer__ctor_m2470932885_gshared
n_h:__ZL55BinaryReader_t2491843768_CustomAttributesCacheGeneratorP21CustomAttributesCache
iQb:__Z29Transfer_Blittable_ArrayFieldI18StreamedBinaryReadILb1EE5RectTIfEEvRT_R9ArrayInfoRK23StaticTransferFieldInfo
I9h:__ZL79Convert_t2607082565_CustomAttributesCacheGenerator_Convert_ToUInt64_m1896191125P21CustomAttributesCache
dXa:__ZN19ShaderPropertySheet9SetMatrixEN9ShaderLab16FastPropertyNameERK10Matrix4x4fNS_8SetFlagsE
yvd:_RIPEMD160Managed_Initialize_m3365407578
p8b:__Z29GetTextureSizeAllowedMultiple13TextureFormat
bXf:_IPAddress_HostToNetworkOrder_m1092199707
Ite:_SetPropertyUtility_SetStruct_TisSpriteState_t1353336012_m2898060836_gshared
ifh:_Logger__ctor_m3834134587
$Ta:__ZZ23InitPlayerLoopCallbacksvEN52InitializationAsyncUploadTimeSlicedUpdateRegistrator7ForwardEv
Nzd:_SecurityAttribute__ctor_m3425755778
_5b:__ZN21IntermediateRenderers3AddEP20IntermediateRenderer
YOj:_il2cpp_array_element_size
CEh:_InvokableCall__ctor_m738302370
ig:_glCheckFramebufferStatus
roi:__ZL55TextGenerator_t647235000_CustomAttributesCacheGeneratorP21CustomAttributesCache
Zue:_Array_compare_TisInt32_t2071877448_m840310202_gshared
z3i:_InternalEnumerator_1_System_Collections_IEnumerator_get_Current_m442726479_AdjustorThunk
JY:__ZN19CloudServiceHandler20StartEventDispatcherERKN11UnityEngine15CloudWebService18CloudServiceConfigERNS1_23WebRequestRestHeaderMapE
H1i:_InternalEnumerator_1_System_Collections_IEnumerator_get_Current_m790514740_AdjustorThunk
aRc:__ZNK15b2DistanceJoint17GetReactionTorqueEf
mPg:__Z78RuntimeInvoker_Boolean_t3825574718_TransitionU26_t3012618447_Int32_t2071877448PFvvEPK10MethodInfoPvPS4_
u_e:__Z37il2cpp_codegen_get_executing_assemblyPK10MethodInfo
JZb:__ZN9Transform23VirtualRedirectTransferER17RemapPPtrTransfer
tGg:__Z72RuntimeInvoker_Boolean_t3825574718_Bounds_t3033363703_Bounds_t3033363703PFvvEPK10MethodInfoPvPS4_
alj:_PKCS12_get_Keys_m1312614820
Odh:_GUIStyle_Internal_DrawPrefixLabel_m1693575069
dwe:_Array_InternalArray__IndexOf_TisByte_t3683104436_m3605266236_gshared
Ldh:_GUIStyle_set_richText_m1853532836
Jyf:_Collection_1_System_Collections_IList_Insert_m435904526_gshared
emi:__ZL135AnimationMixerPlayable_t1343787797_CustomAttributesCacheGenerator_AnimationMixerPlayable_INTERNAL_CALL_CreateHandleInternal_m4073934737P21CustomAttributesCache
zGi:_RaycastAllCallback_Invoke_m981876639
Oeg:_UnicodeEncoding__ctor_m72484327
P2j:__ZN14dense_hash_mapI10KeyWrapperIP14Il2CppIUnknownEjN6il2cpp5utils11PointerHashIS1_EENS3_14EqualsComparerINSt3__28equal_toIS2_EEEENS9_9allocatorINS9_4pairIKS3_jEEEEE15set_deleted_keyERSF_
c8:__ZN22BuiltinResourceManager16StaticInitializeEPv
rIe:_NumberFormatter_ScaleOrder_m1915154678
Y_j:__ZN6il2cpp2gc9AllocatorIP12Il2CppThreadE10deallocateEPvj
yQc:__ZN24b2ChainAndCapsuleContact8EvaluateEP10b2ManifoldRK11b2TransformS4_
bXj:__ZN13Il2CppHashMapIPK14Il2CppAssemblyPK22Il2CppMonoAssemblyNameN6il2cpp5utils11PointerHashIS1_EENSt3__28equal_toIS2_EENSA_9allocatorINSA_4pairIK10KeyWrapperIS2_ES5_EEEEEC2EjRKS9_RKSC_
wqj:_UnityEvent_1_GetDelegate_m2720691419_gshared
v$i:_InternalEnumerator_1_System_Collections_IEnumerator_get_Current_m3576641073_AdjustorThunk
yOf:_ClientSessionInfo_SetContext_m2649357891
jNe:_Int32_System_IConvertible_ToInt64_m3790029067_AdjustorThunk
aId:_RaycasterManager_GetRaycasters_m1154876874
LTf:_SslStreamBase_InternalReadCallback_m2524917586
R6:__ZN8Remapper6RemoveEi
$ff:_List_1_CheckCollection_m2608305187_gshared
Gki:__ZL75SpriteAtlasManager_t308281693_CustomAttributesCacheGenerator_atlasRequestedP21CustomAttributesCache
mRa:__ZN10MemoryFile4ReadEyPvPy
vmg:_Type_get_ContainsGenericParameters_m505913180
S3c:__ZL36CleanupTextRenderingScriptingClassesv
bug:__Z52RuntimeInvoker_UInt32_t2149682021_Decimal_t724701077PFvvEPK10MethodInfoPvPS4_
jii:__ZL82Material_t193706927_CustomAttributesCacheGenerator_Material_SetIntImpl_m4157631275P21CustomAttributesCache
Q7a:__ZN15ReflectionProbe17UseRendererResultEP13ProbeRenderer
x$d:_Array_BinarySearch_m3270245097
iic:__Z34Mesh_CUSTOM_SetArrayForChannelImplP12Il2CppObject30InternalScriptingShaderChannel34InternalScriptingVertexChannelTypeiP11Il2CppArrayi
$Qe:_MonoIO_DeleteFile_m3273821223
C0i:_InternalEnumerator_1_Dispose_m3642485841_AdjustorThunk
q0e:_BigInteger_GenerateRandom_m2507308768
mhe:_DateTime_System_IConvertible_ToDouble_m1431748426_AdjustorThunk
pre:_Array_InternalArray__ICollection_Contains_TisUInt16_t986882611_m510319131_gshared
sAe:_Array_InternalArray__Insert_TisRaycastHit2D_t4063908774_m3174907903_gshared
Mke:_Decimal_ToString_m541380585
i2f:_RepeatContext_get_Previous_m808449037
WMg:__Z46RuntimeInvoker_CharacterValidation_t3437478890PFvvEPK10MethodInfoPvPS4_
S2g:_MemberFilter__ctor_m1775909550
Wqh:_AnimationOffsetPlayable_SetRotation_m1448934280_AdjustorThunk
oPj:_il2cpp_class_is_valuetype
SD:__ZN11UnityEngine9Animation28GenericAnimationBindingCache25RegisterIAnimationBindingEPKN5Unity4TypeEiP17IAnimationBinding
hkd:__Z70RectTransformUtility_CUSTOM_INTERNAL_CALL_RectangleContainsScreenPointP12Il2CppObjectRK13Vector2fIcallS0_
Qne:_Enum_ToObject_m2601523252
Grk:dynCall_viiffiii
kTf:_InternalAsyncResult_get_FromWrite_m2893408424
FEj:__ZN6il2cpp2vm5Class15GetElementClassEP11Il2CppClass
OZd:_U3CDelayedSetDirtyU3Ec__Iterator0_System_Collections_IEnumerator_get_Current_m851854792
i_a:__Z20RenderSceneDepthPassRK19SharedRendererSceneRK17ShaderReplaceDatabR17ShaderPassContext
gni:__ZL124AnimatorControllerPlayable_t1744083903_CustomAttributesCacheGenerator_AnimatorControllerPlayable_PlayInFixedTime_m3726932292P21CustomAttributesCache
wOg:__Z37RuntimeInvoker_Enumerator_t1593300101PFvvEPK10MethodInfoPvPS4_
hld:__ZN14UnityAnalytics25UnregisterGlobalCallbacksEv
S5a:__Z40ProcessCameraIndexListIsNodeVisibleInOutRK22SceneCullingParametersPK9SceneNodePK4AABBR9IndexList
Dlb:__ZN16GraphicsSettings8TransferI17RemapPPtrTransferEEvRT_
rIf:_BigInteger_op_LessThanOrEqual_m3528380540
hUe:_StreamReader__ctor_m2654332332
Hhd:__ZN2UI6Canvas13UpdateBatchesEb
Uy:__ZNK23AnimationPlayableOutput11DerivesFromE17ScriptingClassPtr
Kob:__ZN7Texture19SupportsAsyncUploadI19StreamedBinaryWriteILb0EEEEbRT_
fef:_List_1_CheckCollection_m3968030679_gshared
YBj:_Predicate_1_BeginInvoke_m3556950370_gshared
Jfg:_StringBuilder_ToString_m617673931
UAa:__ZNK13GfxDeviceGLES12GetWireframeEv
yDf:_ReadOnlyCollection_1_System_Collections_ICollection_get_IsSynchronized_m3127987432_gshared
pod:__ZN11UnityEngine7Connect13ConfigHandler12GetListenersERKN4core12basic_stringIcNS2_20StringStorageDefaultIcEEEE
lCa:__ZN9GfxDevice18AllocRenderSurfaceEb
w_b:__ZN10TagManager32GetSortingLayerUniqueIDFromValueEi
d9i:_AnchorInfo_get_IsComplete_m1247624133
iRd:_Dropdown_Show_m324374589
l2:__ZL27CleanupCoreScriptingClassesv
efi:__ZL85Component_t3819376471_CustomAttributesCacheGenerator_Component_SendMessage_m913946877P21CustomAttributesCache
vwg:__Z68RuntimeInvoker_RuntimeObject_RuntimeObject_DSAParameters_t1872138834PFvvEPK10MethodInfoPvPS4_
Oxh:_AudioMixerPlayable_INTERNAL_CALL_CreateAudioMixerPlayableInternal_m3355685531
hAf:_ReadOnlyCollection_1_System_Collections_ICollection_get_SyncRoot_m769863805_gshared
XNg:__Z101RuntimeInvoker_Void_t1841601450_RuntimeObject_Int32_t2071877448_Single_t2076509932_Single_t2076509932PFvvEPK10MethodInfoPvPS4_
Tuh:_AnimatorControllerPlayable_PlayInFixedTime_m1932606764_AdjustorThunk
tKd:_RaycastResult_get_isValid_m2482925612
Xhc:__Z26AnimationCurve_CUSTOM_InitP12Il2CppObjectP11Il2CppArray
Bzk:_glUniform1uiv__wrapper
fQc:__ZNK14b2PolygonShape5CloneEP16b2BlockAllocator
OWj:__ZN6il2cpp2vm10Reflection7IsEventEP12Il2CppObject
Zkk:__ZNSt3__26__treeINS_12__value_typeIPFvvEPK10MethodInfoEENS_19__map_value_compareIS3_S7_NS_4lessIS3_EELb1EEENS_9allocatorIS7_EEE16__insert_node_atEPNS_16__tree_node_baseIPvEERSI_SI_
r3:__ZN17PersistentManager26GetStreamNameSpaceInternalEi
$I:__ZN4FMOD6System11createSoundEPKcjP22FMOD_CREATESOUNDEXINFOPPNS_5SoundE
xUg:__Z72RuntimeInvoker_Int32_t2071877448_Vector2_t2243707579_Vector2_t2243707579PFvvEPK10MethodInfoPvPS4_
TAh:_CanvasRenderer_get_cull_m3577089379
vvf:__ZN23InterfaceActionInvoker2Ii22UICharInfo_t3056636800E6InvokeEjP11Il2CppClassP12Il2CppObjectiS0_
po:FUNCTION_TABLE_iiifiiii
bih:_Object_Destroy_m4145850038
fSj:__ZN6il2cpp2vm4Type14IsSystemDBNullEPK10Il2CppType
U0:__ZN9ShaderLab19CommonPropertyNames13StaticCleanupEPv
Rqh:_AnimationOffsetPlayable_INTERNAL_CALL_GetRotationInternal_m3411582030
y4:__Z31scripting_method_get_returntype18ScriptingMethodPtr
DIi:_ScrollRect_UpdateBounds_m3266596336
Kqb:__ZN15SerializeTraitsI12LightmapDataE8TransferI24GenerateTypeTreeTransferEEvRS0_RT_
NOd:_ColorBlock_GetHashCode_m649325222
Zvk:_glStencilOpSeparate__wrapper
A8b:__ZN4Mesh5SetUvEiPKfjj
cua:__ZN7Texture13SetAnisoLimitENS_20AnisotropicFilteringE
wua:__ZN28LightProbeProxyVolumeManager25UpdateSHCoeffsTextureDataER21LightProbeProxyVolume
ZPa:__Z18CreateDecompressor15CompressionType18MemLabelIdentifier
SS:__ZN11AudioModule16SetListenerPauseEb
$h:_emscripten_glCompressedTexSubImage2D
tKa:__ZN13GfxDeviceGLES22MemoryBarrierImmediateEyN2gl17MemoryBarrierTypeE
Lca:__ZZN18SpriteAtlasManagerC1EvEN46EarlyUpdateSpriteAtlasManagerUpdateRegistrator7ForwardEv
B1j:__ZN6il2cpp6icalls8mscorlib6System4Type18internal_from_nameEP12Il2CppStringbb
zra:__ZN6prcoreL26RemapGenericFloatToIntegerI18TexFormatARGBFloat17TexFormatARGB8888EEvPKNS_9InnerInfoE
k8b:__Z46GetShaderModelNumericValueFromRequirementsMask18ShaderRequirements
V_b:__ZN6Object27GetOffsetOfInstanceIdMemberEv
ycd:_cff_ps_has_glyph_names
Joj:_InvokableCall_1__ctor_m2837611051_gshared
FKg:__Z89RuntimeInvoker_Void_t1841601450_RuntimeObject_SingleU26_t4173844468_SingleU26_t4173844468PFvvEPK10MethodInfoPvPS4_
dSh:_EqualityComparer_1__ctor_m1389939323_gshared
jJh:_Transform_1_EndInvoke_m1025924012_gshared
uEf:_ReadOnlyCollection_1_System_Collections_Generic_ICollectionU3CTU3E_get_IsReadOnly_m2873538493_gshared
R6i:_PatternCompiler_EmitPosition_m3013268572
T0f:_X509SubjectKeyIdentifierExtension__ctor_m1109455121
$Cc:__ZN10SizeModule8TransferI17RemapPPtrTransferEEvRT_
Wwj:__ZL24UnresolvedVirtualCall_45P12Il2CppObject19DateTime_t693205669PK10MethodInfo
uTd:_Graphic_CreateColorFromAlpha_m2614574534
vgg:_UnicodeEncoding_GetHashCode_m2443440683
Crc:__Z44Register_UnityEngine_GUIStyle_SetDefaultFontv
U$g:_GenericTypeParameterBuilder_GetPropertyImpl_m3566422383
mOb:__Z18Transfer_BlittableI18StreamedBinaryReadILb1EELb1EiEvRK29SerializationCommandArgumentsR31RuntimeSerializationCommandInfo
LA:__ZN9BlobWrite8TransferI22OffsetPtrArrayTransferIKN4math7_float3EEEEvRT_PKc17TransferMetaFlags
yxb:__ZN16MeshSkinningData14GetBoneWeightsEi
Iyd:_TripleDES_IsWeakKey_m483013953
g_f:_X509Certificate2_get_PrivateKey_m2662162956
sKh:_Enumerator__ctor_m3819430617_AdjustorThunk
DVj:__ZN15dense_hashtableINSt3__24pairIK10KeyWrapperINS1_IPK12PropertyInfoP11Il2CppClassEEEjEES9_17ReflectionMapHashIS8_EN14dense_hash_mapIS9_jSD_NS9_14EqualsComparerINS0_8equal_toIS8_EEEENS0_9allocatorISB_EEE9SelectKeyESI_SK_E12maybe_shrinkEv
NCg:__Z75RuntimeInvoker_RuntimeObject_RuntimeObject_Single_t2076509932_RuntimeObjectPFvvEPK10MethodInfoPvPS4_
HOb:__Z18Transfer_BlittableI18StreamedBinaryReadILb1EELb1EsEvRK29SerializationCommandArgumentsR31RuntimeSerializationCommandInfo
ux:__ZN26AnimatorControllerPlayable17IsMultithreadableEv
vNg:__Z54RuntimeInvoker_Void_t1841601450_ColorBlock_t2652774230PFvvEPK10MethodInfoPvPS4_
lCd:_Single_System_IConvertible_ToSByte_m3757385387
$Re:_StreamAsyncResult_SetComplete_m2141125667
iua:__ZL21SetAnisoLimitEnumImplN7Texture20AnisotropicFilteringEb
Wmd:__ZN22BaseUnityConnectClient17OnEnterStateReadyEv
E0:__Z21GetManagerFromContexti
hhf:_List_1_get_Count_m634584594_gshared
axa:__ZN14GrowableBufferD2Ev
efh:_Keyframe_get_tangentMode_m1869200796_AdjustorThunk
ohc:__Z29Input_CUSTOM_GetMouseButtonUpi
WNj:__ZN6il2cpp6icalls8mscorlib6System8MonoType16InternalGetEventEP20Il2CppReflectionTypeP12Il2CppStringi
dlh:_Quaternion_INTERNAL_CALL_Internal_ToEulerRad_m1077217777
nog:_UInt32_System_IConvertible_ToUInt32_m1257480358_AdjustorThunk
MTg:__Z55RuntimeInvoker_CustomAttributeTypedArgument_t1498197914PFvvEPK10MethodInfoPvPS4_
jig:_Interlocked_CompareExchange_m3339239614
h6c:_UNITY_tt_face_load_maxp
zhc:__Z46Input_CUSTOM_INTERNAL_set_compositionCursorPosRK13Vector2fIcall
kt:__ZN7mecanim5human12FullBodyMaskEv
A7h:__ZL98Activator_t1850728717_CustomAttributesCacheGenerator_Activator_CreateInstance_m1465989661____args1P21CustomAttributesCache
s0:__ZN19ShaderPropertySheet11ComputeHashEv
pIj:__ZN30dense_hashtable_const_iteratorI10KeyWrapperIPK19Il2CppGenericMethodES4_N6il2cpp8metadata23Il2CppGenericMethodHashEN14dense_hash_setIS4_S7_NS4_14EqualsComparerINS6_26Il2CppGenericMethodCompareEEENSt3__29allocatorIS4_EEE8IdentityESB_SE_EppEv
IQc:__ZN12b2EPCollider24ComputePolygonSeparationEv
BPb:__ZN4PPtrI6ObjectE8TransferI18StreamedBinaryReadILb1EEEEvRT_
iX:__ZN11UnityEngine15CloudWebService20WebRequestRestClient6IsDoneEv
hPd:_ColorTween_get_tweenMode_m2919867230_AdjustorThunk
Wi:_llvm_fabs_f32
RNd:_CanvasScaler_HandleScaleWithScreenSize_m80056230
NW:__ZN11UnityEngine15CloudWebService16SessionContainer16GetJsonDataBlockEjRKN4core12basic_stringIcNS2_20StringStorageDefaultIcEEEERS6_PjSA_
Qbg:_SByte_System_IConvertible_ToUInt64_m2174352876_AdjustorThunk
Ani:__ZL132AnimatorControllerPlayable_t1744083903_CustomAttributesCacheGenerator_AnimatorControllerPlayable_Play_m2828212586____normalizedTime2P21CustomAttributesCache
f0g:_GenericTypeParameterBuilder_get_AssemblyQualifiedName_m902593295
zXj:__ZN15dense_hashtableINSt3__24pairIK10KeyWrapperIPK14Il2CppAssemblyEPK22Il2CppMonoAssemblyNameEES6_N6il2cpp5utils11PointerHashIS4_EEN14dense_hash_mapIS6_SA_SF_NS6_14EqualsComparerINS0_8equal_toIS5_EEEENS0_9allocatorISB_EEE9SelectKeyESK_SM_E13set_empty_keyERKSB_
Ugg:_UTF7Encoding_InternalGetBytes_m2772055844
NTh:_EqualityComparer_1__ctor_m831468288_gshared
nsj:_Locale_GetText_m512920887
NMh:_Dictionary_2_System_Collections_IDictionary_set_Item_m2290664072_gshared
Cyg:__Z76RuntimeInvoker_Void_t1841601450_Int64_t909078037_ResourceInfoU26_t3126209420PFvvEPK10MethodInfoPvPS4_
S_e:_SimpleCollator__cctor_m2693747668
Fke:_Decimal_CompareTo_m2454501434_AdjustorThunk
F3:__ZN14SafeBinaryReadD2Ev
Wmg:_UInt16_System_IConvertible_ToChar_m4055364664
G$b:__Z13RegisterClassI7TextureEvv
haj:_ExpressionCollection_OnValidate_m1703610065
tGe:_Component_GetComponentInChildren_TisRuntimeObject_m2461586036_gshared
VPb:__ZN8Gradient8TransferI18StreamedBinaryReadILb1EEEEvRT_
HJh:_Enumerator_Dispose_m2369319718_AdjustorThunk
c9h:__ZL79Convert_t2607082565_CustomAttributesCacheGenerator_Convert_ToUInt16_m3991499696P21CustomAttributesCache
mrc:__Z45Register_UnityEngine_GUIStyle_SetFontInternalv
Ipf:_Enumerator_Dispose_m1520016780_AdjustorThunk
E1j:__ZN6il2cpp6icalls8mscorlib6System4Type15MakeGenericTypeEP20Il2CppReflectionTypeP11Il2CppArray
vj:_SDL_PauseAudio
tPj:_il2cpp_class_from_type
d0d:_Array_Sort_m2323017822
fHi:_Scrollbar_UpdateDrag_m3839695926
iah:_GUILayoutUtility__cctor_m2957755459
Dyh:_AudioConfigurationChangeHandler_EndInvoke_m2237100787
T0:__ZN9ShaderLab19CommonPropertyNames16StaticInitializeEPv
OWe:_MissingMemberException__ctor_m3710131950
Ksa:__ZN13MemoryManager31DisallowAllocationsOnThisThreadEv
flh:_Quaternion_Euler_m3586339259
KC:__ZN7mecanim9animation18CreateAvatarOutputEPKNS0_14AvatarConstantEbbRNS_6memory9AllocatorE
Mrc:__Z45GUIUtility_CUSTOM_Internal_GetKeyboardControlv
DDg:__Z91RuntimeInvoker_Void_t1841601450_RuntimeObject_Int32_t2071877448_RuntimeObject_RuntimeObjectPFvvEPK10MethodInfoPvPS4_
Pcg:_CspParameters__ctor_m2546931874
CO:__ZN11AudioSource23VirtualRedirectTransferER24GenerateTypeTreeTransfer
c9b:__ZN7Texture11SetWrapModeE15TextureWrapMode
Vld:__ZN14UnityAnalytics15SendCustomEventERN11UnityEngine9Analytics15UserCustomEventE
Kub:__ZN14Texture2DArray23VirtualRedirectTransferER14SafeBinaryRead
S0a:__ZNK6Camera21CalculateCanDoShadowsEv
DPh:_Dictionary_2_make_pair_m2631942124_gshared
yTd:_Graphic__cctor_m1643894470
W8j:__ZN6il2cpp2os6Thread12SetStackSizeEj
Nsg:__Z99RuntimeInvoker_Void_t1841601450_Int32_t2071877448_RuntimeObject_Int32_t2071877448_Int32_t2071877448PFvvEPK10MethodInfoPvPS4_
C_f:_X509ChainElementEnumerator_get_Current_m2232618221
uyg:__Z54RuntimeInvoker_CallingConventions_t1097349142_IntPtr_tPFvvEPK10MethodInfoPvPS4_
nNd:_U3COnFinishSubmitU3Ec__Iterator0_Reset_m2080388334
X8b:__ZNK8Renderer16IsVisibleInSceneEv
Kyh:_Behaviour_get_isActiveAndEnabled_m3838334305
xIi:_ScrollRect_set_onValueChanged_m3957749575
G$:__Z13VFormatBufferPciPKcz
OQb:__Z18Transfer_BlittableI18StreamedBinaryReadILb0EELb1EhEvRK29SerializationCommandArgumentsR31RuntimeSerializationCommandInfo
BBj:_U3CCreateWhereIteratorU3Ec__Iterator1D_1_Dispose_m1879652802_gshared
B1h:__ZL90SafeHandle_t2733794115_CustomAttributesCacheGenerator_SafeHandle_get_IsInvalid_m3910183075P21CustomAttributesCache
rVd:_Image_GenerateSimpleSprite_m4275440988
ADh:_Display_get_systemHeight_m3377672024
Lng:_UInt16_ToString_m3280699191
pqj:_UnityEvent_1_GetDelegate_m2566156550_gshared
Dra:__ZN6prcoreL27StretchGenericFloatBilinearI15TexFormatRFloatEEvPKNS_9InnerInfoE
Y1h:__ZL56_PropertyInfo_t1567586598_CustomAttributesCacheGeneratorP21CustomAttributesCache
Nte:_Array_InternalArray__IEnumerable_GetEnumerator_TisBoolean_t3825574718_m798244337_gshared
Alf:_List_1_CopyTo_m158925060_gshared
Qv:__Z24ProcessAnimationMixBeginP35AnimationPlayableEvaluationConstantP32AnimationPlayableEvaluationInputP33AnimationPlayableEvaluationOutput
Nmh:_Rect_Overlaps_m4145874649
Pve:_Array_IndexOf_TisCustomAttributeNamedArgument_t94157543_m745056346_gshared
DIa:__Z14PadImageBorderR14ImageReferenceii
Lbi:__ZL92ExtendedKeyUsageExtension_t3816993686_CustomAttributesCacheGenerator_U3CU3Ef__switchU24map14P21CustomAttributesCache
gUj:__ZN15dense_hashtableINSt3__24pairIK10KeyWrapperINS1_IPK10MethodInfoP11Il2CppClassEEEjEES9_17ReflectionMapHashIS8_EN14dense_hash_mapIS9_jSD_NS9_14EqualsComparerINS0_8equal_toIS8_EEEENS0_9allocatorISB_EEE9SelectKeyESI_SK_E4findERSA_
sKg:__Z116RuntimeInvoker_Void_t1841601450_Rect_t3681755626_SByte_t454417549_SByte_t454417549_SByte_t454417549_SByte_t454417549PFvvEPK10MethodInfoPvPS4_
FUi:_ArrayReadOnlyList_1_ReadOnlyError_m2289309720_gshared
rw:__ZN27AnimationLayerMixerPlayableD2Ev
iOj:__ZN6il2cpp2vm8basepathEPKc
m8:__ZN15dense_hashtableINSt3__24pairIKiiEEi21InstanceIDHashFunctorN14dense_hash_mapIiiS4_NS0_8equal_toIiEE13stl_allocatorIS3_L18MemLabelIdentifier137ELi16EEE9SelectKeyES7_SA_E14squash_deletedEv
sRh:_DefaultComparer_GetHashCode_m320514092_gshared
uKf:_PKCS1_Verify_v15_m478274703
TK:__ZN12AudioManager39HandlePendingAudioConfigurationCallbackEv
eUh:__ZL79RuntimeObject_CustomAttributesCacheGenerator_Object_ReferenceEquals_m3900584722P21CustomAttributesCache
rk:_emscripten_glIsFramebuffer
n5b:__ZN12_GLOBAL__N_16qAtan2Eff
yfe:_Convert_ToInt64_m954367741
vk:_JS_Sound_SetLoopPoints
c5d:_ArrayList__ctor_m1467563650
PP:__ZN12AudioManager17ShouldSourcePauseEb
Hik:__ZN6il2cpp2vm26MetadataAllocGenericMethodEv
UMa:__ZN19ConstantBuffersGLES12RecordRenderEv
Kgj:_Transform_INTERNAL_set_rotation_m3703763817
Cuc:__ZN9JSONWrite8TransferI10RectOffsetEEvRT_PKc17TransferMetaFlags
jIa:__ZN4crnd12symbol_codec11decode_bitsEj
Fmj:_X509Crl_get_Extensions_m1795830276
JQc:__ZN15b2CircleContact8EvaluateEP10b2ManifoldRK11b2TransformS4_
cDe:_Array_Sort_TisRaycastResult_t21186376_TisRaycastResult_t21186376_m38820193_gshared
qvh:_Animator_ResetTriggerString_m1445965342
y5b:__ZN21FixedBehaviourManagerD0Ev
Mki:__ZL55RaycastHit2D_t4063908774_CustomAttributesCacheGeneratorP21CustomAttributesCache
jRe:_StreamReader__ctor_m3454466728
XK:__ZN4FMOD6System12createReverbEPPNS_6ReverbE
oXj:__ZN15dense_hashtableINSt3__24pairIK10KeyWrapperIPK14Il2CppAssemblyEPK22Il2CppMonoAssemblyNameEES6_N6il2cpp5utils11PointerHashIS4_EEN14dense_hash_mapIS6_SA_SF_NS6_14EqualsComparerINS0_8equal_toIS5_EEEENS0_9allocatorISB_EEE9SelectKeyESK_SM_E8min_sizeEjj
Acj:_Vector2_get_Item_m2792130561
jw:__ZN7mecanim19ValueArrayBlendNodeILb1EEEvRKNS_10ValueArrayERKNS_14ValueArrayMaskERS1_RS4_RNS_16ValueArrayWeightEf
Msa:__Z16MarkDependenciesR27GarbageCollectorThreadStatej
u0f:_X509ChainElementEnumerator_Reset_m3832280427
_rh:_AnimatorControllerPlayable_SetBoolString_m4011560969
Bvi:__ZL75EventSystem_t3466835263_CustomAttributesCacheGenerator_U3CU3Ef__mgU24cache0P21CustomAttributesCache
WYe:_MulticastDelegate_RemoveImpl_m2024746777
$Nd:_CanvasUpdateRegistry_ParentCount_m2367607495
QYe:_MulticastDelegate_Equals_m3064081489
b8e:_Activator_CreateInstance_m1465989661
P0:__ZNK9Transform11GetPositionEv
Eaj:_PositionAssertion_GetWidth_m2294218483
gkh:_PlayableHandle_SetPlayStateInternal_m3829195293
Vui:__ZL111PlayerConnection_t3517219175_CustomAttributesCacheGenerator_PlayerConnection_MessageCallbackInternal_m267902474P21CustomAttributesCache
WXa:__ZN23SharedMeshRenderingData18UnloadVertexStreamEi
cjj:_Vector4_set_Item_m3077071044
Z5b:__ZN31CanvasBatchIntermediateRenderer11AddSubBatchERK16DrawBuffersRangePK19ShaderPropertySheet
axi:__ZL104PointerEventData_t1599784723_CustomAttributesCacheGenerator_PointerEventData_set_scrollDelta_m4002219844P21CustomAttributesCache
x4b:__ZN19RenderEventsContextC2Ei
$U:__Z6simd4fRKf
ize:_Array_InternalArray__ICollection_CopyTo_TisColor32_t874517518_m379086718_gshared
XKi:_Slider_ClampValue_m2851810895
Yk:_emscripten_glEnable
Iah:_GUISkin_set_font_m4009958323
oqj:_UnityEvent_1_FindMethod_Impl_m3813546_gshared
E6j:__ZN6il2cpp2gc16GarbageCollector29RegisterFinalizerForNewObjectEP12Il2CppObject
Rib:__ZN10TagManager23VirtualRedirectTransferER14SafeBinaryRead
jPi:_MarshalAsAttribute__ctor_m1892084128
D5c:_UNITY_FT_Init_Class_ft_grays_raster
K3a:__Z15InitLightMeshesv
v7h:__ZL97WaitHandle_t677569169_CustomAttributesCacheGenerator_WaitHandle_t677569169____Handle_PropertyInfoP21CustomAttributesCache
c9e:_KeyValuePair_2_ToString_m1391611625_AdjustorThunk
Nn:FUNCTION_TABLE_iifiii
Ujf:_List_1_Sort_m4156683373_gshared
nii:__ZL108Material_t193706927_CustomAttributesCacheGenerator_Material_Internal_CreateWithMaterial_m2907597451____mono0P21CustomAttributesCache
Cee:_Double_Parse_m1617409931
XAj:_Comparison_1_BeginInvoke_m4056757384_gshared
BWa:__ZN22RenderingCommandBuffer36AcquireAndRegisterSharedMaterialDataEP8Material
tff:_List_1_System_Collections_Generic_IEnumerableU3CTU3E_GetEnumerator_m1503548298_gshared
JMb:__Z18Transfer_BlittableI19StreamedBinaryWriteILb0EELb1E8Vector2fEvRK29SerializationCommandArgumentsR31RuntimeSerializationCommandInfo
yad:_cf2_arrstack_init
f1h:__ZL65ClassInterfaceAttribute_t910653559_CustomAttributesCacheGeneratorP21CustomAttributesCache
uSj:__ZN15dense_hashtableINSt3__24pairIK10KeyWrapperINS1_IPK14Il2CppAssemblyP11Il2CppClassEEEjEES9_17ReflectionMapHashIS8_EN14dense_hash_mapIS9_jSD_NS9_14EqualsComparerINS0_8equal_toIS8_EEEENS0_9allocatorISB_EEE9SelectKeyESI_SK_E15insert_noresizeERKSB_
s$:__Z15CleanLogHandler7LogTypePKcz
OWb:__ZN9ShaderLab19SerializedSubShader8TransferI19StreamedBinaryWriteILb0EEEEvRT_
iQ:__ZN14AudioBehaviour15ThreadedCleanupEv
zgg:_UTF32Encoding_GetBytes_m2290150495
rDb:__ZN6Camera17RemoveImageFilterERK11ImageFilter
RJa:__ZNSt3__218__insertion_sort_3IR25ValueParameterArraySorterPN20GpuProgramParameters14ValueParameterEEEvT0_S6_T_
VUc:__ZN10ClipperLib7Clipper27ProcessEdgesAtTopOfScanbeamEx
sLg:__Z74RuntimeInvoker_Boolean_t3825574718_HitInfo_t1761367055_HitInfo_t1761367055PFvvEPK10MethodInfoPvPS4_
zid:__ZZN2UI11CanvasGroup15InitializeClassEvEN38FunctorImpl_117kTransformParentChanged4CallEPviR11MessageData
VDi:_LayoutUtility_GetLayoutProperty_m4052007472
Noj:_InvokableCall_1_Invoke_m3239892614_gshared
PKc:__ZN11ShapeModule17MainThreadCleanupEv
DXa:__ZNSt3__214__split_bufferI20ComputeShaderVariantRNS_9allocatorIS1_EEED2Ev
g1c:__ZNSt3__26vectorIN4core12basic_stringIcNS1_20StringStorageDefaultIcEEEE13stl_allocatorIS5_L18MemLabelIdentifier34ELi16EEE7reserveEj
gWj:__ZNK10KeyWrapperINSt3__24pairIPK9EventInfoP11Il2CppClassEEE14EqualsComparerINS0_8equal_toIS7_EEEclERKS8_SE_
WOf:_Context_set_WriteSequenceNumber_m3356252710
nid:__ZN2UI26InitializeDeviceForOverlayEi
sLe:_Guid_Equals_m2389236871
i1:__Z27LogRepeatingStringWithFlagsRKN4core12basic_stringIcNS_20StringStorageDefaultIcEEEE15LogMessageFlagsi
ccf:_Enumerator_MoveNext_m3483405135_gshared
Lt:__ZN17AnimationPlayable28ComputeNeedsBindingRebuildedEv
f4i:_DefaultComparer__ctor_m2859550749_gshared
hdf:_List_1_CheckIndex_m3609163576_gshared
Lji:__ZL62PlayableOutputHandle_t551742311_CustomAttributesCacheGeneratorP21CustomAttributesCache
dBb:__ZN15ResourceManagerD0Ev
c_f:_X509ExtensionCollection__ctor_m1324282194
opd:__ZN18UnityConnectClient33OnPlayerSessionStateChangedStaticEPS_jyy
dZh:__ZL74CaseInsensitiveHashCodeProvider_t2307530285_CustomAttributesCacheGeneratorP21CustomAttributesCache
Fpg:_UIntPtr__ctor_m3900568171_AdjustorThunk
SX:__ZNK11UnityEngine15CloudWebService23WebRequestUploadHandler11GetProgressEv
CFa:__ZN7ApiGLES4LoadE16GfxDeviceLevelGL
Xqb:__ZN18StreamedBinaryReadILb0EE21TransferSTLStyleArrayI13dynamic_arrayI31EnlightenSystemAtlasInformationLj8EEEEvRT_17TransferMetaFlags
gAd:_Evidence_get_Count_m2805157382
cIa:__ZN4crnd12crn_unpacker22decode_color_endpointsEv
L5j:__ZN15dense_hashtableI10KeyWrapperIP18Il2CppGenericClassES3_N6il2cpp8metadata22Il2CppGenericClassHashEN14dense_hash_setIS3_S6_NS3_14EqualsComparerINS5_25Il2CppGenericClassCompareEEENSt3__29allocatorIS3_EEE8IdentityESA_SD_E15insert_noresizeERKS3_
gBf:_ReadOnlyCollection_1_System_Collections_IList_Clear_m3006875897_gshared
E3b:__ZZL31RegisterOtherRendererPropertiesR22GenericPropertyBindingEN30Wrapper_RendererReceiveShadows13GetFloatValueEPv
Rzj:__ZL25UnresolvedVirtualCall_202P12Il2CppObject22Navigation_t1571958496PK10MethodInfo
Jwg:__Z130RuntimeInvoker_Void_t1841601450_RuntimeObject_Int32U26_t455636984_ByteU26_t1147306860_Int32U26_t455636984_ByteU5BU5DU26_t790777611PFvvEPK10MethodInfoPvPS4_
ucf:_Enumerator_System_Collections_IEnumerator_get_Current_m3866069145_gshared
d0e:_PreviousInfo_t581002487_marshal_pinvoke_cleanup
oAj:__ZL25UnresolvedVirtualCall_227P12Il2CppObjectiPK10MethodInfo
yha:__ZN8Material11SetPassFastEPN9ShaderLab4PassER17ShaderPassContextP6Shaderib
Ibb:__ZNK13ScreenManager13GetLockCursorEv
mpd:__ZN11UnityEngine7Connect20BasePersistentValues10SaveValuesER9JSONWrite
smh:_Rect_get_max_m96665935_AdjustorThunk
ori:__ZL87GUIStyle_t1799908754_CustomAttributesCacheGenerator_GUIStyle_set_fixedWidth_m2562018757P21CustomAttributesCache
aJd:_ExecuteEvents_get_pointerDownHandler_m1172742772
ptf:_Collection_1_RemoveAt_m560005219_gshared
FYc:__ZNSt3__27__sort4IR24RayHitsByDepthComparitorP12RaycastHit2DEEjT0_S5_S5_S5_T_
Q9b:__Z14ScaleCurveTimeR17AnimationCurveTplIfEf
R$f:_X509CertificateEnumerator_System_Collections_IEnumerator_MoveNext_m3708362145
OZa:__Z12SetupLODFadeR9GfxDeviceR17ShaderPassContextf
Gnb:__ZNK14PlayableOutput7GetTypeEv
$Xc:__ZN26b2PolygonAndCapsuleContact6CreateEP9b2FixtureiS1_iP16b2BlockAllocator
awg:__Z203RuntimeInvoker_Boolean_t3825574718_RuntimeObject_Int32U26_t455636984_Int32_t2071877448_Int32_t2071877448_RuntimeObject_SByte_t454417549_Int32_t2071877448_ContractionU26_t2019974048_ContextU26_t3131521781PFvvEPK10MethodInfoPvPS4_
tlj:_X501_ToString_m3328169518
x3a:__ZL24CollectForwardObjectsJobP27CollectForwardObjectsHeader
CFh:_Enumerator_System_Collections_IDictionaryEnumerator_get_Entry_m345330700_gshared
MKj:__ZNK15dense_hashtableINSt3__24pairIK10KeyWrapperIPK11Il2CppClassEPKcEES6_N6il2cpp5utils11PointerHashIS3_EEN14dense_hash_mapIS6_S9_SE_NS6_14EqualsComparerINS0_8equal_toIS5_EEEENS0_9allocatorISA_EEE9SelectKeyESJ_SL_E12test_deletedERK24dense_hashtable_iteratorISA_S6_SE_SN_SJ_SL_E
H4h:__ZL53HMACSHA256_t2622794722_CustomAttributesCacheGeneratorP21CustomAttributesCache
l7a:__ZNK25CameraStackRenderingState24ResolveTempToEyeTexturesEv
o5a:__Z13IsNodeVisibleRK9SceneNodeRK4AABBRK22SceneCullingParameters
z2g:_EventInfo__ctor_m1190141300
xWi:_InternalEnumerator_1_MoveNext_m3585886944_gshared
jkd:__Z57RectTransformUtility_CUSTOM_INTERNAL_CALL_PixelAdjustRectP12Il2CppObjectS0_R5RectTIfE
nmi:__ZL133AnimationPlayableOutput_t260357453_CustomAttributesCacheGenerator_AnimationPlayableOutput_INTERNAL_CALL_InternalSetTarget_m2733556181P21CustomAttributesCache
o8f:_DelayedFixupRecord_FixupImpl_m4249966635
yBk:_emscripten_glStencilMask__wrapper
fIj:__ZN15dense_hashtableI10KeyWrapperIPK19Il2CppGenericMethodES4_N6il2cpp8metadata23Il2CppGenericMethodHashEN14dense_hash_setIS4_S7_NS4_14EqualsComparerINS6_26Il2CppGenericMethodCompareEEENSt3__29allocatorIS4_EEE8IdentityESB_SE_EC2ERKSH_j
C0e:_BigInteger_ToString_m3837784224
Dke:_Decimal_decimalCompare_m26009298
ESa:__ZNK17ArchiveFileSystem8PositionERK13FileEntryData
c0c:__ZN16NovodexAllocator8allocateEjPKcS1_i
fme:_DllNotFoundException__ctor_m267198482
X2a:__Z17PrepareShadowMapsRK11CullResultsRK11ActiveLightRK10MinMaxAABB
LPg:__Z75RuntimeInvoker_Boolean_t3825574718_CustomAttributeTypedArgument_t1498197914PFvvEPK10MethodInfoPvPS4_
Xhg:_NativeEventCalls_CreateEvent_internal_m1605829321
$df:_List_1_GetIndex_m3409004147_gshared
fti:__ZL73RuntimePlatform_t1869584967_CustomAttributesCacheGenerator_MetroPlayerX64P21CustomAttributesCache
qwj:__ZL24UnresolvedVirtualCall_13P12Il2CppObjectaPK10MethodInfo
p_i:_InternalEnumerator_1_System_Collections_IEnumerator_get_Current_m3239681450_AdjustorThunk
GUb:__ZNSt3__26vectorIN9ShaderLab20SerializedSubProgram15VectorParameterENS_9allocatorIS3_EEEC2ERKS6_
u3a:__ZN9ShaderLab10GrabPassesD2Ev
whh:_MonoBehaviour_set_useGUILayout_m2666356651
Vub:__ZN14Texture2DArray13UploadTextureEv
zBd:_SecurityFrame_t1002202659_marshal_pinvoke
R7c:_tt_cmap14_done
Dta:__ZN18AwakeFromLoadQueue25RegisterObjectInstanceIDsEv
v2d:_Buffer_BlockCopy_m1586717258
f4h:__ZL93X509Certificate_t283079845_CustomAttributesCacheGenerator_X509Certificate_GetName_m2354987368P21CustomAttributesCache
ww:__ZNK27AnimationLayerMixerPlayable11DerivesFromE17ScriptingClassPtr
a2c:__ZN20TextRenderingPrivate19NativeTextGenerator15InsertCharacterEiPj
tYi:_InternalEnumerator_1__ctor_m3589241961_AdjustorThunk
r0j:__ZNSt3__26vectorIN6il2cpp2vm22EmbeddedResourceRecordENS_9allocatorIS3_EEE21__push_back_slow_pathIS3_EEvOT_
zpe:_CompareInfo_GetSortKey_m3691382873
DSc:__ZN11b2RopeJoint24SolveVelocityConstraintsERK12b2SolverData
zje:_DBNull_ToString_m3228904745
hYf:_WebHeaderCollection_AddWithoutValidate_m1479880592
jxd:_SHA1Managed_HashCore_m2658295635
bzc:__ZN24OptimizedPolynomialCurve19BuildOptimizedCurveERK17AnimationCurveTplIfEf
ax:__ZN17AnimationPlayableD0Ev
LKf:_RC4_get_IV_m506011366
Cmj:_X509Crl__ctor_m2469408229
vNb:__Z18Transfer_BlittableI19StreamedBinaryWriteILb0EELb0EyEvRK29SerializationCommandArgumentsR31RuntimeSerializationCommandInfo
t1h:__ZL82SafeHandle_t2733794115_CustomAttributesCacheGenerator_SafeHandle_Close_m1146946803P21CustomAttributesCache
PFh:_Enumerator_get_CurrentValue_m3562053380_AdjustorThunk
Z0f:_X509SubjectKeyIdentifierExtension_CopyFrom_m136762226
Nqh:_AnimationOffsetPlayable_INTERNAL_CALL_SetPositionInternal_m3711322547
raf:_Enumerator_System_Collections_IEnumerator_Reset_m610822832_AdjustorThunk
Sic:__Z41MonoBehaviour_Set_Custom_PropUseGUILayoutP12Il2CppObjecth
L8j:__ZN6il2cpp5utils13dynamic_arrayIPNS_2os6ThreadELj4EE9push_backEv
W2c:_UNITY_FT_Open_Face
Hak:__ZN6il2cpp2gc16GarbageCollector9FreeFixedEPv
jzh:_Bounds_ToString_m1966597703
x1e:_BigInteger_op_Division_m1581119694
TSb:__ZN16ScriptingManagerD0Ev
zVh:__ZL81Decimal_t724701077_CustomAttributesCacheGenerator_Decimal_op_Implicit_m2135798419P21CustomAttributesCache
goh:_UnityAnalyticsHandler_CustomEvent_m2884790978
B9f:_CallbackHandler_Invoke_m1498072969
udg:_DSACryptoServiceProvider__ctor_m701823690
pSg:__Z74RuntimeInvoker_Void_t1841601450_Int32_t2071877448_ResourceInfo_t3933049236PFvvEPK10MethodInfoPvPS4_
_9g:_Mathf_Clamp_m2354025655
lYg:_CustomAttributeData_GetCustomAttributes_m2421330738
gSf:_SecurityParameters_set_ClientWriteMAC_m1970377285
jzj:__ZL25UnresolvedVirtualCall_168P12Il2CppObject19Vector2_t2243707579S1_PK10MethodInfo
Blg:_Type_get_IsEnum_m313908919
sfc:__Z44Register_UnityEngine_Component_get_transformv
Nlf:_List_1_Reverse_m3395936565_gshared
Bgc:__Z39GameObject_CUSTOM_FindGameObjectWithTagP12Il2CppString
Ctf:_Collection_1_System_Collections_ICollection_CopyTo_m1335644572_gshared
PB:__ZN12_GLOBAL__N_120ProcessPlayableGraphERN8Animator11AnimatorJobER35AnimationPlayableEvaluationConstantR32AnimationPlayableEvaluationInputR33AnimationPlayableEvaluationOutputPFvS4_R17AnimationPlayableEPFvS4_S6_S8_EPFvS8_S4_S6_S8_fESE_MS9_FvPS3_PS5_PS7_E
Ijf:_List_1_CheckMatch_m2830747427_gshared
SPa:__ZN17ArchiveFileSystem12MountArchiveEPKcS1_
mvg:__Z58RuntimeInvoker_RuntimeTypeHandle_t2330101084_RuntimeObjectPFvvEPK10MethodInfoPvPS4_
Qle:_StackFrame_GetMethod_m72881026
Itc:__Z18Transfer_BlittableI9JSONWriteLb1E8Vector4fEvRK29SerializationCommandArgumentsR31RuntimeSerializationCommandInfo
In:FUNCTION_TABLE_viififiii
Egd:__ZN2UI13CanvasManagerD0Ev
xGh:_Enumerator_System_Collections_IEnumerator_Reset_m70453843_gshared
Brb:__ZThn32_NK8Renderer14GetSubsetIndexEi
Hyg:__Z58RuntimeInvoker_Byte_t3683104436_IntPtr_t_Int32_t2071877448PFvvEPK10MethodInfoPvPS4_
oEe:_Dictionary_2_Do_CopyTo_TisKeyValuePair_2_t1174980068_TisRuntimeObject_m3279061992_gshared
vij:_Vector3_get_Item_m3616014016
pBi:__ZL59Slider_t297367283_CustomAttributesCacheGenerator_m_MinValueP21CustomAttributesCache
o2b:__ZN13ProduceHelperI15ResourceManagerLb0EE7ProduceE18MemLabelIdentifier18ObjectCreationMode
eDa:__ZN9GfxDevice15ImmediateVertexEfff
n$b:__Z13RegisterClassI8MaterialEvv
z5h:__ZL51Evidence_t1407710183_CustomAttributesCacheGeneratorP21CustomAttributesCache
gqb:__ZNK16LightmapSettings22GetTypeVirtualInternalEv
Lkb:__ZN16GraphicsSettings13AwakeFromLoadE17AwakeFromLoadMode
Foe:_FieldAccessException__ctor_m3893881490
$p:__ZN6Object13AwakeFromLoadE17AwakeFromLoadMode
NAa:__ZN13GfxDeviceGLES15SetStencilStateEPK18DeviceStencilStatei
fGg:__Z107RuntimeInvoker_Void_t1841601450_Single_t2076509932_Single_t2076509932_Single_t2076509932_Single_t2076509932PFvvEPK10MethodInfoPvPS4_
knk:_cycle
Afj:_TextGenerator_Populate_m4139823822
ybi:__ZL72PKCS12_t1362584795_CustomAttributesCacheGenerator_U3CU3Ef__switchU24map5P21CustomAttributesCache
Sd:_emscripten_glUniform1iv
sMi:_Text_get_preferredHeight_m452532789
GXc:__ZN15b2DistanceProxy3SetEPK7b2Shapei
eDd:_String_System_IConvertible_ToDouble_m3860911722
meb:__ZN16MemoryFileSystemD2Ev
H2i:_InternalEnumerator_1_get_Current_m3732458101_AdjustorThunk
LNh:_Dictionary_2_System_Collections_Generic_ICollectionU3CSystem_Collections_Generic_KeyValuePairU3CTKeyU2CTValueU3EU3E_Contains_m842343255_gshared
dJf:_ARC4Managed__ctor_m2922048522
l2c:__Z17dynamic_pptr_castIP9Texture2D7TextureET_RK4PPtrIT0_E
xCf:_ReadOnlyCollection_1_System_Collections_IList_set_Item_m1272038804_gshared
JVi:_InternalEnumerator_1_System_Collections_IEnumerator_get_Current_m1931522460_AdjustorThunk
Jzd:_SecurityPermission_IsEmpty_m1869313067
K$f:_X509CertificateCollection__ctor_m3709509050
Xec:__Z37Register_UnityEngine_Camera_get_depthv
K4e:_EncryptedPrivateKeyInfo_get_Salt_m2734354394
tEf:_ReadOnlyCollection_1_System_Collections_Generic_IListU3CTU3E_set_Item_m1918537449_gshared
esf:_Collection_1_System_Collections_ICollection_CopyTo_m3896480607_gshared
GJd:_PointerEventData_set_position_m794507622
J8j:__GLOBAL__sub_I_Thread_cpp_38259
bca:__ZN15dense_hashtableINSt3__24pairIKPKcPK4RTTIEES3_N11TypeManager23ConstCharPtrHashFunctorEN14dense_hash_mapIS3_S7_SA_NS9_19ConstCharPtrEqualToE13stl_allocatorIS8_L18MemLabelIdentifier6ELi16EEE9SelectKeyESC_SF_E12resize_deltaEjj
N_b:__ZN15ApplicationInfo16GetInstallerNameEv
Kdb:__Z23ConvertIntegerToTypePtrItEbPvR14SafeBinaryRead
qC:__ZN7mecanim5human29HumanGetGoalOrientationOffsetENS0_4GoalE
kFb:__ZNK11MonoManager22GetTypeVirtualInternalEv
jwj:__ZL23UnresolvedVirtualCall_6P12Il2CppObjectiPK10MethodInfo
pQh:_DefaultComparer_GetHashCode_m3315096533_gshared
n5g:_MonoMethod_MakeGenericMethod_impl_m2063853616
ABd:__Z46il2cpp_codegen_get_marshal_directive_exceptionPKc
SXb:__ZN9ShaderLab20SerializedSubProgram14AddMatrixParamEPKcii15ShaderParamTypei
ne:_glGetActiveUniformBlockName
lSd:_FontData_set_verticalOverflow_m4211463083
RF:__ZN26AnimatorControllerPlayable23ValidateParameterStringE17GetSetValueResultRKN4core12basic_stringIcNS1_20StringStorageDefaultIcEEEE
ALe:_Guid_AppendByte_m2890893073
lzc:__ZN31CollisionModulePropertyBindings13GetFloatValueERK14ParticleSystemi
H3d:_Char_System_IConvertible_ToType_m3106771703_AdjustorThunk
a3f:_Interval_Intersects_m3480157390_AdjustorThunk
Qhc:__Z39Quaternion_CUSTOM_INTERNAL_CALL_InverseRK11QuaternionfRS_
VOi:_GCHandle_Alloc_m1063472408
PL:__ZN4FMOD7Channel20set3DConeOrientationEP11FMOD_VECTOR
pxi:__ZL86StandaloneInputModule_t70867863_CustomAttributesCacheGenerator_m_InputActionsPerSecondP21CustomAttributesCache
zn:FUNCTION_TABLE_iiifii
qFh:_Comparer_1__ctor_m4052560291_gshared
moi:__ZL54SkeletonBone_t345082847_CustomAttributesCacheGeneratorP21CustomAttributesCache
Ccg:_CryptoConfig_CreateFromName_m391442950
P7j:__ZN6il2cpp2vm12GenericClass11SetupEventsEP11Il2CppClass
Zdd:_tt_delta_interpolate
K7c:_tt_cmap12_get_info
Gae:_SortedList__ctor_m3698381356
Juh:_AnimatorControllerPlayable_PlayInFixedTimeInternal_m3876843019
q3j:__ZN6il2cpp2vm15ReboxIReferenceEP14Il2CppIUnknownP11Il2CppClass
ZBj:_Predicate_1_EndInvoke_m3656575065_gshared
MUe:_StreamWriter_LowLevelWrite_m4205372900
TCj:__ZN6il2cpp6icalls8mscorlib6System7Decimal14decimalCompareEP19il2cpp_decimal_reprS5_
Udk:__ZThn4_N6il2cpp2vm13CachedCCWBaseINS0_13ManagedObjectEE7ReleaseEv
x3g:_Module__ctor_m3853650010
k8d:_CollectionBase_System_Collections_IList_get_Item_m2370387510
u3h:__ZL59RemotingException_t109604560_CustomAttributesCacheGeneratorP21CustomAttributesCache
TCe:_Array_Sort_TisCustomAttributeNamedArgument_t94157543_m3436077809_gshared
Byk:_glCopyTexImage2D__wrapper
adj:_ResourceRequest__ctor_m3340010930
WYd:_LayoutElement__ctor_m789941073
Rvi:__ZL77ExecuteEvents_t1693084770_CustomAttributesCacheGenerator_U3CU3Ef__mgU24cache9P21CustomAttributesCache
Ezh:_Camera_FireOnPreCull_m1679634170
K0h:__ZL68TargetInvocationException_t4098620458_CustomAttributesCacheGeneratorP21CustomAttributesCache
Eai:__ZL56RankException_t1539875949_CustomAttributesCacheGeneratorP21CustomAttributesCache
nIe:_NumberFormatter_CountTrailingZeros_m2398864634
bpa:__Z18ClearByDrawingQuad13GfxClearFlagsRK10ColorRGBAffjR17ShaderPassContext
GRi:_DynamicPropertyCollection_FindProperty_m1233265924
ara:__ZN6prcoreL17RemapGenericFloatI14TexFormatRHalf15TexFormatRFloatEEvPKNS_9InnerInfoE
CZa:__Z16ShouldUseShadowsb
yaa:__ZN15DirectorManager21RebuildStageCallbacksEv
bsa:__ZN19RuntimeSceneManager9LoadSceneERKN4core12basic_stringIcNS0_20StringStorageDefaultIcEEEES6_S6_RK9UnityGUIDiNS_11LoadingModeE
Iwj:__ZL24UnresolvedVirtualCall_31P12Il2CppObjectiS0_S0_PK10MethodInfo
UIa:__ZN7ApiGLES10DrawArraysE16GfxPrimitiveTypejjj
mEh:_Event_PopEvent_m1952528237
osh:_AnimatorControllerPlayable_SetIntegerString_m3665225671
CJ:__ZN10SampleClip13LoadBaseSoundEv
Vyg:__Z49RuntimeInvoker_TimeSpan_t3430258949_RuntimeObjectPFvvEPK10MethodInfoPvPS4_
S6j:__ZN15dense_hashtableINSt3__24pairIK10KeyWrapperIP12Il2CppObjectEN6il2cpp2gc9CachedCCWEEES5_NS7_5utils11PointerHashIS3_EEN14dense_hash_mapIS5_S9_SD_NS5_14EqualsComparerINS0_8equal_toIS4_EEEENS0_9allocatorISA_EEE9SelectKeyESI_SK_E15insert_noresizeERKSA_
Mwf:_Collection_1_Contains_m643401393_gshared
apa:__ZN22DeviceMVPMatricesStateC2ER9GfxDevice
yIc:__Z9UpdateTplIL27ParticleSystemCurveEvalMode1EEvRK11MinMaxCurveS3_S3_R23ParticleSystemParticlesjjRKN4math8float3x3ERKNS6_7_float4E
YCd:_String__ctor_m372528291
hn:FUNCTION_TABLE_iifii
qG:__Z64AnimationOffsetPlayable_CUSTOM_INTERNAL_CALL_SetRotationInternalR9HPlayableRK11Quaternionf
ltb:__ZNSt3__26vectorI13dynamic_arrayI8Vector2fLj4EENS_9allocatorIS3_EEE6assignINS_11__wrap_iterIPS3_EEEENS_9enable_ifIXaasr21__is_forward_iteratorIT_EE5valuesr16is_constructibleIS3_NS_15iterator_traitsISC_E9referenceEEE5valueEvE4typeESC_SC_
xzj:__ZL25UnresolvedVirtualCall_182P12Il2CppObject19Vector2_t2243707579S1_PK10MethodInfo
Erh:_AnimatorControllerPlayable_GetFloat_m1229536053_AdjustorThunk
mta:__ZNSt3__26__treeIiNS_4lessIiEE13stl_allocatorIiL18MemLabelIdentifier1ELi16EEE7destroyEPNS_11__tree_nodeIiPvEE
wc:invoke_viiifi
LXe:_LongComparer_Compare_m3981323622
Voi:__ZL82Canvas_t209405766_CustomAttributesCacheGenerator_Canvas_set_scaleFactor_m298557412P21CustomAttributesCache
eOj:__ZNSt3__214__split_bufferIP11Il2CppClassRNS_9allocatorIS2_EEEC2EjjS5_
QOd:_ContentSizeFitter_get_horizontalFit_m892469688
eDi:__ZL109LayoutUtility_t4076838048_CustomAttributesCacheGenerator_LayoutUtility_U3CGetFlexibleHeightU3Em__7_m947156537P21CustomAttributesCache
_3e:__ZN23InterfaceActionInvoker2IP8String_tP12Il2CppObjectE6InvokeEjP11Il2CppClassS3_S1_S3_
ySh:_EqualityComparer_1__cctor_m3033994022_gshared
vya:__ZNK11AssetBundle14GetPreloadDataEiR13dynamic_arrayIiLj4EE
S5e:_EncryptedData_get_EncryptedContent_m2732115576
xf:_JS_Sound_SetPosition
f8i:_Assertion_set_FalseExpression_m1781616372
V0f:_X509SubjectKeyIdentifierExtension_FromHexChars_m2515150420
aia:__ZN19RenderBufferManager13GetTempBufferEii17DepthBufferFormat19RenderTextureFormatj22RenderTextureReadWrite14VRTextureUsagei23RenderTextureMemoryless
VKj:__ZL13GetSharedInstPK17Il2CppGenericInst
RXh:__ZL51IReflect_t3412036974_CustomAttributesCacheGeneratorP21CustomAttributesCache
GLd:_StandaloneInputModule_SendSubmitEventToSelectedObject_m3421155293
G_c:__ZN13ProduceHelperI10Collider2DLb1EE7ProduceE18MemLabelIdentifier18ObjectCreationMode
WBh:_Component_GetComponentsInChildren_m908027537
cnd:__ZN22BaseUnityConnectClient17SaveSessionValuesEv
tTi:_CallContextRemotingData_Clone_m2226242476
f3:__Z63ThreadAndSerializationSafeCheckSetMonoBehaviourBeingTransferredP13MonoBehaviour
A3a:__Z24SetupActiveLightsContextR21ActiveLightingContextRK12ActiveLightsRK11CullResultsP14ShadowMapCacheRK10MinMaxAABB
BOh:_Dictionary_2_System_Collections_Generic_ICollectionU3CSystem_Collections_Generic_KeyValuePairU3CTKeyU2CTValueU3EU3E_Contains_m3400497673_gshared
Ikc:__Z38Sprite_CUSTOM_INTERNAL_get_textureRectP12Il2CppObjectP5RectTIfE
vje:_DBNull_System_IConvertible_ToUInt32_m2681284284
PXj:__ZNK15dense_hashtableINSt3__24pairIK10KeyWrapperIPK22Il2CppGenericParameterEPK24MonoGenericParameterInfoEES6_N6il2cpp5utils11PointerHashIS4_EEN14dense_hash_mapIS6_SA_SF_NS6_14EqualsComparerINS0_8equal_toIS5_EEEENS0_9allocatorISB_EEE9SelectKeyESK_SM_E3endEv
X6b:__ZN9TextAsset7SetTextERKN4core12basic_stringIcNS0_20StringStorageDefaultIcEEEE
gkb:__ZN6Camera8TransferI24GenerateTypeTreeTransferEEvRT_
pTh:_EqualityComparer_1__cctor_m416314417_gshared
Ka:invoke_iiiiiiif
Fa:invoke_iiiiiiii
IFc:__ZN14qsort_internal30FindAndMovePivotToLastPositionIPPKN9SubModule14SubEmitterDataEiPFbS4_S4_EEEvT_S8_T0_T1_
Kgh:_Mesh_GetUVChannel_m364477864
m$f:_X509ChainElementCollection_Contains_m3599995067
X6a:__ZN8Renderer17PendingAddToSceneEv
lCk:b123
kCk:b122
_sh:_AnimatorControllerPlayable_GetLayerName_m1429074517_AdjustorThunk
mCk:b124
pCk:b127
oCk:b126
rCk:b129
Yjc:__Z52Register_UnityEngine_RectTransform_INTERNAL_get_rectv
$1:__Z21PostprocessStacktracePKcRN4core12basic_stringIcNS1_20StringStorageDefaultIcEEEE
Tkf:_List_1_ToArray_m2390522926_gshared
C1h:__ZL70TypeLibImportClassAttribute_t2390314680_CustomAttributesCacheGeneratorP21CustomAttributesCache
WAb:__ZN18StreamedBinaryReadILb0EE21TransferSTLStyleArrayI13dynamic_arrayI16SplashScreenLogoLj4EEEEvRT_17TransferMetaFlags
cVa:__ZNSt3__26vectorIPN9ShaderLab9SubShaderENS_9allocatorIS3_EEE21__push_back_slow_pathIKS3_EEvRT_
pse:_Array_InternalArray__ICollection_Remove_TisX509ChainStatus_t4278378721_m4127982424_gshared
gfc:__Z47Register_UnityEngine_Camera_get_allCamerasCountv
Zsd:___clang_call_terminate
lke:_Decimal_GetBits_m3520401316
fnd:__ZN22BaseUnityConnectClient20StartEventDispatcherEv
J8b:__ZNSt3__26vectorIj13stl_allocatorIjL18MemLabelIdentifier1ELi16EEE6assignIPKtEENS_9enable_ifIXaasr21__is_forward_iteratorIT_EE5valuesr16is_constructibleIjNS_15iterator_traitsIS9_E9referenceEEE5valueEvE4typeES9_S9_
fB:__ZN7mecanim9animation16EvaluateAvatarIKEPKNS0_14AvatarConstantEPKNS0_11AvatarInputEPNS0_12AvatarOutputEPNS0_12AvatarMemoryEPNS0_15AvatarWorkspaceEb
vJa:__ZL25ProgramUniformMatrix4x3fvPK7ApiGLESjiihPKv
bdb:__Z29StdTemplateConversionFunctionIsiEbPvR14SafeBinaryRead
Ljh:_PlayableGraph_INTERNAL_CALL_CreateScriptOutputInternal_m348659249
iVa:__ZN12InputManager13InputEndFrameEv
lae:_SyncHashtable__ctor_m2029869827
rNj:__ZNSt3__26__treeIP11Il2CppClassNS_4lessIS2_EENS_9allocatorIS2_EEE25__emplace_unique_key_argsIS2_JRKS2_EEENS_4pairINS_15__tree_iteratorIS2_PNS_11__tree_nodeIS2_PvEEiEEbEERKT_DpOT0_
$_j:__ZN6il2cpp2vm6Thread5SetupEP12Il2CppThread
IFf:_ReadOnlyCollection_1_System_Collections_IList_Remove_m2200089035_gshared
$rf:_Collection_1_CheckWritable_m2756357359_gshared
pok:___munmap
pWd:_InputField_get_characterLimit_m2386380888
ayi:__ZL68ColorBlock_t2652774230_CustomAttributesCacheGenerator_m_PressedColorP21CustomAttributesCache
kfe:_Convert_ToInt64_m1722087499
og:_localtime_r
EHc:__ZN14ParticleSystem13KillParticlesILb1EEEvRjbR24ParticleSystemUpdateDataR23ParticleSystemParticlesjPj
D7h:__ZL81AppDomain_t2719102437_CustomAttributesCacheGenerator_assembly_resolve_in_progressP21CustomAttributesCache
Ujh:_PlayableHandle_GetInputCount_m3249715311
NQ:__ZN4FMOD5Sound11getDefaultsEPfS1_S1_Pi
o1h:__ZL65InterfaceTypeAttribute_t4113096249_CustomAttributesCacheGeneratorP21CustomAttributesCache
qg:_strftime
kia:__ZN7Texture33SetStoredColorSpaceNoDirtyNoApplyE17TextureColorSpace
u6:__ZN12FileAccessorD2Ev
Yna:__ZN10ColorRGBAf8TransferI18StreamedBinaryReadILb0EEEEvRT_
yvb:__ZN14VertexDataInfoC2Ev
Aoe:_Exception_GetObjectData_m2653827630
Dhi:__ZL75Mesh_t1356156583_CustomAttributesCacheGenerator_Mesh_HasChannel_m3616583481P21CustomAttributesCache
Cij:_Vector3_Equals_m2692262876_AdjustorThunk
_Yi:_InternalEnumerator_1_get_Current_m2415979394_gshared
sPb:__ZL17Transfer_GUIStyleI18StreamedBinaryReadILb1EELb1EEvRK29SerializationCommandArgumentsR31RuntimeSerializationCommandInfo
AHc:__ZNSt3__227__insertion_sort_incompleteIR31SortCollisionEventsByGameObjectP22ParticleCollisionEventEEbT0_S5_T_
hIi:_ScrollRect_SetDirtyCaching_m1491302821
Yjh:_PlayableHandle_SetInputCount_m2001045454
MNj:__ZN6il2cpp6icalls8mscorlib6SystemL9IsPrivateEPK12PropertyInfo
SBg:__Z72RuntimeInvoker_DateTime_t693205669_DateTime_t693205669_Int32_t2071877448PFvvEPK10MethodInfoPvPS4_
nYg:_CustomAttributeData_GetCustomAttributes_m3258419955
d1:__ZN9shadertag10InitializeEv
QZa:__ZN13BatchRenderer20RenderSingleWithPassER17ShaderPassContextPK18SharedMaterialDataP6ShaderPN9ShaderLab4PassEiPKNS7_10GrabPassesEjib15BatchBreakCause
nTg:__Z71RuntimeInvoker_CustomAttributeNamedArgument_t94157543_Int32_t2071877448PFvvEPK10MethodInfoPvPS4_
jGd:_EncoderFallback__ctor_m1639180960
V3i:_InternalEnumerator_1_MoveNext_m1441038493_gshared
Lsb:__ZN15QualitySettings14QualitySetting8TransferI24GenerateTypeTreeTransferEEvRT_
Wye:_Array_InternalArray__ICollection_CopyTo_TisParameterModifier_t1820634920_m4127516211_gshared
GFd:_DecoderReplacementFallback__ctor_m2344783488
qWg:_OutOfMemoryException__ctor_m239206850
KSd:_GraphicRegistry_UnregisterGraphicForCanvas_m820096873
bfd:__Z28Font_Get_Custom_PropMaterialP12Il2CppObject
Ehk:__ZN6il2cpp6icalls8mscorlib6System9Threading16NativeEventCalls19ResetEvent_internalE12Il2CppIntPtr
BDg:__Z88RuntimeInvoker_RuntimeObject_RuntimeObject_RuntimeObject_RuntimeObject_Int32_t2071877448PFvvEPK10MethodInfoPvPS4_
BPc:__ZL34CleanupModule_PerformanceReportingv
$tf:_Collection_1_Remove_m4136193368_gshared
uId:_EventTrigger_OnPointerUp_m2791622548
dTg:__Z60RuntimeInvoker_DictionaryEntry_t3048875398_Int32_t2071877448PFvvEPK10MethodInfoPvPS4_
qKi:_Shadow_set_useGraphicAlpha_m141905402
S7b:__ZN22BlockMemoryCacheWriter14LockCacheBlockEjPPhS1_
Fui:__ZL106PlayableExtensions_t2358977238_CustomAttributesCacheGenerator_PlayableExtensions_SetInputCount_m3394969154P21CustomAttributesCache
$nc:__ZNSt3__218__insertion_sort_3IRPFbPKN5IMGUI9GUIWindowES4_EPPS2_EEvT0_SA_T_
Hng:_UInt16_ToString_m2038947049
kvj:_GenericEqualityComparer_1_Equals_m1109000020_gshared
wqi:__ZL61GUISkin_t1436893342_CustomAttributesCacheGenerator_m_textAreaP21CustomAttributesCache
dxc:__Z22TransferField_NonArrayI8JSONRead27Converter_SimpleNativeClassI8GUIStyleEEvRK23StaticTransferFieldInfoR31RuntimeSerializationCommandInfoRT0_
hIj:__ZN15dense_hashtableI10KeyWrapperIPK19Il2CppGenericMethodES4_N6il2cpp8metadata23Il2CppGenericMethodHashEN14dense_hash_setIS4_S7_NS4_14EqualsComparerINS6_26Il2CppGenericMethodCompareEEENSt3__29allocatorIS4_EEE8IdentityESB_SE_E16reset_thresholdsEv
Sdf:__ZN23InterfaceActionInvoker2IP24ObjectU5BU5D_t3614634134iE6InvokeEjP11Il2CppClassP12Il2CppObjectS1_i
Wg:_llvm_eh_typeid_for
E5b:__Z13RegisterClassI10GameObjectEvv
mJj:__ZNK15dense_hashtableINSt3__24pairIK10KeyWrapperIN6il2cpp5utils13dynamic_arrayIPK10Il2CppTypeLj4EEEEPFvvEEESA_NS3_8metadata19Il2CppSignatureHashEN14dense_hash_mapISA_SD_SG_NSA_14EqualsComparerINSF_22Il2CppSignatureCompareEEENS0_9allocatorISE_EEE9SelectKeyESK_SM_E5beginEv
tZh:__ZL53HashValues_t2390200547_CustomAttributesCacheGeneratorP21CustomAttributesCache
YZf:_X509BasicConstraintsExtension_get_PathLengthConstraint_m3004531343
Fsh:_AnimatorControllerPlayable_INTERNAL_CALL_ResetTriggerString_m2112584758
Ty:__ZNK23AnimationPlayableOutput7GetTypeEv
b$h:__ZL125GenericTypeParameterBuilder_t1370236603_CustomAttributesCacheGenerator_GenericTypeParameterBuilder_GetConstructors_m103067670P21CustomAttributesCache
rmh:_Rect_get_max_m96665935
Gni:__ZL139AnimatorControllerPlayable_t1744083903_CustomAttributesCacheGenerator_AnimatorControllerPlayable_INTERNAL_CALL_HasStateInternal_m2282151484P21CustomAttributesCache
UWe:_MissingMemberException__ctor_m4277447068
Zdf:_List_1_Find_m1881447651_gshared
E6g:_StrongNameKeyPair_System_Runtime_Serialization_ISerializable_GetObjectData_m1693082120
VVf:_NameValueCollection__ctor_m1767369537
nRb:__Z18Transfer_BlittableI18StreamedBinaryReadILb0EELb1E8Vector4fEvRK29SerializationCommandArgumentsR31RuntimeSerializationCommandInfo
suj:_EqualityComparer_1__ctor_m3155445483_gshared
K9j:__ZN6il2cpp2vm6Method8GetParamEPK10MethodInfoj
vOe:_Int64_CompareTo_m1953686218
Huj:_GenericComparer_1__ctor_m221205314_gshared
kNg:__Z31RuntimeInvoker_Axis_t2427050347PFvvEPK10MethodInfoPvPS4_
t2j:__ZN6il2cpp6icalls8mscorlib6System2IO6MonoIO4ReadE12Il2CppIntPtrP11Il2CppArrayiiPi
_Ak:_glBindVertexArray__wrapper
qdg:_DSA_Create_m3450041777
Vma:__ZN8Material8TransferI14SafeBinaryReadEEvRT_
lDh:_Debug_LogWarningFormat_m79553173
wob:__ZN12CubemapArray17UploadToGfxDeviceEv
JIi:_ScrollRect_AdjustBounds_m1033723448
Wog:_UInt64_System_IConvertible_ToInt32_m930227577
nra:__ZN6prcoreL17RemapGenericFloatI15TexFormatRGHalf17TexFormatRGBAHalfEEvPKNS_9InnerInfoE
qbf:_Enumerator_System_Collections_IEnumerator_Reset_m2200349770_gshared
Ixf:_Collection_1_get_Item_m3791221403_gshared
R4h:__ZL54PaddingMode_t3032142640_CustomAttributesCacheGeneratorP21CustomAttributesCache
L_j:__ZN24dense_hashtable_iteratorINSt3__24pairIK10KeyWrapperIP11Il2CppClassES4_EES5_N6il2cpp8metadata16SZArrayClassHashEN14dense_hash_mapIS5_S4_SA_NS5_14EqualsComparerINS9_19SZArrayClassCompareEEENS0_9allocatorIS7_EEE9SelectKeyESE_SG_E30advance_past_empty_and_deletedEv
lWg:_OrdinalComparer__ctor_m2952942058
K_f:_X509Chain_CheckRevocationOnChain_m2441901351
Ndk:__ZN6il2cpp2vm13ManagedObject14QueryInterfaceERK10Il2CppGuidPPv
fmg:_Type_GetMethod_m3650909507
YJ:__ZN11AudioSource4StopEb
Smk:_frexp
mIb:__ZN14SafeBinaryRead21TransferSTLStyleArrayI13dynamic_arrayI10Matrix4x4fLj4EEEEvRT_17TransferMetaFlags
Nxf:_Collection_1_CheckWritable_m732350052_gshared
I2d:_Byte_System_IConvertible_ToDecimal_m1036493607
t7h:__ZL47Timer_t791717973_CustomAttributesCacheGeneratorP21CustomAttributesCache
eha:__Z25GetSplashScreenBackgroundRK5RectTIfE
aca:__ZN14dense_hash_mapIPKcPK4RTTIN11TypeManager23ConstCharPtrHashFunctorENS5_19ConstCharPtrEqualToE13stl_allocatorINSt3__24pairIKS1_S4_EEL18MemLabelIdentifier6ELi16EEEixERSB_
hzi:__ZL65Image_t2042527209_CustomAttributesCacheGenerator_m_PreserveAspectP21CustomAttributesCache
kqd:__ZN13RuntimeStaticI19UnityConnectServiceLb0EE16StaticInitializeEPv
t4i:_DefaultComparer_Compare_m1247109616_gshared
T6g:_ResourceManager__ctor_m498829021
CNa:__ZN18GlslGpuProgramGLESD2Ev
cbb:__ZN13RenderTexture14SetVolumeDepthEi
pQg:__Z88RuntimeInvoker_Int32_t2071877448_UIVertex_t1204258818_UIVertex_t1204258818_RuntimeObjectPFvvEPK10MethodInfoPvPS4_
C9f:_SerializationCallbacks__ctor_m722356782
Jxc:__ZN10Matrix4x4f8TransferI8JSONReadEEvRT_
iXc:__ZThn4_N16PhysicsManager2D9PostSolveEP9b2ContactPK16b2ContactImpulse
p1h:__ZL49Marshal_t785896760_CustomAttributesCacheGeneratorP21CustomAttributesCache
V2:__ZN17PersistentManager18ReadObjectThreadedEi
REa:__ZN25TransformFeedbackSkinning31CleanupTransformFeedbackShadersEv
gek:__ZN6il2cpp6icalls8mscorlib6System7Runtime16CompilerServices14RuntimeHelpers15InitializeArrayEP11Il2CppArray12Il2CppIntPtr
TYa:__Z22scripting_object_unbox18ScriptingObjectPtr
c2c:__ZNK20TextRenderingPrivate8FontImpl19GetCharacterAdvanceEjijfPj
Vjk:__ZN6il2cpp6icalls8mscorlib4Mono8Security12Cryptography18KeyPairPersistence16_IsUserProtectedEP12Il2CppString
Zwh:_AudioClipPlayable_Equals_m2497502457
EDf:_ReadOnlyCollection_1_Contains_m3936562733_gshared
kWf:_DefaultUriParser__ctor_m4218024811
NZg:_DerivedType_GetField_m3960169619
Yje:_Decimal_System_IConvertible_ToInt16_m3159038792_AdjustorThunk
Wrg:__Z59RuntimeInvoker_Int64_t909078037_RuntimeObject_RuntimeObjectPFvvEPK10MethodInfoPvPS4_
STg:__Z41RuntimeInvoker_KeyValuePair_2_t3716250094PFvvEPK10MethodInfoPvPS4_
Qtb:__ZN10VertexData8TransferI18StreamedBinaryReadILb0EEEEvRT_
ILg:__Z73RuntimeInvoker_Single_t2076509932_Vector4_t2243707581_Vector4_t2243707581PFvvEPK10MethodInfoPvPS4_
v6e:_PKCS12_GetExistingParameters_m2413397265
HBj:_Nullable_1_get_Value_m1743067844_gshared
_vf:_Collection_1_ClearItems_m4268731177_gshared
obb:__ZN14PreloadManager16UpdatePreloadingEv
sjb:__ZN12BaseRendererD2Ev
byk:_emscripten_glGenVertexArrays__wrapper
CBc:__ZN11NoiseModule8TransferI14SafeBinaryReadEEvRT_
qcf:_Enumerator__ctor_m425576865_AdjustorThunk
FFf:_ReadOnlyCollection_1_System_Collections_IList_Contains_m1545447998_gshared
ibk:__ZN14dense_hash_mapI10KeyWrapperIPK19Il2CppGenericMethodEP10MethodInfoN6il2cpp8metadata23Il2CppGenericMethodHashENS4_14EqualsComparerINS8_26Il2CppGenericMethodCompareEEENSt3__29allocatorINSD_4pairIKS4_S6_EEEEEC2EjRKS9_RKSC_
FCi:__ZL79LayoutRebuilder_t2155218138_CustomAttributesCacheGenerator_U3CU3Ef__mgU24cache0P21CustomAttributesCache
tgb:__ZNK21UnityDefaultAllocatorI17LowLevelAllocatorE8ContainsEPKv
bMj:__ZNSt3__213__vector_baseI6pollfdNS_9allocatorIS1_EEED2Ev
rOf:_ClientSessionInfo_get_Id_m3046630969
di:_emscripten_get_main_loop_timing
RQe:_DirectoryInfo__ctor_m3750996792
ZMd:_BaseMeshEffect_ModifyMesh_m2134816219
aCe:_Array_qsort_TisVector2_t2243707579_m3527759534_gshared
Ffi:__ZL89GameObject_t1756533147_CustomAttributesCacheGenerator_GameObject_GetComponent_m3775849122P21CustomAttributesCache
Ksb:__ZN24GenerateTypeTreeTransfer21TransferSTLStyleArrayINSt3__26vectorIN15QualitySettings14QualitySettingENS1_9allocatorIS4_EEEEEEvRT_17TransferMetaFlags
$cj:_ResourceRequest_t2560315377_marshal_pinvoke_cleanup
aGe:_Array_InternalArray__get_Item_TisAnimatorClipInfo_t3905751349_m2163447872_gshared
blf:_List_1_System_Collections_Generic_IEnumerableU3CTU3E_GetEnumerator_m166627113_gshared
ozb:__ZNSt3__26vectorI9InputAxisNS_9allocatorIS1_EEE6resizeEj
xve:__ZN21InterfaceFuncInvoker2Ii19Vector2_t2243707579S0_E6InvokeEjP11Il2CppClassP12Il2CppObjectS0_S0_
XZa:__ZN13BatchRendererC2ER15RenderLoopStatsRK15RenderNodeQueuebbb
Qzd:_SecurityElement_IsValidAttributeValue_m483287146
YYb:__ZNK2UI13RectTransform22GetTypeVirtualInternalEv
eBc:__ZNK15PolynomialCurve18EvaluateIntegratedERKN4math7_float4E
H7h:__ZL56AppDomainSetup_t611332832_CustomAttributesCacheGeneratorP21CustomAttributesCache
Cp:getTempRet0
lAc:__ZN26SizeModulePropertyBindings13GetFloatValueERK14ParticleSystemi
dPg:__Z79RuntimeInvoker_Boolean_t3825574718_ContentTypeU26_t1802785839_Int32_t2071877448PFvvEPK10MethodInfoPvPS4_
FXg:_AssemblyTitleAttribute__ctor_m1696431446
zVd:_Image_AddQuad_m1603575622
Obk:__ZN24dense_hashtable_iteratorINSt3__24pairIK10KeyWrapperIPK19Il2CppGenericMethodEP10MethodInfoEES6_N6il2cpp8metadata23Il2CppGenericMethodHashEN14dense_hash_mapIS6_S9_SD_NS6_14EqualsComparerINSC_26Il2CppGenericMethodCompareEEENS0_9allocatorISA_EEE9SelectKeyESH_SJ_E30advance_past_empty_and_deletedEv
GKf:_PrivateKeyInfo_RemoveLeadingZero_m3396807048
uzf:_ReadOnlyCollection_1_System_Collections_Generic_ICollectionU3CTU3E_get_IsReadOnly_m1251192075_gshared
Qdf:_List_1_GrowIfNeeded_m185971996_gshared
W$j:__ZN6il2cpp6icalls8mscorlib6System9ThreadingL21lookup_cached_cultureEP12Il2CppThreadi
x4a:__ZN18DeferredRenderLoopD2Ev
S$g:_GenericTypeParameterBuilder_GetMethods_m1243855818
Fja:__ZNK16TypeTreeIterator4NameEv
wui:__ZL90PlayableBinding_t2498078091_CustomAttributesCacheGenerator_U3CstreamTypeU3Ek__BackingFieldP21CustomAttributesCache
PVh:__ZL40UIntPtr_t_CustomAttributesCacheGeneratorP21CustomAttributesCache
U5:__ZN15FileSystemEntry3SetEPKc
cQj:_il2cpp_method_has_attribute
u3i:_InternalEnumerator_1__ctor_m2808001655_gshared
gud:_MACTripleDES__ctor_m884945242
yL:__ZN20SoundChannelInstance15ParameterBuffer5ApplyEPN4FMOD7ChannelE
qqh:_AnimationMixerPlayable_GetHandle_m277863172_AdjustorThunk
bxj:__ZL24UnresolvedVirtualCall_52P12Il2CppObjectPK10MethodInfo
$1c:__ZN20TextRenderingPrivate19NativeTextGenerator9InsertTabEv
dWh:__ZL73Enum_t2459695545_CustomAttributesCacheGenerator_Enum_ToObject_m1688724857P21CustomAttributesCache
o9g:_Rect_set_y_m4294916608
snd:__ZN11UnityEngine15PlatformWrapper24GetRuntimePlatformStringEv
Oi:_glIsEnabled
bTb:__ZN15CacheWriterBaseD2Ev
sBi:__ZL56Slider_t297367283_CustomAttributesCacheGenerator_m_ValueP21CustomAttributesCache
tck:__ZNSt3__212basic_stringIDsNS_11char_traitsIDsEENS_9allocatorIDsEEE9push_backEDs
YDb:__Z25scripting_class_get_image17ScriptingClassPtr
kii:__ZL85Material_t193706927_CustomAttributesCacheGenerator_Material_GetTextureImpl_m623159197P21CustomAttributesCache
iLc:__ZN8UVModuleD0Ev
Si:_emscripten_glDrawElementsInstanced
Kx:__ZN26AnimatorControllerPlayable27SetupStateMachineBehavioursEv
gJf:_ARC4Managed_Dispose_m4102232694
AJf:_HMAC_Initialize_m3052649104
rxa:__ZN18JobBatchDispatcherD2Ev
TYb:__ZN9Transform17MainThreadCleanupEv
qgk:_GC_clear_hdr_marks
Wvk:_glScissor__wrapper
WBk:_emscripten_glCreateShader__wrapper
bWd:_InputField_get_caretSelectPositionInternal_m3523572533
aad:_cff_fd_select_get
V0h:__ZL73CompilationRelaxationsAttribute_t238494011_CustomAttributesCacheGeneratorP21CustomAttributesCache
ypi:__ZL95CanvasRenderer_t261436805_CustomAttributesCacheGenerator_CanvasRenderer_SetMaterial_m1462355522P21CustomAttributesCache
rMi:_Text_get_minHeight_m1562513104
Txd:_SHA512Managed_processBlock_m3220567420
zVf:_NameObjectCollectionBase_get_Keys_m446053925
aj:_emscripten_glGetShaderiv
cJh:_Transform_1__ctor_m353209818_gshared
DNg:__Z30RuntimeInvoker_Axis_t375128448PFvvEPK10MethodInfoPvPS4_
AM:__ZN4FMOD6System10getVersionEPj
qRe:_FileLoadException_GetObjectData_m2047020314
Jsi:__ZL96RemoteSettings_t392466225_CustomAttributesCacheGenerator_RemoteSettings_CallOnUpdate_m1624968574P21CustomAttributesCache
Gwe:_Array_InternalArray__IndexOf_TisSByte_t454417549_m1427585061_gshared
Kfd:__ZN2UI6Canvas23VirtualRedirectTransferER24GenerateTypeTreeTransfer
rce:_Decimal_u64_m3991988111
Djj:_YieldInstruction_t3462875981_marshal_pinvoke
nnj:_Predicate_1_BeginInvoke_m2959352225_gshared
CPh:_Dictionary_2_CopyToCheck_m2147716750_gshared
Kkj:_X509Certificate_Parse_m1764345628
J0c:__ZN13TextRendering4Font13AwakeFromLoadE17AwakeFromLoadMode
YLg:__Z70RuntimeInvoker_Void_t1841601450_Guid_t_RuntimeObject_Int32_t2071877448PFvvEPK10MethodInfoPvPS4_
NBa:__ZN9GfxDevice21ReleaseSharedMeshDataEP14SharedMeshData
K7e:_SmallXmlParser_Peek_m2814840810
dAb:__ZNSt3__27__sort5IRNS_6__lessINS_4pairIPKN5Unity4TypeE7Hash128EES8_EEPS8_EEjT0_SC_SC_SC_SC_T_
Lae:_Enumerator_Reset_m466659019
hpj:_UnityAction_1_EndInvoke_m2822290096_gshared
xfk:_GC_unreachable_finalize_mark_proc
fyh:_AudioPlayableOutput_op_Implicit_m530962771
VNg:__Z70RuntimeInvoker_Single_t2076509932_Int32_t2071877448_Single_t2076509932PFvvEPK10MethodInfoPvPS4_
fPg:__Z77RuntimeInvoker_Boolean_t3825574718_InputTypeU26_t4050577942_Int32_t2071877448PFvvEPK10MethodInfoPvPS4_
ik:_emscripten_glGetProgramiv
DTi:_ConstructionCall_GetObjectData_m3974358557
Qjc:__Z43RectTransform_CUSTOM_INTERNAL_get_anchorMaxP12Il2CppObjectP13Vector2fIcall
Ctg:__Z50RuntimeInvoker_Void_t1841601450_Single_t2076509932PFvvEPK10MethodInfoPvPS4_
cje:_DateTimeOffset_get_DateTime_m229084964_AdjustorThunk
Ima:__ZN8Material28UpdateHashesOnPropertyChangeEN9ShaderLab16FastPropertyNameE
Akc:__Z53Register_UnityEngine_SortingLayer_GetLayerValueFromIDv
pbf:_Enumerator__ctor_m3512622280_AdjustorThunk
utj:_EqualityComparer_1_System_Collections_IEqualityComparer_Equals_m349194518_gshared
Q7d:_CaseInsensitiveComparer_Compare_m1192858479
mGb:__Z18Transfer_BlittableI14SafeBinaryReadLb1E8Vector4fEvRK29SerializationCommandArgumentsR31RuntimeSerializationCommandInfo
$Te:_StreamAsyncResult_set_Done_m4272090534
UZd:_LayoutRebuilder_Clear_m2390054824
evf:_Collection_1_System_Collections_IList_Insert_m2968289909_gshared
WDa:__ZN13GfxDeviceGLES20SetComputeBufferDataE15ComputeBufferIDPKvjj
ZXg:_Default_SelectMethod_m622251293
GO:__ZN11AudioSource12AddToManagerEv
Gs:__ZN8Animator23VirtualRedirectTransferER19StreamedBinaryWriteILb0EE
jTi:_AsyncResult_get_NextSink_m1172723924
oz:__ZN11UnityEngine9Animation32CreateAnimatorGenericBindingsOptERKNS0_20AnimationSetBindingsER9TransformPKN7mecanim9animation14AvatarConstantEPKNS0_21AvatarBindingConstantEbRNS6_6memory9AllocatorER8Animator
Y3j:__ZN6il2cpp2vm5Image13ClassFromNameEPK11Il2CppImagePKcS6_
Lrk:dynCall_vdddddd
$Vb:__ZN24GenerateTypeTreeTransfer21TransferSTLStyleArrayINSt3__26vectorIN9ShaderLab14SerializedPassENS1_9allocatorIS4_EEEEEEvRT_17TransferMetaFlags
P1:__ZL32MarkLevelGameManagerDependenciesR27GarbageCollectorThreadState
bEa:__ZNK13GfxDeviceGLES26HasActiveRandomWriteTargetEv
fsd:__ZN20UnityWebRequestProtoI19TransportJavaScript16AtomicRefCounter14RedirectHelper14ResponseHelper15DownloadHandler13UploadHandler12HeaderHelper14AsyncOperationE5BeginEv
Nwk:_glGetActiveUniformsiv__wrapper
xkc:__Z43Register_UnityEngine_Material_EnableKeywordv
Z3:__ZN13MonoBehaviour19SetupScriptingCacheE17ScriptingClassPtrP10MonoScript
uMj:__ZNSt3__214__split_bufferIP12Il2CppThreadRNS_9allocatorIS2_EEED2Ev
Jr:__Z20AnimationEventToMonoRK14AnimationEventR18MonoAnimationEvent
Ehi:__ZL85Mesh_t1356156583_CustomAttributesCacheGenerator_Mesh_ExtractArrayFromList_m1349408169P21CustomAttributesCache
G2:__ZNK15dense_hashtableINSt3__24pairIKiiEEi21InstanceIDHashFunctorN14dense_hash_mapIiiS4_NS0_8equal_toIiEE13stl_allocatorIS3_L18MemLabelIdentifier1ELi16EEE9SelectKeyES7_SA_E13find_positionERS2_
sFi:_Navigation_get_selectOnLeft_m3980387574_AdjustorThunk
ZHh:_ShimEnumerator_get_Current_m3610131784_gshared
Fof:_List_1_Sort_m2158253314_gshared
bui:__ZL74UnityEventBase_t828812576_CustomAttributesCacheGenerator_m_PersistentCallsP21CustomAttributesCache
Vaa:__ZZN15DirectorManager15InitializeClassEvEN52PreLateUpdateDirectorUpdateAnimationBeginRegistrator7ForwardEv
iQh:_DefaultComparer__ctor_m2265472997_gshared
X1j:__ZN6il2cpp2vm13LivenessState18ShouldProcessValueEP12Il2CppObjectP11Il2CppClass
Ehb:__ZN4PPtrI6SpriteE8TransferI14SafeBinaryReadEEvRT_
U_g:_EnumBuilder_GetElementType_m1228393631
Pyg:__Z52RuntimeInvoker_Void_t1841601450_TimeSpan_t3430258949PFvvEPK10MethodInfoPvPS4_
RZj:__ZN15dense_hashtableINSt3__24pairIK10KeyWrapperIP11Il2CppClassES4_EES5_N6il2cpp8metadata16SZArrayClassHashEN14dense_hash_mapIS5_S4_SA_NS5_14EqualsComparerINS9_19SZArrayClassCompareEEENS0_9allocatorIS7_EEE9SelectKeyESE_SG_E16reset_thresholdsEv
Wjh:_PlayableHandle_GetInputCountInternal_m2692879798
xVb:__ZNSt3__26vectorIN9ShaderLab14SerializedPassENS_9allocatorIS2_EEE8__appendEj
PUb:__ZNSt3__26vectorIN9ShaderLab20SerializedSubProgram13BufferBindingENS_9allocatorIS3_EEEC2INS_11__wrap_iterIPS3_EEEET_SB_RKS5_PNS_9enable_ifIXaasr21__is_forward_iteratorISB_EE5valuesr16is_constructibleIS3_NS_15iterator_traitsISB_E9referenceEEE5valueEvE4typeE
TOf:_Context_get_SupportedCiphers_m2172827298
pea:__ZNK13ScreenManager21IsMultiDisplayEnabledEv
XSc:__ZN12b2WheelJoint24SolveVelocityConstraintsERK12b2SolverData
bOg:__Z133RuntimeInvoker_RuntimeObject_Vector2_t2243707579_Vector2_t2243707579_Single_t2076509932_Int32_t2071877448_RuntimeObject_RuntimeObjectPFvvEPK10MethodInfoPvPS4_
Qpb:__ZN9Texture2D23VirtualRedirectTransferER18StreamedBinaryReadILb0EE
STc:__ZN10Collider2D8TransferI24GenerateTypeTreeTransferEEvRT_
Fme:_Double_System_IConvertible_ToUInt16_m286326038_AdjustorThunk
M7f:_TypeInfo__ctor_m1475908211
bHj:__ZN30dense_hashtable_const_iteratorINSt3__24pairIK10KeyWrapperIPKcEP11Il2CppClassEES5_N6il2cpp5utils11StringUtils12StringHasherIS4_EEN14dense_hash_mapIS5_S8_SE_NS5_14EqualsComparerINSB_13VmStringUtils21CaseSensitiveComparerEEENS0_9allocatorIS9_EEE9SelectKeyESJ_SL_E30advance_past_empty_and_deletedEv
ejb:__ZNSt3__26__treeINS_12__value_typeIN4core12basic_stringIcNS2_20StringStorageDefaultIcEEEEjEENS_19__map_value_compareIS6_S7_NS_4lessIS6_EELb1EEE13stl_allocatorIS7_L18MemLabelIdentifier6ELi16EEE7destroyEPNS_11__tree_nodeIS7_PvEE
F4:__ZN16ScriptingManager27NativeTypeForScriptingClassE17ScriptingClassPtr
L_f:_X509Chain_WrapUp_m1072032285
emj:_X509CertificateEnumerator_System_Collections_IEnumerator_MoveNext_m1448966539
c7c:_get_sfnt_table
mCj:_GameController_eliminarEnemigo_m1669800010
Nsf:_Collection_1_IsSynchronized_m3261594010_gshared
edh:_GUIStyle_GetNumCharactersThatFitWithinWidth_m3760066083
IJd:_PointerEventData_set_pressPosition_m2094137883
prb:__ZN8Renderer20RendererAddedToSceneEv
_cg:_DES_get_Key_m2584608215
L5a:__ZL22ScheduleSceneNodesJobsP25ScheduleSceneNodesJobDataj
Qk:_emscripten_set_canvas_size
i9d:_Hashtable__ctor_m741952536
fVb:__ZNSt3__26vectorIN9ShaderLab20SerializedSubProgramENS_9allocatorIS2_EEE8__appendEj
D_:__ZN20DynamicHeapAllocatorI17LowLevelAllocatorE8AllocateEji
vld:__ZN11UnityEngine9Analytics15UserCustomEvent12ToJsonStringER9JSONWrite
x_a:__ZN20DynamicPropertySheet15SetVectorQueuedERKN9ShaderLab16FastPropertyNameERK8Vector4fN19ShaderPropertySheet8SetFlagsE
nni:__ZL138AnimatorControllerPlayable_t1744083903_CustomAttributesCacheGenerator_AnimatorControllerPlayable_PlayInFixedTime_m1932606764____fixedTime2P21CustomAttributesCache
I6e:_PKCS12_get_IterationCount_m3572300030
Mwh:_DefaultExecutionOrder_get_order_m1561221759
qDf:_ReadOnlyCollection_1_System_Collections_IEnumerable_GetEnumerator_m4248982967_gshared
pA:__ZN7mecanim9animation22EvaluateAvatarRetargetEPKNS0_14AvatarConstantEPKNS0_11AvatarInputEPNS0_12AvatarOutputEPNS0_12AvatarMemoryEPNS0_15AvatarWorkspaceEb
c_d:_LayoutRebuilder_GetHashCode_m2745108660
Jmb:__ZN14RenderSettings23VirtualRedirectTransferER19StreamedBinaryWriteILb0EE
Xtc:__ZL26Transfer_SimpleNativeClassI9JSONWrite10RectOffsetLb0EEvRK29SerializationCommandArgumentsR31RuntimeSerializationCommandInfo
Ukh:_ScriptPlayableOutput_GetHandle_m849642920_AdjustorThunk
Ild:__ZN21UnityAnalyticsManager23VirtualRedirectTransferER24GenerateTypeTreeTransfer
oHa:__ZN17GenericDynamicVBO10AllocateVBEjR21DynamicVBOChunkHandle
off:_List_1_get_Item_m1547593893_gshared
CQe:_Path_GetPathRoot_m1269357080
x5j:__ZN30dense_hashtable_const_iteratorI10KeyWrapperIP18Il2CppGenericClassES3_N6il2cpp8metadata22Il2CppGenericClassHashEN14dense_hash_setIS3_S6_NS3_14EqualsComparerINS5_25Il2CppGenericClassCompareEEENSt3__29allocatorIS3_EEE8IdentityESA_SD_EppEv
Q8d:_KeyNotFoundException__ctor_m264393096
ZHd:_EventSystem_SetSelectedGameObject_m2211816110
oJh:_Transform_1__ctor_m4161450529_gshared
nl:_glMapBufferRange
Ipb:__ZN9Texture2D8TransferI18StreamedBinaryReadILb0EEEEvRT_
nhc:__Z31Input_CUSTOM_GetMouseButtonDowni
HDg:__Z41RuntimeInvoker_HandshakeState_t1820731088PFvvEPK10MethodInfoPvPS4_
qjc:__Z75Register_UnityEngine_Playables_PlayableHandle_INTERNAL_CALL_IsValidInternalv
x6b:__ZN13PlayableGraph4PlayEv
rYa:__ZNK9Transform16GetLocalPositionEv
Ygi:__ZL89Input_t1785128008_CustomAttributesCacheGenerator_Input_get_imeCompositionMode_m4250689464P21CustomAttributesCache
F_d:_Array_System_Collections_ICollection_get_Count_m2897196527
Aya:__ZN13LoadOperation19IntegrateTimeSlicedEi
sUi:_ArrayReadOnlyList_1_get_Item_m176001975_gshared
z2f:_InterpreterFactory__ctor_m3331468903
a7e:_X501__cctor_m3795360380
mEa:__ZN13GfxDeviceGLES22DispatchComputeProgramE12ObjectHandleI18ComputeProgram_TagPvE15ComputeBufferIDj
Cdh:_GUIStyle_set_contentOffset_m2138084868
Rsf:_Collection_1_System_Collections_ICollection_CopyTo_m4193844941_gshared
yzg:__Z60RuntimeInvoker_Void_t1841601450_StreamingContext_t1417235061PFvvEPK10MethodInfoPvPS4_
dfe:_Convert_ToInt32_m2297793940
Iwa:__Z17TransformAABBSlowRK4AABBRK10Matrix4x4fRS_
Dqb:__ZN15SerializeTraitsI13dynamic_arrayI7Hash128Lj8EEE19ResizeSTLStyleArrayERS2_i18MemLabelIdentifier
LYj:__ZN13Il2CppHashMapINSt3__24pairIPK9FieldInfoP11Il2CppClassEEj17ReflectionMapHashIS7_ENS0_8equal_toIS7_EENS0_9allocatorINS1_IK10KeyWrapperIS7_EjEEEEEC2EjRKS9_RKSB_
RTb:__ZN9ShaderLab21SerializedShaderState8TransferI14SafeBinaryReadEEvRT_
Xok:_ftruncate
Swd:_RSAPKCS1SignatureFormatter_SetKey_m2365816458
tMe:_Int16_GetHashCode_m304503362_AdjustorThunk
Zad:_cf2_stack_pushInt
zD:__ZN7mecanim9animation20DestroyLayerConstantEPNS0_13LayerConstantERNS_6memory9AllocatorE
Lhg:_CompressedStack__ctor_m276924800
mJd:_ExecuteEvents_get_cancelHandler_m1964324668
Qna:__ZN15SerializeTraitsINSt3__24pairIN4core12basic_stringIcNS2_20StringStorageDefaultIcEEEES6_EEE8TransferI24GenerateTypeTreeTransferEEvRS7_RT_
vkh:_PlayableOutput__ctor_m3826671654_AdjustorThunk
dgh:_Matrix4x4__ctor_m2771358574_AdjustorThunk
nqi:__ZL70GUISettings_t622856320_CustomAttributesCacheGenerator_m_SelectionColorP21CustomAttributesCache
tyk:b81
syk:b80
tLa:__ZN7ApiGLES19CreateSparseTextureEjj14GraphicsFormatiiiiRiS1_S1_
j5:__ZN18ResourceImageGroup7CleanupEv
xyk:b85
wyk:b84
zyk:b87
yyk:b86
zq:__ZN11Quaternionf8TransferI24GenerateTypeTreeTransferEEvRT_
n0g:_GenericTypeParameterBuilder_get_DeclaringType_m1652924692
o4b:__ZN13ProduceHelperI4MeshLb0EE7ProduceE18MemLabelIdentifier18ObjectCreationMode
EKf:_PrivateKeyInfo_Decode_m1053025782
p0f:_X509ChainElementCollection_System_Collections_ICollection_CopyTo_m1467895312
d6e:_PKCS12_Decrypt_m2457743414
joi:__ZL87Animator_t69676727_CustomAttributesCacheGenerator_Animator_SetTriggerString_m2002790359P21CustomAttributesCache
vnb:__ZN8Playable19SetOutputConnectionEPS_i
sGj:__ZN15dense_hashtableINSt3__24pairIK10KeyWrapperIPK11Il2CppClassEPKcEES6_N6il2cpp5utils11PointerHashIS3_EEN14dense_hash_mapIS6_S9_SE_NS6_14EqualsComparerINS0_8equal_toIS5_EEEENS0_9allocatorISA_EEE9SelectKeyESJ_SL_EC2ERKSO_j
am:_glDeleteShader
voe:_Exception_GetType_m3898489832
ira:__ZN6prcoreL17RemapGenericFloatI15TexFormatRGHalf16TexFormatRGFloatEEvPKNS_9InnerInfoE
Spf:_Stack_1_Peek_m1548778538_gshared
Pyf:_Collection_1_System_Collections_IList_get_Item_m1995028750_gshared
b5i:_Comparer_1__cctor_m3112251759_gshared
ijj:_Vector4_Dot_m2285943745
nKi:_Shadow_set_effectColor_m3110056844
Sih:_Physics2D_GetColliderFromInstanceID_m95920619
Dcc:__Z27scripting_add_internal_callPKcPKv
kAe:_Array_InternalArray__Insert_TisUriScheme_t1876590943_m2728325409_gshared
Bqi:__ZL72GUISkin_t1436893342_CustomAttributesCacheGenerator_m_verticalSliderThumbP21CustomAttributesCache
vYj:__ZN13Il2CppHashMapINSt3__24pairIPK9EventInfoP11Il2CppClassEEj17ReflectionMapHashIS7_ENS0_8equal_toIS7_EENS0_9allocatorINS1_IK10KeyWrapperIS7_EjEEEEEC2EjRKS9_RKSB_
b6j:__GLOBAL__sub_I_GarbageCollector_cpp
C0:__Z17GetPlayerSettingsv
qVb:__ZNSt3__26vectorIN9ShaderLab20SerializedSubProgram16SamplerParameterENS_9allocatorIS3_EEE6assignIPS3_EENS_9enable_ifIXaasr21__is_forward_iteratorIT_EE5valuesr16is_constructibleIS3_NS_15iterator_traitsISA_E9referenceEEE5valueEvE4typeESA_SA_
QA:__ZN34BlobWriteTransferSTLStyleArrayImplI22OffsetPtrArrayTransferIiEEclERS1_17TransferMetaFlagsR9BlobWrite
rmj:_X509Store_CheckStore_m1027496478
p0h:__ZL82MethodBase_t904190842_CustomAttributesCacheGenerator_MethodBase_Invoke_m1075809207P21CustomAttributesCache
Xs:__ZN26AnimatorControllerPlayable18SetLayerAutoWeightEv
Rb:invoke_vffff
xpk:__ZNSt3__212basic_stringIcNS_11char_traitsIcEENS_9allocatorIcEEEC2ERKS5_jjRKS4_
nEd:_String_Contains_m4017059963
DDe:_Array_swap_TisCustomAttributeNamedArgument_t94157543_TisCustomAttributeNamedArgument_t94157543_m3600072996_gshared
Z3i:_DefaultComparer_Compare_m1606207039_gshared
Xhd:__ZN2UI14CanvasRenderer12SyncMaterialENS0_8SyncFlagE
Ymi:__ZL137AnimatorControllerPlayable_t1744083903_CustomAttributesCacheGenerator_AnimatorControllerPlayable_CrossFade_m3794224188____normalizedTime3P21CustomAttributesCache
Ijk:__ZN6il2cpp2vm9Parameter30GetDefaultParameterValueObjectEPK10MethodInfoPK13ParameterInfoPb
Osj:_Action_EndInvoke_m4281032350
G_b:__ZN15dense_hashtableINSt3__24pairIKN4core12basic_stringIcNS2_20StringStorageDefaultIcEEEE10vector_setI4PPtrI11SpriteAtlasENS0_4lessISB_EE13stl_allocatorISB_L18MemLabelIdentifier79ELi16EEEEES6_20StringHash32FunctionIS6_EN14dense_hash_mapIS6_SH_SK_NS0_8equal_toIS6_EESE_ISI_LSF_79ELi16EEE9SelectKeyESN_SO_E12maybe_shrinkEv
$Ae:_Array_InternalArray__set_Item_TisLabelData_t3712112744_m2253365137_gshared
R3g:_MonoCMethod_get_Attributes_m3914742834
R0i:_InternalEnumerator_1__ctor_m142220063_AdjustorThunk
dhh:_MonoBehaviour_Invoke_m666563676
qZg:_ConstructorBuilder_get_DeclaringType_m4264602248
TUe:_StringReader__ctor_m643998729
fXf:_IPv6Address_TryParse_m2220524278
NZd:_U3CDelayedSetDirtyU3Ec__Iterator0_System_Collections_Generic_IEnumeratorU3CobjectU3E_get_Current_m2210283424
Qii:__ZL86Time_t31991979_CustomAttributesCacheGenerator_Time_get_realtimeSinceStartup_m357614587P21CustomAttributesCache
V6c:_UNITY_tt_face_done_kern
xRi:_Context_get_DefaultContext_m2211922324
jYg:_CustomAttributeData_get_NamedArguments_m708818174
Aqc:__Z59GUIStyle_CUSTOM_Internal_GetNumCharactersThatFitWithinWidth13Il2Cpp_IntPtrP12Il2CppStringf
$vb:__ZN12BoneWeights48TransferI24GenerateTypeTreeTransferEEvRT_
VKf:_RSAManaged_GetPaddedValue_m2972141669
zG:__Z62AnimationPlayableOutput_CUSTOM_INTERNAL_CALL_InternalSetTargetR15HPlayableOutputP12Il2CppObject
lQf:_TlsServerCertificate_ProcessAsSsl3_m277089231
uue:_Array_InternalArray__IEnumerable_GetEnumerator_TisUInt16_t986882611_m3665860884_gshared
rga:__Z19scripting_gc_enablev
Nrd:__ZN20UnityWebRequestProtoI19TransportJavaScript16AtomicRefCounter14RedirectHelper14ResponseHelper15DownloadHandler13UploadHandler12HeaderHelper14AsyncOperationE9DoRequestEv
aUa:__ZZ23InitPlayerLoopCallbacksvEN41InitializationPlayerUpdateTimeRegistrator7ForwardEv
_8i:_AnchorInfo__ctor_m617409099
Gcb:__Z29StdTemplateConversionFunctionIihEbPvR14SafeBinaryRead
T$g:_GenericTypeParameterBuilder_GetMethodImpl_m528545634
Rjd:__Z55Register_UnityEngine_CanvasRenderer_DisableRectClippingv
e3f:_Interval_CompareTo_m2909556284_AdjustorThunk
uvb:__ZN14SafeBinaryRead21TransferSTLStyleArrayI13dynamic_arrayI11ColorRGBA32Lj4EEEEvRT_17TransferMetaFlags
Dui:__ZL61PlayableExtensions_t2358977238_CustomAttributesCacheGeneratorP21CustomAttributesCache
AOa:__ZN9GfxDevice22UploadTextureCubeArrayE9TextureIDPKhjii14GraphicsFormati18TextureUploadFlags
EWh:__ZL87RuntimeArray_CustomAttributesCacheGenerator_Array_CreateInstance_m679102425____lengths1P21CustomAttributesCache
Mui:__ZL83Logger_t3328995178_CustomAttributesCacheGenerator_Logger_get_logHandler_m4190583509P21CustomAttributesCache
Swh:_AudioClip_get_length_m3881628918
gFi:_Navigation_t1571958496_marshal_pinvoke
X1f:_Interpreter_GetLastDefined_m2450713313
Aqi:__ZL67GUISkin_t1436893342_CustomAttributesCacheGenerator_m_verticalSliderP21CustomAttributesCache
p8i:_Parser_ParseAssertionType_m3316669790
BXb:__ZN9ShaderLab7Program27CreateFromSerializedProgramERKNS_17SerializedProgramE10ShaderTypeiP16PropertyNamesSetPK6Shader
QJi:_Selectable_get_isPointerDown_m774209881
hWh:__ZL73Enum_t2459695545_CustomAttributesCacheGenerator_Enum_ToObject_m2460371738P21CustomAttributesCache
NYb:__ZNSt3__27__sort4IRNS_6__lessIN4core12basic_stringIcNS2_20StringStorageDefaultIcEEEES6_EEPS6_EEjT0_SA_SA_SA_T_
usk:dynCall_viiiifii
W7f:_TypeInfo__ctor_m1219583114
ZWj:__ZN6il2cpp2gc19AppendOnlyGCHashMapINSt3__24pairIPK11Il2CppImageP11Il2CppClassEEP22Il2CppReflectionModule17ReflectionMapHashIS9_ENS2_8equal_toIS9_EEEC2Ev
S2:__Z20GetPersistentManagerv
ked:_UNITY_TT_Set_Var_Design
wRi:_Context_Finalize_m1386439645
Jda:__ZN21SystemInfoStringCache16StaticInitializeEPv
qMf:_TlsStream__ctor_m4117943603
MTj:__ZN15dense_hashtableINSt3__24pairIK10KeyWrapperIPK10Il2CppTypeEjEES6_N6il2cpp8metadata14Il2CppTypeHashEN14dense_hash_mapIS6_jSB_NS6_14EqualsComparerINSA_26Il2CppTypeEqualityComparerEEENS0_9allocatorIS8_EEE9SelectKeyESF_SH_E12maybe_shrinkEv
FLi:_Text_FontTextureChanged_m4236993972
Bak:__ZN6il2cpp2gc16GarbageCollector23MakeDescriptorForObjectEPji
i6j:__ZNK10KeyWrapperIP12Il2CppObjectE14EqualsComparerINSt3__28equal_toIS1_EEEclERKS2_S9_
s6g:_ParameterModifier_t1820634920_marshal_pinvoke
_Cb:__ZNK13MonoBehaviour7GetNameEv
Ssa:__ZN19ScriptingInvocation28AdjustArgumentsToMatchMethodEv
J5j:__ZN15dense_hashtableI10KeyWrapperIP18Il2CppGenericClassES3_N6il2cpp8metadata22Il2CppGenericClassHashEN14dense_hash_setIS3_S6_NS3_14EqualsComparerINS5_25Il2CppGenericClassCompareEEENSt3__29allocatorIS3_EEE8IdentityESA_SD_E6insertERKS3_
FQ:__Z15_CheckFMODError11FMOD_RESULTPKciS1_
yGd:_AbstractEventData_Use_m1797212290
Zlb:__Z20RenderMultipleMeshesRK15RenderNodeQueueRK18RenderMultipleData17ShaderChannelMask
Byi:__ZL150U3CDelayedDestroyDropdownListU3Ec__Iterator0_t3461999471_CustomAttributesCacheGenerator_U3CDelayedDestroyDropdownListU3Ec__Iterator0_Reset_m3485957852P21CustomAttributesCache
Dsg:__Z199RuntimeInvoker_Void_t1841601450_ByteU2AU26_t3544685828_ByteU2AU26_t3544685828_DoubleU2AU26_t3349029_UInt16U2AU26_t1636670495_UInt16U2AU26_t1636670495_UInt16U2AU26_t1636670495_UInt16U2AU26_t1636670495PFvvEPK10MethodInfoPvPS4_
Uni:__ZL135AnimatorControllerPlayable_t1744083903_CustomAttributesCacheGenerator_AnimatorControllerPlayable_INTERNAL_CALL_SetTriggerID_m1169129620P21CustomAttributesCache
URj:__ZN6il2cpp2vm4Type19GetGenericParameterEPK10Il2CppType
OEc:__ZN11ShapeModule5ResetEv
rjd:__Z51Register_UnityEngine_CanvasGroup_get_blocksRaycastsv
s2i:_InternalEnumerator_1_get_Current_m2826780083_gshared
gCk:b119
KRi:_Context_UnregisterDynamicProperty_m4064851633
Gxc:__ZN8JSONRead21TransferSTLStyleArrayI13dynamic_arrayI11ColorRGBA32Lj4EEEEvRT_18MemLabelIdentifier17TransferMetaFlags
bDi:__ZL105LayoutUtility_t4076838048_CustomAttributesCacheGenerator_LayoutUtility_U3CGetMinHeightU3Em__4_m1769295917P21CustomAttributesCache
TPh:_Dictionary_2_GetEnumerator_m1752238884_gshared
gVj:__ZNK15dense_hashtableINSt3__24pairIK10KeyWrapperINS1_IPK11Il2CppImageP11Il2CppClassEEEjEES9_17ReflectionMapHashIS8_EN14dense_hash_mapIS9_jSD_NS9_14EqualsComparerINS0_8equal_toIS8_EEEENS0_9allocatorISB_EEE9SelectKeyESI_SK_E3endEv
cmh:_RaycastHit2D_get_collider_m2568504212
F3i:_InternalEnumerator_1__ctor_m2782443954_AdjustorThunk
Hd:_glBeginQuery
NWg:_Assembly_GetCustomAttributes_m95309865
z8g:_GUILayoutUtility_INTERNAL_CALL_Internal_GetWindowRect_m3236664463
X_c:__ZN10Effector2D25CheckEffectorColliderMaskEP10Collider2DS1_
VVa:__ZN6Camera12RenderStereoENS_10RenderFlagE8CullFlagPNS_24PerformEyeRenderFunctionE
tCi:__ZL73LayoutElement_t2808691390_CustomAttributesCacheGenerator_m_FlexibleHeightP21CustomAttributesCache
Iea:__ZN20LocalFileSystemPosix10ToAbsoluteEPKc
Plb:__ZN20TierGraphicsSettings8TransferI19StreamedBinaryWriteILb0EEEEvRT_
gce:_Convert_ToBoolean_m48997236
One:_Enum_ToObject_m275924358
Km:f0
Dp:__ZN6Object17MainThreadCleanupEv
W5d:_ArrayListWrapper_set_Capacity_m2792463350
olb:__Z32TransferEnumWithNameForceIntSizeI14SafeBinaryRead7HDRModeEvRT_RT0_PKc17TransferMetaFlags
Nnk:_getcwd
Pfg:_StringBuilder_Append_m1128243247
XXc:__ZN16b2CapsuleContact6CreateEP9b2FixtureiS1_iP16b2BlockAllocator
$8i:_AnchorInfo_get_Offset_m142119297
Rrh:_AnimatorControllerPlayable_GetBool_m3606320557
cgb:__ZN25ThreadsafeLinearAllocatorD2Ev
Tge:_DateTime_get_Year_m1985210972
Qga:__Z21SendMessageToEveryoneRK17MessageIdentifier11MessageData
ybh:_GUISkin_get_settings_m626844463
S8:__ZN21BillboardBatchManager16StaticInitializeEPv
Cbh:_Object_get_name_m2079638459
M$:__ZN12_GLOBAL__N_138ArchiveRedirectFileSystemStaticDestroyEPv
hoj:_InvokableCall_1_add_Delegate_m3048312905_gshared
moe:_EventHandler_Invoke_m1137722757
tob:__ZN12CubemapArray34UpdateFileTextureUploadInstructionEP26FileAssetUploadInstructionj
pYe:_MonoType_IsSubclassOf_m2211166238
M6g:_TypeFilter_EndInvoke_m997625354
nuf:_Collection_1_System_Collections_ICollection_CopyTo_m2859266050_gshared
sLa:__Z23CreateSparseTextureGLES9TextureIDii14GraphicsFormati
gzj:__ZL25UnresolvedVirtualCall_165P12Il2CppObject22UILineInfo_t3621277874PK10MethodInfo
Q4i:_Comparer_1__ctor_m2876014041_gshared
Agk:_GC_continue_reclaim
yPe:_InvalidCastException__ctor_m2730571470
q0f:_X509ChainElementCollection_System_Collections_IEnumerable_GetEnumerator_m2559704689
sbi:__ZL86BigInteger_t925946153_CustomAttributesCacheGenerator_BigInteger_op_Implicit_m622924526P21CustomAttributesCache
kyi:__ZL59Dropdown_t1985816271_CustomAttributesCacheGenerator_m_ValueP21CustomAttributesCache
D2f:_InterpreterFactory_set_Gap_m2761943153
GZf:_PublicKey_get_Key_m126090744
_$f:_X509ChainPolicy_Reset_m430244129
U2c:__ZNSt3__23mapIN20TextRenderingPrivate7FontRefEP11FT_FaceRec_NS_4lessIS2_EENS_9allocatorINS_4pairIKS2_S4_EEEEEixERS9_
XPa:__ZN17ArchiveFileSystem10AddStorageEP20ArchiveStorageReader
RDi:__ZL122U3CsoltarEnemigoU3Ec__Iterator0_t1187723817_CustomAttributesCacheGenerator_U3CsoltarEnemigoU3Ec__Iterator0_Reset_m20482497P21CustomAttributesCache
$xj:__ZL25UnresolvedVirtualCall_104P12Il2CppObjectS0_S0_S0_iPK10MethodInfo
BBh:_Color_Equals_m661618137
xEc:__ZN9SubModule8TransferI19StreamedBinaryWriteILb0EEEEvRT_
PAh:_CanvasRenderer_SplitIndicesStreamsInternal_m817541557
DRc:__ZNK12b2MotorJoint16GetReactionForceEf
vLj:__ZN6il2cpp2vm13MetadataCache37GetParameterDefaultValueDataFromIndexEi
kSh:_EqualityComparer_1_System_Collections_IEqualityComparer_GetHashCode_m1203798961_gshared
ari:__ZL89GUIStyle_t1799908754_CustomAttributesCacheGenerator_GUIStyle_AssignRectOffset_m2998103580P21CustomAttributesCache
GEj:__ZN6il2cpp2vm5Class15GetEnumBaseTypeEP11Il2CppClass
OQe:_DirectoryNotFoundException__ctor_m3713860966
apb:__ZNK9Texture2D16GetNpotTexelSizeEv
_Xi:_InternalEnumerator_1__ctor_m245588437_gshared
g1f:_Capture_get_Text_m3472127896
lEi:_Mask_get_rectTransform_m3304369086
Zfj:_TooltipAttribute__ctor_m2640804852
UIc:__Z20EvaluateSlowThreadedRK11MinMaxCurveRNS_5CacheERKN4math7_float4ES7_
ZLg:__Z78RuntimeInvoker_Void_t1841601450_ScriptableRenderContext_t4271526_RuntimeObjectPFvvEPK10MethodInfoPvPS4_
tHa:__ZN9GfxDevice22GetDefaultVertexBufferE26GfxDefaultVertexBufferTypej
Psf:_Collection_1__ctor_m3903788797_gshared
NCf:_ReadOnlyCollection_1_System_Collections_ICollection_CopyTo_m1129689124_gshared
dok:___fseeko_unlocked
Jyk:_glGetActiveUniform__wrapper
Xnk:_sscanf
xxf:_Collection_1_Contains_m1999290510_gshared
Ovb:__ZN14SafeBinaryRead21TransferSTLStyleArrayINSt3__26vectorI17BlendShapeChannelNS1_9allocatorIS3_EEEEEEvRT_17TransferMetaFlags
epa:__Z17BeginSplashScreenv
MWb:__ZN9ShaderLab16SerializedShader8TransferI19StreamedBinaryWriteILb0EEEEvRT_
Dng:_UInt32_Parse_m2400360707
HC:__ZN7mecanim9animation18CreateAvatarMemoryEPKNS0_14AvatarConstantERNS_6memory9AllocatorE
Ebe:_Stack_Pop_m3788808882
SFh:_Enumerator_VerifyCurrent_m4246196125_AdjustorThunk
POh:_Dictionary_2_pick_value_m3484897877_gshared
Die:_DateTime_op_Equality_m1867073872
zB:__ZN7mecanim8skeleton16SkeletonPoseCopyIN4math4trsXENS2_7affineXEEEvPKNS0_13SkeletonPoseTIT_EEPNS5_IT0_EE
Pgf:_List_1_CopyTo_m1916701891_gshared
pNb:__Z18Transfer_BlittableI19StreamedBinaryWriteILb0EELb0EaEvRK29SerializationCommandArgumentsR31RuntimeSerializationCommandInfo
_Ga:__ZN18GfxFramebufferGLES18GetFramebufferNameERK20GfxRenderTargetSetup
p2j:__ZN6il2cpp6icalls8mscorlib6System2IO6MonoIO11GetFileTypeE12Il2CppIntPtrPi
apc:__Z30Event_Get_Custom_PropCharacterP12Il2CppObject
uaa:__ZN13PlayableGraph27SchedulePlayableDestructionERK9HPlayable
Qvk:_glGetFramebufferAttachmentParameteriv__wrapper
Emi:__ZL145AnimatorControllerPlayable_t1744083903_CustomAttributesCacheGenerator_AnimatorControllerPlayable_INTERNAL_CALL_IsInTransitionInternal_m3428375524P21CustomAttributesCache
Wqd:__Z13RegisterClassI20UnityConnectSettingsEvv
iHb:__Z22scripting_array_length17ScriptingArrayPtr
Mzd:_SecurityElement_GetAttribute_m4288291176
Tbj:_UriParser_get_DefaultPort_m1377931533
arj:_IndexedSet_1_get_Count_m2839545138_gshared
hwa:__ZN14SafeBinaryRead20TransferTypelessDataEjPvi
W6g:_RenderPipelineManager_get_currentPipeline_m679160301
Y0h:__ZL66StringFreezingAttribute_t2691375565_CustomAttributesCacheGeneratorP21CustomAttributesCache
Psc:__ZN9rapidjson13GenericReaderINS_4UTF8IcEES2_13JSONAllocatorE10ParseFalseILj1ENS_25GenericInsituStringStreamIS2_EENS_15GenericDocumentIS2_S3_S3_EEEEvRT0_RT1_
Eph:_AnimationClipPlayable_INTERNAL_CALL_SetApplyFootIKInternal_m4116451205
vkf:_List_1_AddCollection_m3284813601_gshared
C8c:_Horizontal_Sweep_Init
JBi:__ZL102ToggleGroup_t1030026315_CustomAttributesCacheGenerator_ToggleGroup_U3CActiveTogglesU3Em__1_m4052653494P21CustomAttributesCache
YP:__ZN13dynamic_arrayI12SoundChannelLj4EE9push_backERKS0_
A0:__Z19GetActiveColorSpacev
LDc:__ZN17SizeBySpeedModule8TransferI18StreamedBinaryReadILb0EEEEvRT_
DSh:_EqualityComparer_1__cctor_m1672307556_gshared
f6f:_SoapTypeAttribute_get_IsInteropXmlElement_m2941294827
Syb:__ZN14SpriteRenderer18UpdateCachedSpriteEv
_bf:_Enumerator_System_Collections_IEnumerator_get_Current_m3542273247_gshared
l4d:_Char_System_IConvertible_ToUInt32_m1557991717_AdjustorThunk
Teg:_Encoding_get_UTF8Unmarked_m628720656
jIe:_NumberFormatter_RoundBits_m1545255255
h1:__Z6StrCmpPKcS0_
p1i:_InternalEnumerator_1_MoveNext_m2906956792_gshared
izg:__Z119RuntimeInvoker_Void_t1841601450_RuntimeObject_Int64U26_t763825331_ObjectU26_t597476745_SerializationInfoU26_t4051840202PFvvEPK10MethodInfoPvPS4_
jYb:__Z21CheckGpuProgramUsable20ShaderGpuProgramType
IXg:_Binder__cctor_m3736115807
T9j:__ZN6il2cpp2os9Directory20GetFileSystemEntriesERKNSt3__212basic_stringIcNS2_11char_traitsIcEENS2_9allocatorIcEEEESA_iiPi
lQg:__Z84RuntimeInvoker_Int32_t2071877448_Color32_t874517518_Color32_t874517518_RuntimeObjectPFvvEPK10MethodInfoPvPS4_
MPh:_Dictionary_2_OnDeserialization_m2160537783_gshared
G0d:_Attribute_GetHashCode_m2653962112
T1c:__ZN20TextRenderingPrivate19NativeTextGenerator5SetupEv
lTi:_AsyncResult_GetReplyMessage_m262842621
oaf:_Enumerator__ctor_m3021143890_AdjustorThunk
UAb:__ZN12AspectRatios8TransferI18StreamedBinaryReadILb0EEEEvRT_
MYh:__ZL66X509ExtensionCollection_t1640144839_CustomAttributesCacheGeneratorP21CustomAttributesCache
P5b:__ZN10GameObject14CopyPropertiesERS_
LHc:__ZN11ForceModule6UpdateERK27ParticleSystemReadOnlyStateRK19ParticleSystemStateR23ParticleSystemParticlesjjRKN4math7_float4E
drc:__Z44Register_UnityEngine_GUIStyle_get_fixedWidthv
lwd:_RSACryptoServiceProvider_Common_m2581564813
Skj:_X509CertificateEnumerator_MoveNext_m4060814498
yth:_AnimatorControllerPlayable_INTERNAL_CALL_GetCurrentAnimatorClipInfoInternal_m3360626147
TSe:_MemoryStream_CheckIfClosedThrowDisposed_m2253054610
QUi:_ArrayReadOnlyList_1_GetEnumerator_m634288642_gshared
Lbb:__ZNK13ScreenManager12IsFullScreenEv
yok:_rand
rwk:_emscripten_glFramebufferRenderbuffer__wrapper
tLg:__Z72RuntimeInvoker_Boolean_t3825574718_Ray_t2469606224_SingleU26_t4173844468PFvvEPK10MethodInfoPvPS4_
Pak:__ZN6il2cpp5utils9PathUtils7CombineIcEENSt3__212basic_stringIT_NS3_11char_traitsIS5_EENS3_9allocatorIS5_EEEERKNS0_10StringViewIS5_EERKSA_
SFf:_ReadOnlyCollection_1_GetEnumerator_m2481390116_gshared
Cwg:__Z77RuntimeInvoker_Void_t1841601450_RuntimeObject_Int32_t2071877448_RuntimeObjectPFvvEPK10MethodInfoPvPS4_
YHb:__ZN14SafeBinaryRead21TransferSTLStyleArrayINSt3__26vectorI17AnimationCurveTplIfE13stl_allocatorIS4_L18MemLabelIdentifier1ELi16EEEEEEvRT_17TransferMetaFlags
mec:__Z60Register_UnityEngine_AsyncOperation_set_allowSceneActivationv
eVj:__ZN15dense_hashtableINSt3__24pairIK10KeyWrapperINS1_IPK11Il2CppImageP11Il2CppClassEEEjEES9_17ReflectionMapHashIS8_EN14dense_hash_mapIS9_jSD_NS9_14EqualsComparerINS0_8equal_toIS8_EEEENS0_9allocatorISB_EEE9SelectKeyESI_SK_E12expand_arrayEjN21dense_hash_map_traits17integral_constantIbLb0EEE
Y8f:_ObjectManager_RegisterObject_m872610295
r5a:__Z22PrepareOptimizedPlanesPK5PlaneiPKN4math7_float4E
Xmh:_RectOffset_t3387826427_marshal_pinvoke
FSd:_Graphic_SetVerticesDirty_m1607014370
eZ:__ZN11UnityEngine15CloudWebService17WebFileDownloaderINS0_20WebRequestRestClientENS0_23WebRequestRestHeaderMapEE10InitializeERKN4core12basic_stringIcNS5_20StringStorageDefaultIcEEEE
Q8:__ZN17UniqueIDGenerator15CreatePureIndexEv
zrc:__Z59Register_UnityEngine_GUIStyle_Internal_GetCursorFlashOffsetv
rs:__ZN11UnityEngine9Animation28GenericAnimationBindingCache15DidReloadDomainEv
o8e:_AppDomain_InternalGetProcessGuid_m1278588156
UXd:_InputField_MoveRight_m386206014
bae:_HashValues_get_Count_m234926373
Kug:__Z116RuntimeInvoker_Boolean_t3825574718_RuntimeObject_Int32_t2071877448_RuntimeObject_Int32_t2071877448_Int32_t2071877448PFvvEPK10MethodInfoPvPS4_
UPe:_BinaryReader_ReadBoolean_m2892291883
WDj:__ZN15dense_hashtableINSt3__24pairIK10KeyWrapperIPK22Il2CppGenericParameterEP11Il2CppClassEES6_N6il2cpp5utils11PointerHashIS4_EEN14dense_hash_mapIS6_S9_SE_NS6_14EqualsComparerINS0_8equal_toIS5_EEEENS0_9allocatorISA_EEE9SelectKeyESJ_SL_E14squash_deletedEv
GBb:__ZNSt3__26__treeINS_12__value_typeIN4core12basic_stringIcNS2_20StringStorageDefaultIcEEEE4PPtrI6ObjectEEENS_19__map_value_compareIS6_SA_NS_4lessIS6_EELb1EEE13stl_allocatorISA_L18MemLabelIdentifier51ELi16EEE7destroyEPNS_11__tree_nodeISA_PvEE
NRc:__ZNK12b2MouseJoint17GetReactionTorqueEf
B4h:__ZL66DSASignatureDeformatter_t2187578719_CustomAttributesCacheGeneratorP21CustomAttributesCache
gnc:__Z14GUIClipTextureP9Texture2DPhiiii
wWi:_InternalEnumerator_1_Dispose_m1064404287_AdjustorThunk
BJa:__ZNSt3__26vectorI27ComputeShaderBuiltinSamplerNS_9allocatorIS1_EEE21__push_back_slow_pathIKS1_EEvRT_
oQf:_TlsServerCertificate_validateCertificates_m1988583701
yJg:__Z78RuntimeInvoker_Boolean_t3825574718_PlayableHandleU26_t4210769902_RuntimeObjectPFvvEPK10MethodInfoPvPS4_
aYh:__ZL61DllImportAttribute_t3000813225_CustomAttributesCacheGeneratorP21CustomAttributesCache
ktg:__Z66RuntimeInvoker_Int32_t2071877448_RuntimeObject_Int32U26_t455636984PFvvEPK10MethodInfoPvPS4_
Q0:__ZNK9Transform18TransformDirectionERK8Vector3f
cTa:__ZNK17ArchiveFileSystem12GetAssetGUIDERK13FileEntryData
aYb:__ZNSt3__26vectorIN9ShaderLab20SerializedSubProgram15MatrixParameterENS_9allocatorIS3_EEE21__push_back_slow_pathIKS3_EEvRT_
k9g:_GUILayoutEntry_SetHorizontal_m1828181654
wBk:_emscripten_glClearStencil__wrapper
_Sh:_EqualityComparer_1_get_Default_m1852501307_gshared
gKj:__ZN15dense_hashtableINSt3__24pairIK10KeyWrapperIPK11Il2CppClassEPKcEES6_N6il2cpp5utils11PointerHashIS3_EEN14dense_hash_mapIS6_S9_SE_NS6_14EqualsComparerINS0_8equal_toIS5_EEEENS0_9allocatorISA_EEE9SelectKeyESJ_SL_E12resize_deltaEjj
iqk:__ZNK10__cxxabiv120__si_class_type_info27has_unambiguous_public_baseEPNS_19__dynamic_cast_infoEPvi
VJe:_NumberFormatInfo_get_PercentNegativePattern_m1162448153
uZh:__ZL56SyncHashtable_t1343674558_CustomAttributesCacheGeneratorP21CustomAttributesCache
$Lj:__ZN6il2cpp2vm21ThreadPoolCompartment13QueueWorkItemEP17Il2CppAsyncResult
_tk:_glTexSubImage3D__wrapper
Xwf:_Collection_1_get_Item_m4215988522_gshared
s1f:_FactoryCache_Add_m2602974721
sHa:__Z30AddDefaultStreamsToMeshBuffersR9GfxDeviceR11MeshBuffersj17ShaderChannelMaskS3_
O7:__ZL16GetInterfaceImpl18UnityInterfaceGUID
eKe:_RegionInfo_construct_internal_region_from_name_m3316088619
ZEj:__ZN6il2cpp2vmL17SetupFieldOffsetsENS0_15FieldLayoutKindEP11Il2CppClassjRKNSt3__26vectorIjNS4_9allocatorIjEEEE
jtf:_Collection_1_GetEnumerator_m2816357893_gshared
vki:__ZL105RectTransform_t3349966182_CustomAttributesCacheGenerator_RectTransform_INTERNAL_get_anchorMin_m3180545469P21CustomAttributesCache
Ndf:_List_1_System_Collections_IList_get_Item_m936612973_gshared
Ick:__ZN6il2cpp6icalls8mscorlib6System15MonoCustomAttrs27GetCustomAttributesInternalEP12Il2CppObjectP20Il2CppReflectionTypeb
iyc:__ZN8JSONRead21TransferSTLStyleArrayI13dynamic_arrayI8Vector3fLj4EEEEvRT_18MemLabelIdentifier17TransferMetaFlags
g9f:_ObjectReader_ReadAssembly_m869834280
dsa:__ZN14PreloadManager35WaitForAllAsyncOperationsToCompleteEv
kFf:_ReadOnlyCollection_1_System_Collections_IList_get_Item_m1831743662_gshared
zyf:_Collection_1_IsSynchronized_m971497175_gshared
YId:_ExecuteEvents_Execute_m1617536317
CLi:_Text_get_cachedTextGeneratorForLayout_m1357670532
VK:__ZL31InitializeAudioScriptingClassesv
mYa:__Z14SortGUIByDepthP10GUIElementS0_
SMe:_NumberFormatter_NumberToString_m126384393
Vxk:_emscripten_glVertexAttrib4fv__wrapper
KGc:__Z19UpdateProceduralTplIL27ParticleSystemCurveEvalMode0EEvRK20DualMinMaxPolyCurvesR23ParticleSystemParticlesPfRKN4math7_float4E
STi:_LogicalCallContext__ctor_m3173272863
gC:__ZN12_GLOBAL__N_120ProcessRootMotionMixER33AnimationPlayableEvaluationOutputR35AnimationPlayableEvaluationConstantR32AnimationPlayableEvaluationInputS1_f
bXe:_MonoCustomAttrs__cctor_m2608447972
FMe:_Int32_FindSign_m3803672540
zGh:_Enumerator_System_Collections_IEnumerator_Reset_m70453843_AdjustorThunk
ubh:_GUISkin_get_scrollView_m2941173958
mOg:__Z95RuntimeInvoker_Void_t1841601450_ObjectU5BU5DU26_t3223402458_Int32_t2071877448_Int32_t2071877448PFvvEPK10MethodInfoPvPS4_
sfa:__ZNK20LocalFileSystemPosix21GetAvailableDiskSpaceEPKcRy
Mda:__ZNSt3__26__treeIiNS_4lessIiEENS_9allocatorIiEEE7destroyEPNS_11__tree_nodeIiPvEE
Nnj:_Predicate_1__ctor_m2995226103_gshared
gMf:_CipherSuite_InitializeCipher_m229247572
$Zf:_X509Certificate2__ctor_m1095336775
$Aa:__ZNK9GfxDevice14GetWorldMatrixEv
J5g:_MonoProperty_GetGetMethod_m1100580870
qOh:_Dictionary_2__ctor_m1950568359_gshared
Dbk:__ZN15dense_hashtableINSt3__24pairIK10KeyWrapperIPK19Il2CppGenericMethodEP10MethodInfoEES6_N6il2cpp8metadata23Il2CppGenericMethodHashEN14dense_hash_mapIS6_S9_SD_NS6_14EqualsComparerINSC_26Il2CppGenericMethodCompareEEENS0_9allocatorISA_EEE9SelectKeyESH_SJ_E13set_empty_keyERKSA_
F7a:__Z19scripting_array_new17ScriptingClassPtrjj
MP:__ZN11SoundHandle13CreateChannelEb
Fyg:__Z90RuntimeInvoker_Void_t1841601450_IntPtr_t_Int32_t2071877448_RuntimeObject_Int32_t2071877448PFvvEPK10MethodInfoPvPS4_
pqb:__ZN14SafeBinaryRead21TransferSTLStyleArrayI13dynamic_arrayI12LightmapDataLj4EEEEvRT_17TransferMetaFlags
I8e:_ArgumentException__ctor_m3312963299
mVb:__ZNSt3__26vectorIN9ShaderLab20SerializedSubProgram16TextureParameterENS_9allocatorIS3_EEE6assignIPS3_EENS_9enable_ifIXaasr21__is_forward_iteratorIT_EE5valuesr16is_constructibleIS3_NS_15iterator_traitsISA_E9referenceEEE5valueEvE4typeESA_SA_
lEf:_ReadOnlyCollection_1_get_Item_m1696267180_gshared
MIj:__ZN13Il2CppHashMapIN6il2cpp5utils13dynamic_arrayIPK10Il2CppTypeLj4EEEPFvvENS0_8metadata19Il2CppSignatureHashENS9_22Il2CppSignatureCompareENSt3__29allocatorINSC_4pairIK10KeyWrapperIS6_ES8_EEEEEC2EjRKSA_RKSB_
Rhc:__Z51Quaternion_CUSTOM_INTERNAL_CALL_Internal_ToEulerRadRK11QuaternionfR8Vector3f
FXj:__ZN15dense_hashtableINSt3__24pairIK10KeyWrapperIPK22Il2CppGenericParameterEPK24MonoGenericParameterInfoEES6_N6il2cpp5utils11PointerHashIS4_EEN14dense_hash_mapIS6_SA_SF_NS6_14EqualsComparerINS0_8equal_toIS5_EEEENS0_9allocatorISB_EEE9SelectKeyESK_SM_E15set_deleted_keyERKSB_
xni:__ZL113AnimatorControllerPlayable_t1744083903_CustomAttributesCacheGenerator_AnimatorControllerPlayable_Play_m1490151611P21CustomAttributesCache
OYi:_InternalEnumerator_1_System_Collections_IEnumerator_Reset_m2726857860_AdjustorThunk
TZb:__ZN6prcoreL11inner_clearILj2EEEvPhjjj
hqi:__ZL124GUILayoutUtility_t996096873_CustomAttributesCacheGenerator_GUILayoutUtility_INTERNAL_CALL_Internal_GetWindowRect_m3236664463P21CustomAttributesCache
X0f:_X509SubjectKeyIdentifierExtension__ctor_m3887138480
gaf:_Enumerator_System_Collections_IEnumerator_get_Current_m2853089017_AdjustorThunk
YSc:__ZN12b2WheelJoint24SolvePositionConstraintsERK12b2SolverData
Ug:_emscripten_exit_fullscreen
SVd:_InputField_get_mesh_m3276583786
YOi:_GCHandle_Free_m1639542352_AdjustorThunk
_Of:_Context_set_ClientRandom_m631392719
F8j:__ZN6il2cpp6icalls8mscorlib6System6String19InternalAllocateStrEi
cyc:__Z29Transfer_Blittable_ArrayFieldI8JSONRead11QuaternionfEvRT_R9ArrayInfoRK23StaticTransferFieldInfo
$2h:__ZL65SoapParameterAttribute_t2780084514_CustomAttributesCacheGeneratorP21CustomAttributesCache
Vea:__ZN20LocalFileSystemPosix8SetFlagsER13FileEntryDatajj
bfc:__Z45Register_UnityEngine_Camera_get_targetDisplayv
W3b:__ZNK24RendererAnimationBinding15GenerateBindingERKN4core12basic_stringIcNS0_20StringStorageDefaultIcEEEEbRN11UnityEngine9Animation14GenericBindingE
clb:__Z15GetFlareManagerv
L_b:__ZN15ApplicationInfo24GetApplicationIdentifierEv
XDf:_ReadOnlyCollection_1_System_Collections_IList_Contains_m927375828_gshared
Xgb:__ZN9Behaviour8TransferI18StreamedBinaryReadILb0EEEEvRT_
v6i:_Enumerator_System_Collections_IEnumerator_get_Current_m1429268283
uAf:_ReadOnlyCollection_1_System_Collections_Generic_ICollectionU3CTU3E_Clear_m388357963_gshared
xmk:___toread
RY:__ZN19CloudServiceHandler10QueueEventEPN11UnityEngine15CloudWebService14CloudEventInfoE
Lqk:___cxa_is_pointer_type
FEd:_String_Concat_m56707527
iC:__ZN7mecanim9animation16EvaluateAvatarDXEPKNS0_14AvatarConstantEPKNS0_11AvatarInputEPNS0_12AvatarMemoryEPNS0_15AvatarWorkspaceEPNS0_12AvatarOutputE
HKa:__ZN4gles20DestroyRenderSurfaceEP7ApiGLESP17RenderSurfaceGLES
faf:_Enumerator_System_Collections_IEnumerator_get_Current_m2853089017_gshared
YFc:__ZN14ParticleSystem16UpdateProceduralER24ParticleSystemUpdateDataR23ParticleSystemParticles
Olc:__Z34Transform_CUSTOM_SetAsFirstSiblingP12Il2CppObject
zSj:__ZNK15dense_hashtableINSt3__24pairIK10KeyWrapperINS1_IPK14Il2CppAssemblyP11Il2CppClassEEEjEES9_17ReflectionMapHashIS8_EN14dense_hash_mapIS9_jSD_NS9_14EqualsComparerINS0_8equal_toIS8_EEEENS0_9allocatorISB_EEE9SelectKeyESI_SK_E10test_emptyEj
pcf:_Enumerator_get_Current_m827571811_AdjustorThunk
Boi:__ZL62Font_t4239498691_CustomAttributesCacheGenerator_textureRebuiltP21CustomAttributesCache
Doa:__ZN17PersistentManager40GlobalToLocalSerializedFileIndexInternalERK26SerializedObjectIdentifier
fW:__ZN11UnityEngine15CloudWebService17SessionEventQueue14ParseEventDataERKN4core12basic_stringIcNS2_20StringStorageDefaultIcEEEE
IGd:_BaseEventData_get_selectedObject_m3551206992
u$e:_SimpleCollator_CompareOrdinal_m2176988387
yti:__ZL47Rect_t3681755626_CustomAttributesCacheGeneratorP21CustomAttributesCache
$oe:_CCGregorianCalendar_GetYear_m1289900195
QMe:_Int16_ToString_m2592645088
EFa:__ZN13TranslateGLES4InitERK12GraphicsCaps16GfxDeviceLevelGL
FSb:__Z29Transfer_Blittable_ArrayFieldI18StreamedBinaryReadILb0EE10ColorRGBAfEvRT_R9ArrayInfoRK23StaticTransferFieldInfo
_T:__Z60AudioClipPlayable_CUSTOM_INTERNAL_CALL_GetPauseDelayInternalR9HPlayable
Fag:_SerializationInfoEnumerator_Reset_m2206466680
pwk:_emscripten_glGetShaderPrecisionFormat__wrapper
qmd:__Z32CustomEventData_CUSTOM_AddUInt32P12Il2CppObjectP12Il2CppStringj
Wpi:__ZL78Event_t3028476042_CustomAttributesCacheGenerator_Event_get_keyCode_m3364681288P21CustomAttributesCache
qvj:_GenericEqualityComparer_1_Equals_m1934771410_gshared
FZh:__ZL57DebuggingModes_t2073970606_CustomAttributesCacheGeneratorP21CustomAttributesCache
Qjk:__ZN6il2cpp5utils9Exception26FormatInvalidCastExceptionEPK11Il2CppClassS4_
ivf:_Collection_1_System_Collections_IList_get_IsFixedSize_m993584401_gshared
sCb:__ZNSt3__26vectorIN30RuntimeInitializeOnLoadManager15ClassMethodInfoE13stl_allocatorIS2_L18MemLabelIdentifier12ELi16EEE8__appendEj
D1b:__ZN13ProduceHelperI10TagManagerLb0EE7ProduceE18MemLabelIdentifier18ObjectCreationMode
rkk:__ZN6il2cpp2os6Memory12AlignedAllocEjj
m0i:_InternalEnumerator_1__ctor_m691972083_gshared
iek:__ZN6il2cpp8metadataL7CompareEPK10Il2CppTypeS3_
CJb:__Z18Transfer_BlittableI17RemapPPtrTransferLb0E11ColorRGBA32EvRK29SerializationCommandArgumentsR31RuntimeSerializationCommandInfo
iZg:_TypeBuilder_get_is_created_m736553860
H7g:_GameObject_set_layer_m2712461877
NKf:_RSAManaged__ctor_m1370411656
aRb:__Z18Transfer_BlittableI18StreamedBinaryReadILb0EELb1E10ColorRGBAfEvRK29SerializationCommandArgumentsR31RuntimeSerializationCommandInfo
lob:__ZN12CubemapArray23VirtualRedirectTransferER17RemapPPtrTransfer
Tbc:__ZL27GetComponentsImplementationILb0ELi0EEbR10GameObjectbRK17CompareParametersRK39GetComponentsImplementation_ReturnValue
mYf:_WebHeaderCollection_GetObjectData_m3940120977
HDb:__ZN9Scripting36IsSystemCollectionsGenericDictionaryE17ScriptingClassPtr
xGi:_Raycast3DCallback_EndInvoke_m3234280377
iKg:__Z34RuntimeInvoker_KeyCode_t2283395152PFvvEPK10MethodInfoPvPS4_
tPd:_ColorTweenCallback__ctor_m3619686788
O5:__ZL16ReadTypeTreeImplILb0EEbR8TypeTreeRK16TypeTreeIteratorRPKhS6_i
Cjc:__Z28PlayableOutputValidityChecksRK15HPlayableOutput
by:__ZN27AnimationLayerMixerPlayable16SetLayerMaskCopyEjRKN7mecanim6bitsetILj70EEEPKNS0_8skeleton12SkeletonMaskE
Vyj:__ZL25UnresolvedVirtualCall_152P12Il2CppObject38CustomAttributeNamedArgument_t94157543S1_PK10MethodInfo
MH:__Z104Register_UnityEngine_Animations_AnimatorControllerPlayable_INTERNAL_CALL_GetNextAnimatorClipInfoInternalv
_mb:__ZNK22BuiltinResourceManager21GetResourceInstanceIDEPKN5Unity4TypeERKN4core12basic_stringIcNS4_20StringStorageDefaultIcEEEE
uDa:__ZN9GfxDevice15BeginFrameStatsEv
kgc:__Z42Register_UnityEngine_RectOffset_set_bottomv
e6d:_ArrayListWrapper_IndexOf_m3574835167
Bpc:__Z28GUIStyleState_CUSTOM_CleanupP12Il2CppObject
ZF:__Z92Register_UnityEngine_Animations_AnimationClipPlayable_INTERNAL_CALL_GetAnimationClipInternalv
N_a:__ZN28LightProbeProxyVolumeContext8CopyFromERKS_
Zgf:_List_1_Remove_m2660527978_gshared
kNd:_U3COnFinishSubmitU3Ec__Iterator0_System_Collections_Generic_IEnumeratorU3CobjectU3E_get_Current_m1823105495
$dh:_GUIUtility_TakeCapture_m3115231813
i7a:__ZN23TransformChangeDispatch32QueueTransformChangeIfHasChangedER18TransformHierarchy
jyd:_SymmetricAlgorithm_get_FeedbackSize_m544664262
H3a:__ZN18DeferredRenderLoop15RenderFinalPassEP13RenderTextureS1_
IKa:__ZN7ApiGLES18DeleteRenderbufferERj
wJa:__ZL23ProgramUniformMatrix4fvPK7ApiGLESjiihPKv
hAa:__ZN7ApiGLES13CreateTextureEjj14GraphicsFormatiiiii
yNg:__Z41RuntimeInvoker_SelectionState_t3187567897PFvvEPK10MethodInfoPvPS4_
N0i:_InternalEnumerator_1_MoveNext_m3629145604_gshared
WUb:__ZN9ShaderLab20SerializedSubProgram15MatrixParameter8TransferI14SafeBinaryReadEEvRT_
qtg:__Z51RuntimeInvoker_Int32_t2071877448_Single_t2076509932PFvvEPK10MethodInfoPvPS4_
CMe:_Int32_Parse_m124693431
Vbc:__ZL27GetComponentsImplementationILb0ELi1EEbR10GameObjectbRK17CompareParametersRK39GetComponentsImplementation_ReturnValue
udd:_Round_Down_To_Grid
Dhg:_UTF8Decoder__ctor_m1460357288
vka:__ZN13RenderTexture7ReleaseEv
Zwb:__ZN10MeshFilter23VirtualRedirectTransferER14SafeBinaryRead
xce:_Convert_ToByte_m1201588964
hxb:__ZN12MeshRenderer17MainThreadCleanupEv
aec:__Z36AsyncOperation_Get_Custom_PropIsDoneP12Il2CppObject
oNa:__ZN22CreateGpuProgramOutput12CreateParamsEv
ebg:_RuntimeMethodHandle_GetHashCode_m2682236001_AdjustorThunk
URg:__Z54RuntimeInvoker_Void_t1841601450_UILineInfo_t3621277874PFvvEPK10MethodInfoPvPS4_
iRj:__ZNSt3__26vectorIiNS_9allocatorIiEEE21__push_back_slow_pathIiEEvOT_
BMg:__Z45RuntimeInvoker_HorizontalWrapMode_t2027154177PFvvEPK10MethodInfoPvPS4_
wFa:__ZNK14GfxContextGLES13GetDefaultFBOEv
ose:_Array_InternalArray__ICollection_Remove_TisSByte_t454417549_m2474211570_gshared
hAd:_Evidence_get_IsSynchronized_m1427392003
aha:__ZN14GraphicsHelper5ClearE13GfxClearFlagsRK10ColorRGBAffjR17ShaderPassContext
q8b:__Z13GetImagePixelI10ColorRGBAfET_PKhii13TextureFormat15TextureWrapModeS5_ii
wPj:_il2cpp_class_is_enum
f$j:__ZN6il2cpp2vm6Thread49CheckCurrentThreadForInterruptAndThrowIfNecessaryEv
Ema:__ZNSt3__23mapIN9ShaderLab16FastPropertyNameEN18UnityPropertySheet11UnityTexEnvENS_4lessIS2_EENS_9allocatorINS_4pairIKS2_S4_EEEEEixERS9_
iAa:__ZNK13TranslateGLES25GetTextureTargetDimensionEj
TWd:_InputField_SetToCustom_m250029371
FAe:_Array_InternalArray__set_Item_TisByte_t3683104436_m1694926640_gshared
Nvf:_Collection_1_System_Collections_IList_Contains_m1897568526_gshared
x$g:_FieldBuilder_get_FieldType_m2267463269
o0d:_SimpleEnumerator_Clone_m3032847657
i7i:_PatternCompiler_EmitInfo_m597931026
cIf:_ModulusRing_Multiply_m3113924743
dlc:__Z47Texture2D_CUSTOM_INTERNAL_CALL_GetPixelBilinearP12Il2CppObjectffR10ColorRGBAf
_hd:__ZZN2UI6Canvas15InitializeClassEvEN39FunctorImpl_1413kCanvasHierarchyChanged4CallEPviR11MessageData
NOf:_Context_get_ServerSettings_m225713600
Ti:_emscripten_glVertexAttrib4f
iHg:__Z40RuntimeInvoker_PlayableOutput_t988259697PFvvEPK10MethodInfoPvPS4_
Goj:_InvokableCall_1_remove_Delegate_m3576859071_gshared
_zf:_ReadOnlyCollection_1_System_Collections_IEnumerable_GetEnumerator_m531171980_gshared
KXb:__ZNSt3__26vectorIN20GpuProgramParameters14ConstantBufferENS_9allocatorIS2_EEE8__appendEj
mDe:_Array_Sort_TisUILineInfo_t3621277874_m3105833015_gshared
LYe:_MonoType_GetGenericArguments_m2708198481
sZa:__ZN11HaloManager21ReleaseGeometryJobMemEP25DynamicVBOGeometryJobData
Tdf:_List_1_AddEnumerable_m2489692396_gshared
FMg:__Z51RuntimeInvoker_Color_t2020392075_Single_t2076509932PFvvEPK10MethodInfoPvPS4_
toi:__ZL93TextGenerator_t647235000_CustomAttributesCacheGenerator_TextGenerator_Dispose_cpp_m1755131202P21CustomAttributesCache
Ajj:_WaitForSecondsRealtime__ctor_m1734539010
Whg:_WaitHandle__ctor_m1256161634
nx:__ZN7mecanim12statemachine24CreateStateMachineMemoryEPKNS0_20StateMachineConstantERNS_6memory9AllocatorE
WJh:_Enumerator_get_Current_m419581838_AdjustorThunk
zDa:__ZN9GfxDevice18SetGlobalDepthBiasEff
SSi:_Identity_get_ChannelSink_m3989446673
LMj:__ZN6il2cpp6icalls8mscorlib6System8MonoType12get_AssemblyEP20Il2CppReflectionType
lCc:__ZN4PPtrI12MeshRendererE8TransferI14SafeBinaryReadEEvRT_
tMf:_TlsStream_Write_m3425460533
gSd:_FontData_get_richText_m2013560754
sBd:_SecurityException_get_PermissionType_m3543350822
ej:_emscripten_glGetPointerv
zgj:_Transform_set_position_m2469242620
ZB:__ZN8Animator22ApplyBuiltinRootMotionEv
r5j:__ZN15dense_hashtableI10KeyWrapperIP18Il2CppGenericClassES3_N6il2cpp8metadata22Il2CppGenericClassHashEN14dense_hash_setIS3_S6_NS3_14EqualsComparerINS5_25Il2CppGenericClassCompareEEENSt3__29allocatorIS3_EEE8IdentityESA_SD_E5clearEv
Ure:_Array_InternalArray__ICollection_Remove_TisKeyValuePair_2_t3716250094_m2566517826_gshared
b3j:__ZN30dense_hashtable_const_iteratorINSt3__24pairIK10KeyWrapperIP14Il2CppIUnknownEjEES5_N6il2cpp5utils11PointerHashIS3_EEN14dense_hash_mapIS5_jSB_NS5_14EqualsComparerINS0_8equal_toIS4_EEEENS0_9allocatorIS7_EEE9SelectKeyESG_SI_EppEv
ksb:__ZN8Renderer23VirtualRedirectTransferER14SafeBinaryRead
m_g:_DerivedType_get_UnderlyingSystemType_m3904230233
RJd:_PointerEventData_get_rawPointerPress_m448871540
VXa:__Z27ConvertSubMeshesToTrianglesR13dynamic_arrayI7SubMeshLj4EERS_ItLj2EE
UEj:__ZN6il2cpp2vmL15GetBitmapNoInitEP11Il2CppClassPjRjj
kfb:__ZL13MotionHandleriPK27EmscriptenDeviceMotionEventPv
z$f:_X509Certificate2Collection__ctor_m819526826
CK:__ZN12AudioManager5ResetEv
dWg:__Z75RuntimeInvoker_RuntimeObject_Single_t2076509932_RuntimeObject_RuntimeObjectPFvvEPK10MethodInfoPvPS4_
pJf:_KeyBuilder_Key_m3814433741
J8e:_ArgumentException__ctor_m158205422
zve:_Array_compare_TisVector3_t2243707580_m3709184876_gshared
vUd:_HorizontalLayoutGroup_SetLayoutHorizontal_m3237355818
JB:__ZN7mecanim5human14RetargetToTDoFEPKNS0_5HumanEPNS0_9HumanPoseEPNS_8skeleton13SkeletonPoseTIN4math4trsXEEESB_
QAf:_ReadOnlyCollection_1_Contains_m2306259645_gshared
sXj:__ZNK15dense_hashtableINSt3__24pairIK10KeyWrapperIPK14Il2CppAssemblyEPK22Il2CppMonoAssemblyNameEES6_N6il2cpp5utils11PointerHashIS4_EEN14dense_hash_mapIS6_SA_SF_NS6_14EqualsComparerINS0_8equal_toIS5_EEEENS0_9allocatorISB_EEE9SelectKeyESK_SM_E10test_emptyEj
Mak:__ZN6il2cpp6icalls8mscorlib6System11Environment20GetWindowsFolderPathEi
KBi:__ZL60AspectRatioFitter_t3114550109_CustomAttributesCacheGeneratorP21CustomAttributesCache
Zv:__ZN7mecanim5human18HumanPoseBlendNodeERNS0_9HumanPoseEPS1_f
k9c:_UNITY_FT_RoundFix
TXb:__ZN9ShaderLab20SerializedSubProgram15AddTextureParamEPKcii16TextureDimension
rV:__ZN23CloudWebServicesManager23VirtualRedirectTransferER17RemapPPtrTransfer
isf:__ZN21InterfaceFuncInvoker1Ib40CustomAttributeTypedArgument_t1498197914E6InvokeEjP11Il2CppClassP12Il2CppObjectS0_
dR:__ZNK18AudioMixerPlayable11DerivesFromE17ScriptingClassPtr
jbj:_Uri_get_Parser_m2250631932
jxb:__ZNK12MeshRenderer22GetTypeVirtualInternalEv
eEh:_Event_GetHashCode_m2214628668
mxj:__ZL24UnresolvedVirtualCall_63P12Il2CppObjectS0_S0_S0_PK10MethodInfo
OGg:__Z36RuntimeInvoker_HideFlags_t1434274199PFvvEPK10MethodInfoPvPS4_
ySd:_Graphic_set_color_m646149893
mPh:_Dictionary_2_System_Collections_ICollection_get_IsSynchronized_m960517203_gshared
Xma:__ZN14SafeBinaryRead19TransferSTLStyleMapINSt3__23mapIN4core12basic_stringIcNS3_20StringStorageDefaultIcEEEES7_NS1_4lessIS7_EE13stl_allocatorINS1_4pairIKS7_S7_EEL18MemLabelIdentifier1ELi16EEEEEEvRT_17TransferMetaFlags
Gmg:_Type_MakeByRefType_m1323101575
Ehd:__ZN2UI6Canvas27UpdateEventIndexesRecursiveERi
I1b:__ZN14SpriteRenderer12CleanupClassEv
lW:__ZN11UnityEngine15CloudWebService16SessionContainer21PrepareDataErrorEventERN4core12basic_stringIcNS2_20StringStorageDefaultIcEEEE
l5c:_UNITY_FT_Outline_New
Bbk:__ZNSt3__218uninitialized_copyIPNS_4pairIK10KeyWrapperIPK19Il2CppGenericMethodEP10MethodInfoEESB_EET0_T_SD_SC_
aqi:__ZL85GUI_t4082743951_CustomAttributesCacheGenerator_GUI_set_nextScrollStepTime_m2724006954P21CustomAttributesCache
LNb:__Z19TransferField_ArrayI19StreamedBinaryWriteILb0EE27Converter_SimpleNativeClassI8GUIStyleEEvRK23StaticTransferFieldInfoR31RuntimeSerializationCommandInfoRT0_
Odi:__ZL101AssetBundleRequest_t2674559435_CustomAttributesCacheGenerator_AssetBundleRequest_get_asset_m624603186P21CustomAttributesCache
fea:__ZNK13ScreenManager12GetIsFocusedEv
xuh:_AnimatorControllerPlayable_CrossFade_m1077061813_AdjustorThunk
B7f:_RemotingServices_RegisterInternalChannels_m1827304423
_bh:_GUIStyle_get_onNormal_m1675201777
Nr:__ZL32CleanupAnimationScriptingClassesv
Evc:__Z35Transfer_Blittable_FixedBufferFieldI8JSONReadiEvRK29SerializationCommandArgumentsR31RuntimeSerializationCommandInfo
yMc:__ZN22ParticleSystemRenderer16UpdateCachedMeshEv
QLj:__ZNSt3__213__vector_baseIN6il2cpp2os19SocketHandleWrapperENS_9allocatorIS3_EEED2Ev
_1e:_ASN1_get_Length_m3359111015
obh:_GUISkin_get_verticalScrollbarThumb_m649633186
zGg:__Z66RuntimeInvoker_InternalShaderChannel_t3331827198_Int32_t2071877448PFvvEPK10MethodInfoPvPS4_
Ydh:_GUIStyleState_Cleanup_m705006206
LCc:__ZN12LightsModule8TransferI24GenerateTypeTreeTransferEEvRT_
qc:invoke_viiffi
cKe:_RegionInfo_GetByTerritory_m3452395101
Ubb:__ZN13sorted_vectorINSt3__24pairIN4core12basic_stringIcNS2_20StringStorageDefaultIcEEEEPK17MessageIdentifierEEN10vector_mapIS6_S9_NS0_4lessIS6_EENS0_9allocatorISA_EEE13value_compareESF_E10insert_oneERKSA_
YB:__ZNSt3__227__insertion_sort_incompleteIRPFbPKN8Animator11AnimatorJobES4_EPS4_EEbT0_S9_T_
Rig:_Thread_GetCachedCurrentUICulture_m5590127
qHg:__Z36RuntimeInvoker_Matrix4x4_t2933234003PFvvEPK10MethodInfoPvPS4_
iob:__ZNK12CubemapArray20GetRuntimeMemorySizeEv
Jij:_Vector3_Dot_m3161182818
FQi:_CrossAppDomainSink_get_TargetDomainId_m775204051
MVb:__Z14resize_trimmedINSt3__26vectorIN9ShaderLab18SerializedPropertyENS0_9allocatorIS3_EEEEEvRT_j
wnf:_List_1_CheckMatch_m4018158235_gshared
X$e:_Context_t2636657155_marshal_pinvoke_back
QJj:__ZN6il2cpp2vm13MetadataCache38GetMethodInfoFromMethodDefinitionIndexEi
G2d:_Byte_System_IConvertible_ToDateTime_m1583041031
Tic:__Z39MonoBehaviour_CUSTOM_GetScriptClassNameP12Il2CppObject
rxj:__ZL24UnresolvedVirtualCall_68P12Il2CppObjectS0_iS0_S0_S0_S0_S0_S0_PK10MethodInfo
Htb:__ZN10VertexData8TransferI24GenerateTypeTreeTransferEEvRT_
Kpi:__ZL98CanvasRenderer_t261436805_CustomAttributesCacheGenerator_CanvasRenderer_get_absoluteDepth_m4243141P21CustomAttributesCache
gbk:__ZN13Il2CppHashMapIPK19Il2CppGenericMethodP10MethodInfoN6il2cpp8metadata23Il2CppGenericMethodHashENS6_26Il2CppGenericMethodCompareENSt3__29allocatorINS9_4pairIK10KeyWrapperIS2_ES4_EEEEEC2EjRKS7_RKS8_
R5e:_EncryptedData_get_EncryptionAlgorithm_m1301274243
rki:__ZL68DrivenTransformProperties_t2488747555_CustomAttributesCacheGeneratorP21CustomAttributesCache
V4a:__ZL10CullLightsRK22SceneCullingParametersR11CullResults
ERd:_Dropdown__cctor_m264401557
H$d:_Array_IndexOf_m2819632474
D5i:_Comparer_1__cctor_m3996541505_gshared
ix:__ZN7mecanim12statemachine20GetBlendTreeConstantERKNS0_13StateConstantEi
a7b:__Z40GetTemporaryCachePathApplicationSpecificv
IBa:__ZN9GfxDevice16EndAsyncJobFrameEv
DVd:_Image_get_minWidth_m1809071077
QVj:__ZNK15dense_hashtableINSt3__24pairIK10KeyWrapperINS1_IPK12PropertyInfoP11Il2CppClassEEEjEES9_17ReflectionMapHashIS8_EN14dense_hash_mapIS9_jSD_NS9_14EqualsComparerINS0_8equal_toIS8_EEEENS0_9allocatorISB_EEE9SelectKeyESI_SK_E10test_emptyERK30dense_hashtable_const_iteratorISB_S9_SD_SM_SI_SK_E
f6c:_UNITY_tt_face_load_hhea
xSi:_ContextAttribute_IsNewContextOK_m2186905629
MEh:_PersistentCall__ctor_m2079279187
Xbe:_Convert_ToBase64String_m1936815455
Zk:___syscall3
al:___syscall6
aDa:__ZN9GfxDevice15GetNextCPUFenceEv
cl:___syscall4
Oke:_Decimal_ToString_m759431975
Ewf:_Collection_1_System_Collections_IList_get_IsFixedSize_m2204750039_gshared
jNd:_ColorBlock_get_fadeDuration_m987725262
Xzi:__ZL195U3CMouseDragOutsideRectU3Ec__Iterator1_t2599668326_CustomAttributesCacheGenerator_U3CMouseDragOutsideRectU3Ec__Iterator1_System_Collections_Generic_IEnumeratorU3CobjectU3E_get_Current_m2602955272P21CustomAttributesCache
wFg:__Z86RuntimeInvoker_Void_t1841601450_RuntimeObject_Vector3U26_t425862308_RayU26_t3651946800PFvvEPK10MethodInfoPvPS4_
tcg:_CryptographicException__ctor_m2415891459
vYc:__ZNSt3__26__sortIR24RayHitsByDepthComparitorP12RaycastHit2DEEvT0_S5_T_
ZOc:__ZN27PerformanceReportingManager23VirtualRedirectTransferER14SafeBinaryRead
Wuj:_GenericEqualityComparer_1_GetHashCode_m3320722759_gshared
Ehf:_List_1_AddCollection_m3266731889_gshared
fcc:__ZN9Scripting25BroadcastScriptingMessageER10GameObjectPKc18ScriptingObjectPtr
sl:_emscripten_glShaderBinary
dtf:_Collection_1_System_Collections_IList_set_Item_m150887383_gshared
$Be:_Array_qsort_TisVector2_t2243707579_TisVector2_t2243707579_m3308480721_gshared
yX:__ZN15DownloadHandler19OnFinishReceiveDataEv
Jzh:_Camera_INTERNAL_CALL_RaycastTry_m1030092423
gfa:__ZNK20LocalFileSystemPosix6ExistsERK13FileEntryData
OZi:_InternalEnumerator_1_Dispose_m4038440306_AdjustorThunk
xCg:__Z21RuntimeInvoker_Guid_tPFvvEPK10MethodInfoPvPS4_
qVf:_DictionaryNodeEnumerator_get_DictionaryNode_m3521889822
mu:__ZN7mecanim5human19MaskHasLeftFootGoalERKNS_6bitsetILj70EEE
yQg:__Z101RuntimeInvoker_Int32_t2071877448_RuntimeObject_Color32_t874517518_Int32_t2071877448_Int32_t2071877448PFvvEPK10MethodInfoPvPS4_
Ugh:_Mesh_get_colors32_m4153271224
$kd:__Z58Register_UnityEngine_Canvas_GetETC1SupportedCanvasMaterialv
Oih:_Physics2D_INTERNAL_CALL_GetRayIntersectionAll_m161475998
YPb:__ZN17AnimationCurveTplIfE8TransferI18StreamedBinaryReadILb1EEEEvRT_
Yie:_DateTimeOffset_GetHashCode_m3312197462_AdjustorThunk
God:__ZN18UnityConnectClientD2Ev
UXf:_ServicePoint_set_UseNagleAlgorithm_m2618011464
OOj:_il2cpp_set_data_dir
ebj:_Uri_get_IsUnc_m2111738174
B9h:__ZL79Convert_t2607082565_CustomAttributesCacheGenerator_Convert_ToUInt64_m1691869628P21CustomAttributesCache
rib:__ZN16LevelGameManager23VirtualRedirectTransferER19StreamedBinaryWriteILb0EE
Ctb:__Z32TransferEnumWithNameForceIntSizeI14SafeBinaryRead16GfxPrimitiveTypeEvRT_RT0_PKc17TransferMetaFlags
l4i:_DefaultComparer__ctor_m1961329658_gshared
T1g:_ParameterBuilder_get_Attributes_m2421099277
FOg:__Z66RuntimeInvoker_Void_t1841601450_ObjectU26_t597476745_RuntimeObjectPFvvEPK10MethodInfoPvPS4_
ogj:_TouchScreenKeyboard_get_done_m406461410
tej:_DataUtility_INTERNAL_CALL_GetPadding_m1621366113
dVj:__ZN15dense_hashtableINSt3__24pairIK10KeyWrapperINS1_IPK11Il2CppImageP11Il2CppClassEEEjEES9_17ReflectionMapHashIS8_EN14dense_hash_mapIS9_jSD_NS9_14EqualsComparerINS0_8equal_toIS8_EEEENS0_9allocatorISB_EEE9SelectKeyESI_SK_E5clearEv
l2g:_TypeBuilder_IsValueTypeImpl_m1499671481
Rnd:__ZN11UnityEngine15PlatformWrapper30GetGraphicsDriverLibraryStringEv
KHh:_Enumerator_VerifyState_m262343092_AdjustorThunk
Uhj:_Vector2_ToString_m775491729
eif:_List_1_get_Count_m1752597149_gshared
xKf:_EncryptedPrivateKeyInfo_Decode_m1706190306
bRb:__Z18Transfer_BlittableI18StreamedBinaryReadILb0EELb0E4AABBEvRK29SerializationCommandArgumentsR31RuntimeSerializationCommandInfo
ND:__ZN16MecanimAnimation24DeleteAnimatedPropertiesERP26IAnimatedPropertyEvaluator
Fzg:__Z42RuntimeInvoker_CspProviderFlags_t105264000PFvvEPK10MethodInfoPvPS4_
dge:_Convert_ToUInt16_m1665900934
$Aj:_Converter_2_BeginInvoke_m898151494_gshared
xCj:_U3CsoltarEnemigoU3Ec__Iterator0_Reset_m20482497
bKe:_RegionInfo__ctor_m2058831971
xCc:__ZN11ColorModule8TransferI24GenerateTypeTreeTransferEEvRT_
uVa:__Z14DrawGUITextureRK5RectTIfEP7Texture11ColorRGBA32P8Materiali
JLi:_Text_get_supportRichText_m3291105891
Gnh:_RectTransform_GetParentSize_m1571597933
MA:__ZN9BlobWrite8TransferI22OffsetPtrArrayTransferIKN4math7_float4EEEEvRT_PKc17TransferMetaFlags
YYd:_LayoutElement_set_ignoreLayout_m1530090081
Sja:__ZN15TextureSettings8TransferI24GenerateTypeTreeTransferEEvRT_
s6i:_MatchCollection_GetEnumerator_m3516985966
qvc:__ZN9JSONWrite8TransferI4AABBEEvRT_PKc17TransferMetaFlags
Reg:_UTF7Encoding__ctor_m2365939916
dRa:__ZN25MultiBlocksMemoryFileData9SetLengthEy
bfj:_TextGenerationSettings_Equals_m3944651893_AdjustorThunk
XCh:_DelegatePInvokeWrapper_StateChanged_t2480912210
CEi:_MatEntry__ctor_m3650167335
Mrj:_ListPool_1_U3Cs_ListPoolU3Em__0_m441310157_gshared
wTc:__ZN10Collider2D13AwakeFromLoadE17AwakeFromLoadMode
yCb:__ZNSt3__26vectorIN30RuntimeInitializeOnLoadManager9ClassInfoE13stl_allocatorIS2_L18MemLabelIdentifier12ELi16EEE8__appendEj
Sob:__ZNK9Texture2D20GetRuntimeMemorySizeEv
Mmg:_TypeInitializationException__ctor_m2993591639
RSh:_EqualityComparer_1__ctor_m3788663378_gshared
Am:_emscripten_glUniform2iv
v4h:__ZL46DES_t1353513560_CustomAttributesCacheGeneratorP21CustomAttributesCache
bMe:_Int16_System_IConvertible_ToInt64_m733340257
ngh:_Matrix4x4_ToString_m1982554457_AdjustorThunk
F2c:_UNITY_FT_Outline_Transform
Gbh:_SkinChangedDelegate_BeginInvoke_m4259161711
Zkc:__Z60Register_UnityEngine_Sprites_DataUtility_Internal_GetMinSizev
lFj:__ZN6il2cpp2vm5Class10GetMethodsEP11Il2CppClassPPv
urd:__ZNK25UnityWebRequestJavaScript17GetUploadProgressEv
G0a:__Z30AddDefaultStreamsToMeshBuffersR9GfxDeviceR11MeshBuffersRK16DrawBuffersRange17ShaderChannelMaskS6_
qQg:__Z86RuntimeInvoker_Int32_t2071877448_Vector2_t2243707579_Vector2_t2243707579_RuntimeObjectPFvvEPK10MethodInfoPvPS4_
XLc:__Z43ParticleSystemRenderer_RenderMultipleMeshesIL21SpriteMaskInteraction1EEvRK15RenderNodeQueueRK18RenderMultipleData17ShaderChannelMask
vAd:_Hash_GetObjectData_m315532943
lKa:__ZN7ApiGLES17DeleteFramebufferERN2gl6HandleILNS0_10ObjectTypeE9EEES3_
sMa:__ZN15UniformTFMethod13MapBoneBufferEj
KNf:_RecordProtocol_SendAlert_m2816808523
Ggd:__ZN2UI14CanvasRendererD2Ev
f4f:_MethodCall_get_LogicalCallContext_m3769562079
F$j:__ZN6il2cpp6icalls8mscorlib6System5Array8SetValueEP11Il2CppArrayP12Il2CppObjectS5_
eVe:_SynchronizedReader_Read_m1399666181
j4g:_MonoEvent_get_Name_m2796714646
aga:__Z9SetupArgviPPKc
DRg:__Z53RuntimeInvoker_Void_t1841601450_LabelData_t3712112744PFvvEPK10MethodInfoPvPS4_
Gue:_Array_InternalArray__IEnumerable_GetEnumerator_TisHitInfo_t1761367055_m2486283755_gshared
eKd:_PointerEventData_set_worldNormal_m2025727441
ROf:_Context_get_SentConnectionEnd_m3114190867
ahb:__ZN12ImmediatePtrI10GameObjectE8TransferI19StreamedBinaryWriteILb0EEEEvRT_
mob:__ZN12CubemapArray23VirtualRedirectTransferER24GenerateTypeTreeTransfer
zwj:__ZL24UnresolvedVirtualCall_22P12Il2CppObjectS0_iS0_S0_S0_PK10MethodInfo
s6:__ZN12FileAccessor4OpenER15FileSystemEntry14FilePermission16FileAutoBehavior
yBf:_ReadOnlyCollection_1__ctor_m2364452928_gshared
S9j:__ZN6il2cpp2os9Directory6CreateERKNSt3__212basic_stringIcNS2_11char_traitsIcEENS2_9allocatorIcEEEEPi
cvh:_AnimatorControllerPlayable_Play_m1490151611_AdjustorThunk
Tna:__ZN4PPtrI6ShaderE8TransferI18StreamedBinaryReadILb0EEEEvRT_
h7a:__ZN23TransformChangeDispatch32QueueTransformChangeIfHasChangedERK15TransformAccess
JJd:_PointerEventData_set_clickTime_m3931922487
VX:__ZNSt3__24listIP19CloudServiceHandler13stl_allocatorIS2_L18MemLabelIdentifier86ELi16EEE6removeERKS2_
K8g:_WindowFunction__ctor_m977095815
bIe:_NumberFormatter_AppendNonNegativeNumber_m629862866
Goa:__ZNSt3__26vectorINS_4pairIN9ShaderLab16FastPropertyNameEN18UnityPropertySheet11UnityTexEnvEEENS_9allocatorIS6_EEE21__push_back_slow_pathIKS6_EEvRT_
rTa:__ZN15ArchiveReadFile5WriteEyPKvPy
SNi:_ResourceInfo__ctor_m2401359321_AdjustorThunk
lak:__ZN6il2cpp2os26LibraryNamePrefixAndSuffixC2EPKcS3_
b9d:_Hashtable__ctor_m392789568
tig:_Mutex_CreateMutex_internal_m2352956576
Pgg:_UTF7Encoding__cctor_m4192443836
iCh:_Component_SendMessage_m2241432133
hqc:__Z31GUIStyle_CUSTOM_SetFontInternalP12Il2CppObjectS0_
B:tempValue
tdb:__Z29StdTemplateConversionFunctionIaiEbPvR14SafeBinaryRead
blk:__ZN6il2cpp8metadata24Il2CppGenericContextHash4HashEPK20Il2CppGenericContext
fMe:_Int16_System_IConvertible_ToSingle_m3277935657
w2:__Z29scripting_class_from_fullnamePKcS0_S0_
Jfi:__ZL97GameObject_t1756533147_CustomAttributesCacheGenerator_GameObject_GetComponentInParent_m1235194528P21CustomAttributesCache
vGi:_Raycast3DCallback_Invoke_m2271859924
Ix:__ZN26AnimatorControllerPlayable18DeallocateBindingsEv
ivh:_AnimatorControllerPlayable_HasState_m3003093532
bQ:__ZN11AudioSource19CreateOpenALRolloffEfff
Ypi:__ZL83Event_t3028476042_CustomAttributesCacheGenerator_Event_set_displayIndex_m3631666901P21CustomAttributesCache
U6c:_UNITY_FT_Stream_ReadAt
bji:__ZL111Object_t1021602117_CustomAttributesCacheGenerator_Object_DestroyImmediate_m3563317232____allowDestroyingAssets1P21CustomAttributesCache
hvg:__Z38RuntimeInvoker_MemberTypes_t3343038963PFvvEPK10MethodInfoPvPS4_
mGh:_Enumerator_get_CurrentKey_m2387752419_AdjustorThunk
Ach:_GUIStyle_get_lineHeight_m2132859383
ZH:__Z87Register_UnityEngine_Animations_AnimatorControllerPlayable_INTERNAL_CALL_GetFloatStringv
$Ij:__ZN15dense_hashtableINSt3__24pairIK10KeyWrapperIN6il2cpp5utils13dynamic_arrayIPK10Il2CppTypeLj4EEEEPFvvEEESA_NS3_8metadata19Il2CppSignatureHashEN14dense_hash_mapISA_SD_SG_NSA_14EqualsComparerINSF_22Il2CppSignatureCompareEEENS0_9allocatorISE_EEE9SelectKeyESK_SM_E9set_valueEPSE_RKSE_
Oki:__ZL82Physics2D_t2540166467_CustomAttributesCacheGenerator_Physics2D_Raycast_m1220041042P21CustomAttributesCache
gFh:_UnityEvent_FindMethod_Impl_m3303953986
Smg:_UInt16_System_IConvertible_ToBoolean_m887616848
dei:__ZL120ScriptableObject_t1975622470_CustomAttributesCacheGenerator_ScriptableObject_Internal_CreateScriptableObject_m1778903390P21CustomAttributesCache
cT:__ZN11AudioModule22CreateAudioClipFromWWWEP10IWWWStreamPKcbbi
Ffg:_StringBuilder_set_Length_m3039225444
LNg:__Z37RuntimeInvoker_AspectMode_t1166448724PFvvEPK10MethodInfoPvPS4_
xwf:_Collection_1_System_Collections_IList_Contains_m3870109702_gshared
wre:_Array_InternalArray__ICollection_Contains_TisRaycastResult_t21186376_m3188614988_gshared
Oge:_CultureAwareComparer_GetHashCode_m3681260951
Cid:__Z13RegisterClassIN2UI11CanvasGroupEEvv
prj:_U3CStartU3Ec__Iterator0__ctor_m951808111_gshared
VZb:__ZN6prcoreL11inner_clearILj4EEEvPhjjj
Cf:_emscripten_glClear
EGi:_Selectable__ctor_m1440593935
Kgk:_GC_initialize_offsets
taa:__ZNK8Playable6HandleEv
Iqk:___cxa_guard_abort
EYg:_CustomAttributeTypedArgument_t1498197914_marshal_pinvoke_back
B4:__ZN14MessageHandler28MessageIDToMessageIdentifierEi
JWf:_HttpRequestCreator_Create_m3607509610
pqi:__ZL50GUISkin_t1436893342_CustomAttributesCacheGeneratorP21CustomAttributesCache
cub:__ZNK11SpriteAtlas20GetRuntimeRenderDataEPK6Sprite
Vxj:__ZL24UnresolvedVirtualCall_98P12Il2CppObject8IntPtr_tPK10MethodInfo
xof:_List_1_Shift_m3824049528_gshared
h8f:_ArrayFixupRecord__ctor_m3659990982
bPf:_Context_get_RandomCS_m3946020109
JVh:__ZL72IntPtr_t_CustomAttributesCacheGenerator_IntPtr_op_Inequality_m3044532593P21CustomAttributesCache
QQd:_Dropdown_get_onValueChanged_m3334401942
zik:__ZN6il2cpp2vm10WaitHandle19NewManualResetEventEb
uhj:_UISystemProfilerApi_EndSample_m2059427490
RCf:_ReadOnlyCollection_1_System_Collections_IList_Contains_m3707723158_gshared
Pqg:_Version_GetHashCode_m880841176
zv:__ZN7mecanim14ValueArrayCopyILb0EEEvPKNS_10ValueArrayEPS1_
uoh:_CustomEventData_Add_m4160204358
HG:__Z51Register_UnityEngine_Animator_get_hasBoundPlayablesv
RBj:_Nullable_1_ToString_m1238126148_AdjustorThunk
Td:emscriptenWebGLGetUniform
Oo:FUNCTION_TABLE_iiiiiiiiiii
Xgi:__ZL85Input_t1785128008_CustomAttributesCacheGenerator_Input_get_touchSupported_m3352846145P21CustomAttributesCache
fwa:__Z32TransferEnumWithNameForceIntSizeI14SafeBinaryRead13TextureFormatEvRT_RT0_PKc17TransferMetaFlags
xAi:__ZL86Scrollbar_t3248359358_CustomAttributesCacheGenerator_Scrollbar_ClickRepeat_m3403943364P21CustomAttributesCache
C6a:__ZL10CleanUpJobP20CullingGroupsJobData
q4d:_Char_CompareTo_m3044885427_AdjustorThunk
fRe:_FileStream_GetSecureFileName_m508045384
F0a:__Z20IsRunningNativeTestsv
P$i:_InternalEnumerator_1_System_Collections_IEnumerator_get_Current_m2035754659_AdjustorThunk
Ywb:__ZN10MeshFilter23VirtualRedirectTransferER24GenerateTypeTreeTransfer
lVa:__ZN13RenderManager15BatchModeUpdateEv
snj:_Predicate_1_EndInvoke_m973058386_gshared
bhi:__ZL52LayerMask_t3188175821_CustomAttributesCacheGeneratorP21CustomAttributesCache
etf:_Collection_1_Add_m3985367602_gshared
jtb:__ZN14SafeBinaryRead21TransferSTLStyleArrayI13dynamic_arrayI8Vector2fLj4EEEEvRT_17TransferMetaFlags
Coa:__ZN17PersistentManager51InstanceIDToLocalSerializedObjectIdentifierInternalEiR31LocalSerializedObjectIdentifier
yVc:__ZN10ClipperLib7Clipper15SetWindingCountERNS_5TEdgeE
F6g:_StrongNameKeyPair_System_Runtime_Serialization_IDeserializationCallback_OnDeserialization_m2330221363
Ybd:_UNITY_FT_Create_Class_cff_services
j4i:_DefaultComparer__ctor_m1661558765_gshared
i9g:_GUILayoutEntry_CalcWidth_m2520096159
wd:_glVertexAttribIPointer
hqg:_UnhandledExceptionEventHandler_EndInvoke_m2207457167
_Lh:_Dictionary_2_System_Collections_ICollection_get_IsSynchronized_m304009368_gshared
ttd:_HMAC_set_HashName_m457235014
$8b:__ZNK6Sprite10GetPaddingE20SpriteRenderDataMode
Gqe:_Array_InternalArray__ICollection_Contains_TisTableRange_t2011406615_m605506746_gshared
uMh:_Dictionary_2_Add_m1296007576_gshared
Nfe:_Decimal_op_Explicit_m729046406
Dcg:_CryptoConfig_CreateFromName_m2169102076
YSd:_Graphic_OnEnable_m2900261811
Gcg:_CryptographicUnexpectedOperationException__ctor_m3552441227
a6d:_ArrayListWrapper_Clear_m321161741
YXd:_InputField_LineDownCharacterPosition_m2690468785
T6c:_UNITY_ft_glyphslot_alloc_bitmap
qDe:_Array_Sort_TisVector2_t2243707579_TisVector2_t2243707579_m2582252549_gshared
Sog:_UInt64_System_IConvertible_ToDouble_m2828923873
PHj:__ZN15dense_hashtableI10KeyWrapperIPK17Il2CppGenericInstES4_N6il2cpp8metadata21Il2CppGenericInstHashEN14dense_hash_setIS4_S7_NS4_14EqualsComparerINS6_24Il2CppGenericInstCompareEEENSt3__29allocatorIS4_EEE8IdentityESB_SE_E16reset_thresholdsEv
F0b:__ZZN2UI13RectTransform15InitializeClassEvEN31FunctorImpl_62kTransformChanged4CallEPviR11MessageData
vjf:_List_1_System_Collections_IList_set_Item_m1129584681_gshared
xig:_SendOrPostCallback__ctor_m107067079
n8c:_ft_raster1_render
akc:__Z57Register_UnityEngine_RectTransform_INTERNAL_set_anchorMaxv
pef:_List_1_set_Capacity_m491101164_gshared
spk:__ZNKSt3__221__basic_string_commonILb1EE20__throw_length_errorEv
bgg:_StringBuilder_Insert_m1733097906
G5i:_Comparer_1__ctor_m1157133632_gshared
yTf:_SslStreamBase_get_HashStrength_m480059173
XKa:__ZN18GfxFramebufferGLES13ReadbackImageER14ImageReferenceiiiiii
EKh:_ValueCollection_System_Collections_Generic_ICollectionU3CTValueU3E_Clear_m3271993638_gshared
gFg:__Z35RuntimeInvoker_Position_t3781184359PFvvEPK10MethodInfoPvPS4_
Ibe:_Enumerator_MoveNext_m1419609883
LL:__ZN4FMOD7Channel19setReverbPropertiesEPK29FMOD_REVERB_CHANNELPROPERTIES
$3:__ZN13MonoBehaviour22GetScriptFullClassNameEv
dQj:_il2cpp_object_get_class
czc:__ZN11MinMaxCurve19GetWritableMinCurveEv
X_h:__ZL111DerivedType_t1016359113_CustomAttributesCacheGenerator_DerivedType_MakeGenericType_m742223168____typeArguments0P21CustomAttributesCache
lij:_Vector2__cctor_m3670745621
mFf:_ReadOnlyCollection_1_Contains_m1816350632_gshared
TWf:_ServicePointManager_FindServicePoint_m3137356168
Sua:__ZN20SphericalHarmonicsL211AddWeightedERKS_f
Swi:__ZL106PointerEventData_t1599784723_CustomAttributesCacheGenerator_PointerEventData_set_pressPosition_m2094137883P21CustomAttributesCache
wKd:_PointerInputModule_GetPointerData_m1695674453
Izg:__Z90RuntimeInvoker_Void_t1841601450_RuntimeObject_RuntimeObject_RuntimeObject_SByte_t454417549PFvvEPK10MethodInfoPvPS4_
kKb:__Z19TransferField_ArrayI17RemapPPtrTransfer27Converter_SimpleNativeClassI8GUIStyleEEvRK23StaticTransferFieldInfoR31RuntimeSerializationCommandInfoRT0_
w1:__ZL22StaticInitializeShaderPv
Jge:_Convert_ToUInt64_m345450801
UBj:_Predicate_1_BeginInvoke_m2559992383_gshared
rsc:__ZN9JSONWrite8TransferI10ColorRGBAfEEvRT_PKc17TransferMetaFlags
eDh:_Debug_Log_m920475918
VAf:_ReadOnlyCollection_1_get_Item_m1909688500_gshared
v4:__Z25scripting_method_get_name18ScriptingMethodPtr
jkc:__Z35Register_UnityEngine_Resources_Loadv
LIb:__Z19TransferField_ArrayI14SafeBinaryRead16Converter_StringEvRK23StaticTransferFieldInfoR31RuntimeSerializationCommandInfoRT0_
Nok:_rename
UGc:__ZN14ParticleSystem17SimulateParticlesER24ParticleSystemUpdateDataR23ParticleSystemParticlesjRKfPj
Mgk:_GC_exit_check
$gj:_Transform_INTERNAL_CALL_TransformDirection_m2899991790
bZe:_NotSupportedException__ctor_m3232764727
hWf:_TypeConverterAttribute_Equals_m2330345916
WNc:__ZL24GenerateParticleGeometryIL24ParticleSystemRenderMode0ELb1ELb1EL25ParticleSystemRenderSpace4EEvPfRK22ParticleSystemTempDataRK26ParticleSystemRendererDataRK21ParticleSystemModulesRK23ParticleSystemParticlesRK31ParticleSystemParticlesTempData
dri:__ZL86GUIStyle_t1799908754_CustomAttributesCacheGenerator_GUIStyle_get_alignment_m3513439031P21CustomAttributesCache
GEg:__Z90RuntimeInvoker_Boolean_t3825574718_Int32_t2071877448_Int32U26_t455636984_Int32_t2071877448PFvvEPK10MethodInfoPvPS4_
$2:__Z20UnlockObjectCreationv
XFg:__Z54RuntimeInvoker_Int32_t2071877448_LayerMask_t3188175821PFvvEPK10MethodInfoPvPS4_
HQe:_MonoIO_CreateDirectory_m379525469
sve:__ZN21InterfaceFuncInvoker2Ii22UILineInfo_t3621277874S0_E6InvokeEjP11Il2CppClassP12Il2CppObjectS0_S0_
DA:__ZN9BlobWrite8TransferI22OffsetPtrArrayTransferI9OffsetPtrIN7mecanim12statemachine18StateMachineMemoryEEEEEvRT_PKc17TransferMetaFlags
u4c:_UNITY_ft_smooth_renderer_class_pic_free
fmf:_List_1_System_Collections_IList_Remove_m3763718607_gshared
Oyh:_Bounds_get_center_m129401026
tR:__ZN19AudioPlayableOutput22OnConnectionHashChangeEv
ADd:_String_Concat_m2000667605
zEj:__ZN24dense_hashtable_iteratorINSt3__24pairIK10KeyWrapperIPK22Il2CppGenericParameterEP11Il2CppClassEES6_N6il2cpp5utils11PointerHashIS4_EEN14dense_hash_mapIS6_S9_SE_NS6_14EqualsComparerINS0_8equal_toIS5_EEEENS0_9allocatorISA_EEE9SelectKeyESJ_SL_E30advance_past_empty_and_deletedEv
NLj:__ZN6il2cpp2os19SocketHandleWrapperC2ERKS1_
_bk:__ZN6il2cpp2vm6String8NewUtf16EPKDsi
p9j:__ZN6il2cpp2os10ThreadImpl12QueueUserAPCEPFvPvES2_
UI:__Z32TransferEnumWithNameForceIntSizeI14SafeBinaryReadN10SampleClip17CompressionFormatEEvRT_RT0_PKc17TransferMetaFlags
xod:__ZN22BaseUnityConnectClient10QueueEventERN11UnityEngine15CloudWebService17CloudServiceEventEPKcjb
rNg:__Z71RuntimeInvoker_Bounds_t3033363703_RuntimeObject_Matrix4x4U26_t266301477PFvvEPK10MethodInfoPvPS4_
hHe:_ExecuteEvents_GetEventHandler_TisRuntimeObject_m3333041576_gshared
zjf:__ZN23InterfaceActionInvoker2IP28UICharInfoU5BU5D_t2749705857iE6InvokeEjP11Il2CppClassP12Il2CppObjectS1_i
Wgi:__ZL81Input_t1785128008_CustomAttributesCacheGenerator_Input_get_touchCount_m2050827666P21CustomAttributesCache
vNj:__ZNSt3__26__treeIP11Il2CppClassNS_4lessIS2_EENS_9allocatorIS2_EEE16__insert_node_atEPNS_16__tree_node_baseIPvEERSB_SB_
Jxd:_SHA384Managed_unpackWord_m2501009050
pGc:__Z9UpdateTplIL27ParticleSystemCurveEvalMode1EEvRK11MinMaxCurveR23ParticleSystemParticlesjjbjRK8Vector2f
W0d:_BitConverter_ToInt64_m1329623425
p1b:__ZN8RendererC2E12RendererType18MemLabelIdentifier18ObjectCreationMode
d6h:__ZL95ASCIIEncoding_t3022927988_CustomAttributesCacheGenerator_ASCIIEncoding_GetByteCount_m1396020051P21CustomAttributesCache
qPj:_il2cpp_class_is_abstract
Mf:_emscripten_glGetError
iXj:__ZN15dense_hashtableINSt3__24pairIK10KeyWrapperIPK14Il2CppAssemblyEPK22Il2CppMonoAssemblyNameEES6_N6il2cpp5utils11PointerHashIS4_EEN14dense_hash_mapIS6_SA_SF_NS6_14EqualsComparerINS0_8equal_toIS5_EEEENS0_9allocatorISB_EEE9SelectKeyESK_SM_E14squash_deletedEv
isg:__Z70RuntimeInvoker_Boolean_t3825574718_RuntimeObject_UInt64U26_t1611942494PFvvEPK10MethodInfoPvPS4_
yM:__Z14FMOD_FILE_SeekPvjS_
i4f:_MethodCall_get_Properties_m1893707917
eWh:__ZL72Enum_t2459695545_CustomAttributesCacheGenerator_Enum_ToObject_m604645223P21CustomAttributesCache
PHh:_ShimEnumerator_get_Entry_m2387156530_gshared
vWh:__ZL82RuntimeArray_CustomAttributesCacheGenerator_Array_SetValue_m2421438042____indices1P21CustomAttributesCache
zJj:__ZN14dense_hash_mapI10KeyWrapperIN6il2cpp5utils13dynamic_arrayIPK10Il2CppTypeLj4EEEEPFvvENS1_8metadata19Il2CppSignatureHashENS8_14EqualsComparerINSB_22Il2CppSignatureCompareEEENSt3__29allocatorINSG_4pairIKS8_SA_EEEEEC2EjRKSC_RKSF_
wmd:__Z56Register_UnityEngine_Analytics_CustomEventData_AddStringv
$7a:__ZNK13RenderTexture32CalculateNeedsInvertedProjectionEv
yfb:__ZN10systeminfo18GetOperatingSystemEv
Uf:emscriptenWebGLGet
Smh:_Rect_GetHashCode_m559954498_AdjustorThunk
C6:__Z19CanReplaceComponentRN5Unity9ComponentEPKNS_4TypeEPN4core12basic_stringIcNS5_20StringStorageDefaultIcEEEE
uXh:__ZL77RuntimeArray_CustomAttributesCacheGenerator_Array_ConstrainedCopy_m1922927602P21CustomAttributesCache
Z2b:__ZN12CubemapArray11InitTextureEiii13TextureFormatb
ukf:_List_1_GrowIfNeeded_m2433342921_gshared
vzc:__ZN32CustomDataModulePropertyBindings13SetFloatValueER14ParticleSystemif
cQa:__ZNK15Lz4Decompressor20DecompressStreamInitEPPv
GIj:__ZNSt3__27__sort4IRN6il2cpp5utils11collections13ArrayValueMapIPK10Il2CppType17Il2CppInteropData26InteropDataToTypeConverterNS1_8metadata14Il2CppTypeLessENSA_26Il2CppTypeEqualityComparerEE12SortComparerEPS8_EEjT0_SH_SH_SH_T_
Isf:_Collection_1_set_Item_m3803272710_gshared
Zgh:_Mesh_SetUVs_m841280343
u5g:_MonoMethodInfo_t3646562144_marshal_pinvoke_cleanup
j_f:_X509Certificate2_get_SignatureAlgorithm_m3069898012
IWf:_HttpRequestCreator__ctor_m2513916021
lOe:_Int64_System_IConvertible_ToSingle_m1678482180
L9b:__Z18SetIParticleSystemP15IParticleSystem
kdh:_GUIStyle_INTERNAL_CALL_Internal_CalcSizeWithConstraints_m1203344891
kB:__ZN7mecanim5human13HumanFixTwistEPKNS0_5HumanEPNS_8skeleton13SkeletonPoseTIN4math4trsXEEES9_iiRKf
o1a:__ZL24AssignProjectorQueuesJobP30AssignProjectorQueuesJobHeader
hkg:_TimeSpan_get_Hours_m3804628138
fSd:_FontData_set_alignByGeometry_m2819509290
e6j:__ZN14dense_hash_mapI10KeyWrapperIP12Il2CppObjectEN6il2cpp2gc9CachedCCWENS4_5utils11PointerHashIS1_EENS3_14EqualsComparerINSt3__28equal_toIS2_EEEENSB_9allocatorINSB_4pairIKS3_S6_EEEEEC2EjRKS9_RKSE_
B7i:_Regex__ctor_m3250610064
fJj:__ZN15dense_hashtableINSt3__24pairIK10KeyWrapperIN6il2cpp5utils13dynamic_arrayIPK10Il2CppTypeLj4EEEEPFvvEEESA_NS3_8metadata19Il2CppSignatureHashEN14dense_hash_mapISA_SD_SG_NSA_14EqualsComparerINSF_22Il2CppSignatureCompareEEENS0_9allocatorISE_EEE9SelectKeyESK_SM_E4swapERSP_
QXb:__ZN9ShaderLab20SerializedSubProgram14SetConstBufferEPKci
zFc:__ZN11ShapeModule9ResetSeedERK27ParticleSystemReadOnlyState
N8e:_ArgumentNullException__ctor_m911049464
N3g:_TargetParameterCountException__ctor_m2760108938
J5f:_SoapAttribute_SetReflectionObject_m2774156012
Psj:_Check_Source_m3385315029
Xoj:_InvokableCall_4_Find_m1467690987_gshared
XGf:_Comparison_1_Invoke_m345024424_gshared
nad:_cf2_getStdVW
ZDf:_ReadOnlyCollection_1_System_Collections_IList_Insert_m3936197025_gshared
noe:_EventHandler_BeginInvoke_m3027583606
q$:__Z40DebugStringToFilePostprocessedStacktraceRK21DebugStringToFileData
lxc:__Z29Transfer_Blittable_ArrayFieldI8JSONReadjEvRT_R9ArrayInfoRK23StaticTransferFieldInfo
Eej:_StateMachineBehaviour_OnStateEnter_m1095276890
oih:_Object_GetInstanceID_m1920497914
pSi:_ContextAttribute__ctor_m4006843177
p$i:_InternalEnumerator_1_get_Current_m314017974_AdjustorThunk
zg:__setLetterbox
nSe:_MemoryStream__ctor_m1043059966
Soa:__ZNSt3__26__treeINS_12__value_typeIN9ShaderLab16FastPropertyNameEfEENS_19__map_value_compareIS3_S4_NS_4lessIS3_EELb1EEENS_9allocatorIS4_EEE12__find_equalIS3_EERPNS_16__tree_node_baseIPvEENS_21__tree_const_iteratorIS4_PNS_11__tree_nodeIS4_SE_EEiEESH_RKT_
yfj:_TextGenerator_Populate_Internal_m1817393161
eZh:__ZL57CollectionBase_t1101587467_CustomAttributesCacheGeneratorP21CustomAttributesCache
k5f:__ZN21InterfaceFuncInvoker3IP12Il2CppObjectP6Type_t28StreamingContext_t1417235061PS1_E6InvokeEjP11Il2CppClassS1_S3_S4_S5_
Svb:__ZNSt3__26vectorI17BlendShapeChannelNS_9allocatorIS1_EEE6assignINS_11__wrap_iterIPS1_EEEENS_9enable_ifIXaasr21__is_forward_iteratorIT_EE5valuesr16is_constructibleIS1_NS_15iterator_traitsISA_E9referenceEEE5valueEvE4typeESA_SA_
fZd:_LayoutElement_set_preferredWidth_m3072758716
Tpj:_UnityEvent_1_AddListener_m1708363187_gshared
UYf:_AsnEncodedData_ToString_m724151831
LVa:__ZN11TimeManager11GetRealtimeEv
Drf:_Collection_1_System_Collections_IList_get_IsFixedSize_m2408637569_gshared
Hhg:_UTF8Encoding_GetByteCount_m1469571127
jgk:_GC_print_block_list
Krd:__ZN20UnityWebRequestProtoI19TransportJavaScript16AtomicRefCounter14RedirectHelper14ResponseHelper15DownloadHandler13UploadHandler12HeaderHelper14AsyncOperationE26Job_ExecuteUnityWebRequestEPS8_
LM:__ZN29AudioEffectInternalDefinitionC2EP26UnityAudioEffectDefinitionb
X3g:_MonoMethodInfo_GetDeclaringType_m4186531677
h6f:_SoapTypeAttribute_SetReflectionObject_m1566293812
MQh:_DefaultComparer__ctor_m418731767_gshared
nD:__ZN4PPtrI6AvatarE8TransferI18StreamedBinaryReadILb0EEEEvRT_
$Ac:__ZNK11MinMaxCurve20FindMinMaxIntegratedEv
wvj:_Enumerator_System_Collections_IEnumerator_Reset_m2573763156_AdjustorThunk
F7f:_RemotingServices_CreateClientProxy_m1631035355
wpg:_UInt64_ToString_m2892887310
qri:__ZL88GUIStyle_t1799908754_CustomAttributesCacheGenerator_GUIStyle_set_fixedHeight_m1517737608P21CustomAttributesCache
kDd:_String_System_IConvertible_ToType_m512800076
nbk:__ZN15dense_hashtableINSt3__24pairIK10KeyWrapperIPK19Il2CppGenericMethodEP10MethodInfoEES6_N6il2cpp8metadata23Il2CppGenericMethodHashEN14dense_hash_mapIS6_S9_SD_NS6_14EqualsComparerINSC_26Il2CppGenericMethodCompareEEENS0_9allocatorISA_EEE9SelectKeyESH_SJ_EC2ERKSM_j
KVj:__ZN15dense_hashtableINSt3__24pairIK10KeyWrapperINS1_IPK12PropertyInfoP11Il2CppClassEEEjEES9_17ReflectionMapHashIS8_EN14dense_hash_mapIS9_jSD_NS9_14EqualsComparerINS0_8equal_toIS8_EEEENS0_9allocatorISB_EEE9SelectKeyESI_SK_E5clearEv
cxb:__ZN4PPtrI4MeshE8TransferI14SafeBinaryReadEEvRT_
dYc:__ZN24b2ChainAndCapsuleContact6CreateEP9b2FixtureiS1_iP16b2BlockAllocator
DQa:__Z37ReadDirectoryInfo_UnityWebAndUnityRawR12FileAccessorRKN20ArchiveStorageHeader6HeaderERNS1_13DirectoryInfoE
due:_Array_InternalArray__IEnumerable_GetEnumerator_TisInt64_t909078037_m1219751804_gshared
b1:__ZNSt3__26__treeINS_12__value_typeIPKciEENS_19__map_value_compareIS3_S4_15compare_tstringIS3_ELb1EEENS_9allocatorIS4_EEE7destroyEPNS_11__tree_nodeIS4_PvEE
YXh:__ZL96RuntimeTypeHandle_t2330101084_CustomAttributesCacheGenerator_RuntimeTypeHandle_Equals_m452760426P21CustomAttributesCache
RPh:_Dictionary_2_ToTValue_m1381983709_gshared
VYe:_MulticastDelegate_KPM_m1592985119
RHg:__Z64RuntimeInvoker_Playable_t1896841784_AudioClipPlayable_t192218916PFvvEPK10MethodInfoPvPS4_
izf:_Collection_1_ConvertItem_m3941916604_gshared
y_a:__ZN20DynamicPropertySheet14SetValueQueuedEN9ShaderLab16FastPropertyNameEN19ShaderPropertySheet12PropertyTypeEjNS2_8SetFlagsE
phd:__ZN2UI6Canvas26MarkAllNestedCanvasesDirtyEv
p3j:__ZN6il2cpp2vm12ReboxIfBoxedEP14Il2CppIUnknownP11Il2CppClass
ckf:_List_1__ctor_m2766376432_gshared
Odb:__ZN25PathNamePersistentManagerD2Ev
U2:__ZN17PersistentManager48IntegrateObjectAndUnlockIntegrationMutexInternalEi
HEf:_ReadOnlyCollection_1_System_Collections_IList_get_IsReadOnly_m3872065502_gshared
z$h:__ZL112TypeBuilder_t3308873219_CustomAttributesCacheGenerator_TypeBuilder_MakeGenericType_m4282022646____typeArguments0P21CustomAttributesCache
Fda:__ZZ29InitializeSortingGroupManagerPvEN44PostLateUpdateSortingGroupsUpdateRegistrator7ForwardEv
Hp:__ZN6Object12SetHideFlagsENS_9HideFlagsE
pZc:__ZN9b2Fixture11SynchronizeEP12b2BroadPhaseRK11b2TransformS4_
swk:_emscripten_glGetFramebufferAttachmentParameteriv__wrapper
TVa:__ZN13RendererScene15InitializeUmbraEv
Nvh:_AnimatorTransitionInfo_IsName_m2561957738_AdjustorThunk
Cua:__Z28CalculateGlobalMatrixInverse23TransformAccessReadOnly
vuc:__ZN4PPtrI6ObjectE8TransferI9JSONWriteEEvRT_
wKc:__ZN23ParticleSystemParticles17SetUsesCustomDataEi
fYh:__ZL60SecurityAttribute_t2016950496_CustomAttributesCacheGeneratorP21CustomAttributesCache
Ivb:__ZN13dynamic_arrayI12BoneWeights4Lj16EE18resize_initializedEjRKS0_12ResizePolicy
rKd:_PointerEventData_ToString_m1218584363
N3d:_Char_System_IConvertible_ToChar_m1489061093_AdjustorThunk
Xgg:_UTF7Encoding_GetCharCount_m2589913583
dvi:__ZL117RenderPipelineManager_t984453155_CustomAttributesCacheGenerator_RenderPipelineManager_set_currentPipeline_m3825706412P21CustomAttributesCache
Y3:__ZN13MonoBehaviour19ReleaseMonoInstanceEv
eTe:_MemoryStream_CalculateNewCapacity_m3533542025
$kk:__ZN6il2cpp6icalls8mscorlib6System6Object7GetTypeEP12Il2CppObject
yri:__ZL88GUIStyle_t1799908754_CustomAttributesCacheGenerator_GUIStyle_GetFontInternal_m3509743324P21CustomAttributesCache
Ikg:_TimeSpan_Equals_m4102942751_AdjustorThunk
DKh:_ValueCollection_System_Collections_Generic_ICollectionU3CTValueU3E_Add_m1903672223_gshared
Lrd:__ZN12HeaderHelper14SetUnvalidatedERKN4core12basic_stringIcNS0_20StringStorageDefaultIcEEEES6_b
eJ:__ZN4FMOD6SoundI7releaseEv
Qxb:__ZN14SpriteRenderer13AwakeFromLoadE17AwakeFromLoadMode
SKd:_MouseButtonEventData__ctor_m618518000
rRa:__ZN10MemoryFile9SetLengthEy
Ing:_UInt16_ToString_m2038947049_AdjustorThunk
FKc:__ZN11ShapeModule17DidModifyMeshDataEv
oSc:__ZNK15b2RevoluteJoint10GetAnchorBEv
vqb:__ZN14SafeBinaryRead21TransferSTLStyleArrayI13dynamic_arrayI7Hash128Lj8EEEEvRT_17TransferMetaFlags
XDb:__Z28scripting_class_is_interface17ScriptingClassPtr
Oh:_glTexStorage2D
EXb:__ZNK9ShaderLab10SubProgram14EnsureCompiledEv
lrg:__Z79RuntimeInvoker_Boolean_t3825574718_RuntimeObject_RuntimeObject_SByte_t454417549PFvvEPK10MethodInfoPvPS4_
$9f:_ObjectManager_RecordFixup_m3572285566
XZh:__ZL55DaylightTime_t3800227331_CustomAttributesCacheGeneratorP21CustomAttributesCache
Fae:_SortedList_InitTable_m460350503
l4:__Z18BuildScriptClassId17ScriptingClassPtr
hYi:_InternalEnumerator_1_get_Current_m4279678504_AdjustorThunk
_q:__ZNK16LevelGameManager7GetNameEv
Frf:_Collection_1_System_Collections_IList_get_Item_m2415649949_gshared
D3b:__ZN8Renderer28HandleParentHierarchyChangesEPK23TransformAccessReadOnlyj
L0g:_ILTokenInfo_t149559338_marshal_pinvoke_cleanup
Cfa:__ZL31DeleteLastPathNameComponentImplRKN4core12basic_stringIcNS_20StringStorageDefaultIcEEEEPKc
a$b:__Z13RegisterClassI18DelayedCallManagerEvv
Jod:__ZN18UnityConnectClient15GetCloudServiceEv
yKb:__Z18Transfer_BlittableI24GenerateTypeTreeTransferLb0EiEvRK29SerializationCommandArgumentsR31RuntimeSerializationCommandInfo
JXc:__ZN15b2CircleContact6CreateEP9b2FixtureiS1_iP16b2BlockAllocator
RDb:__ZL28SerializationCommandGroupForRK31TransferFunctionScriptingTraits17ScriptingClassPtr17ScriptingFieldPtrRK20CoreScriptingClasses
Tib:__ZN10TagManager32RegisterDefaultTagsAndLayerMasksEv
Erj:_TweenRunner_1_StopTween_m2135918118_gshared
DLh:_ValueCollection_get_Count_m4142113966_gshared
pkh:_PlayableHandle_SetDuration_m1990009798_AdjustorThunk
mKj:__ZN15dense_hashtableINSt3__24pairIK10KeyWrapperIPKcEP11Il2CppClassEES5_N6il2cpp5utils11StringUtils12StringHasherIS4_EEN14dense_hash_mapIS5_S8_SE_NS5_14EqualsComparerINSB_13VmStringUtils21CaseSensitiveComparerEEENS0_9allocatorIS9_EEE9SelectKeyESJ_SL_E15insert_noresizeERKS9_
Eig:_SynchronizationLockException__ctor_m549086841
Bki:__ZL105RectTransform_t3349966182_CustomAttributesCacheGenerator_RectTransform_INTERNAL_get_sizeDelta_m3975625099P21CustomAttributesCache
Emd:__Z56Register_UnityEngine_Analytics_CustomEventData_AddUInt32v
y5d:_ArrayList_InsertRange_m1478230997
DFa:__ZN4gles8InitCapsEP7ApiGLESP12GraphicsCapsR16GfxDeviceLevelGL
qpa:__ZN6prcore14BlitImageFloatERK14ImageReferenceRS0_NS0_8BlitModeE
r0d:_Swapper_EndInvoke_m677693941
Wwa:__Z24CalculateVertexLightDataRK15SharedLightDataR14GfxVertexLight
igh:_Matrix4x4_Equals_m1321236479_AdjustorThunk
wei:__ZL99Camera_t189460977_CustomAttributesCacheGenerator_Camera_INTERNAL_CALL_ScreenToWorldPoint_m196899300P21CustomAttributesCache
wi:_glEnable
Bsa:__ZN15dense_hashtableINSt3__24pairIKiiEEi21InstanceIDHashFunctorN14dense_hash_mapIiiS4_NS0_8equal_toIiEE13stl_allocatorIS3_L18MemLabelIdentifier1ELi16EEE9SelectKeyES7_SA_E12maybe_shrinkEv
xYa:__ZNK25CameraStackRenderingState21GetImageEffectTextureEb
_ag:_RuntimeMethodHandle__ctor_m2437574937_AdjustorThunk
pWh:__ZL72RuntimeArray_CustomAttributesCacheGenerator_Array_get_Length_m1498215565P21CustomAttributesCache
ftc:__Z35Transfer_Blittable_FixedBufferFieldI9JSONWriteiEvRK29SerializationCommandArgumentsR31RuntimeSerializationCommandInfo
Yji:__ZL99Transform_t3275118058_CustomAttributesCacheGenerator_Transform_INTERNAL_get_localPosition_m94028171P21CustomAttributesCache
hng:_UInt16_System_IConvertible_ToInt64_m2835280558_AdjustorThunk
nlh:_Quaternion_GetHashCode_m2270520528_AdjustorThunk
Adi:__ZL53g_UnityEngine_Assembly_CustomAttributesCacheGeneratorP21CustomAttributesCache
Dnj:_Predicate_1_BeginInvoke_m3926587117_gshared
WKc:__ZN11TrailModuleD2Ev
zBb:__ZNSt3__26vectorI4PPtrI6ObjectE13stl_allocatorIS3_L18MemLabelIdentifier51ELi16EEE6assignINS_11__wrap_iterIPS3_EEEENS_9enable_ifIXaasr21__is_forward_iteratorIT_EE5valuesr16is_constructibleIS3_NS_15iterator_traitsISD_E9referenceEEE5valueEvE4typeESD_SD_
Ax:__ZN26AnimatorControllerPlayable17ProcessRootMotionEP35AnimationPlayableEvaluationConstantP32AnimationPlayableEvaluationInputP33AnimationPlayableEvaluationOutput
ihf:_List_1_get_Item_m1231764300_gshared
Drg:__Z94RuntimeInvoker_Boolean_t3825574718_Int32_t2071877448_SByte_t454417549_ExceptionU26_t1467204777PFvvEPK10MethodInfoPvPS4_
hQd:_DefaultControls_CreateToggle_m1568873127
Tnf:_List_1__cctor_m1022807427_gshared
UYh:__ZL63KeyNotFoundException_t1722175009_CustomAttributesCacheGeneratorP21CustomAttributesCache
BPh:_Dictionary_2_InitArrays_m2270022740_gshared
ice:_Convert_ToBoolean_m2188088811
rnd:__ZN11UnityEngine7Connect15DeviceInfoEvent16CollectExtraInfoEv
FIg:__Z50RuntimeInvoker_AnimationOffsetPlayable_t1019600543PFvvEPK10MethodInfoPvPS4_
mgg:_UnicodeEncoding_GetChars_m3765282346
$Oe:_IntPtr__ctor_m4104029105
F3h:__ZL114BinaryFormatter_t1866979105_CustomAttributesCacheGenerator_BinaryFormatter_get_DefaultSurrogateSelector_m219714691P21CustomAttributesCache
B0i:_InternalEnumerator_1_System_Collections_IEnumerator_get_Current_m771161214_AdjustorThunk
TXe:_MonoType_get_attributes_m1493788675
Rok:_atol
Cik:__ZN6il2cpp6icalls8mscorlib6System10Reflection9FieldInfo25internal_from_handle_typeE12Il2CppIntPtrS5_
Gee:_Convert_ToDouble_m4236754739
DSf:_SslClientStream_get_PrivateKeyCertSelectionDelegate_m3715949545
hHj:__ZN15dense_hashtableINSt3__24pairIK10KeyWrapperIPKcEP11Il2CppClassEES5_N6il2cpp5utils11StringUtils12StringHasherIS4_EEN14dense_hash_mapIS5_S8_SE_NS5_14EqualsComparerINSB_13VmStringUtils21CaseSensitiveComparerEEENS0_9allocatorIS9_EEE9SelectKeyESJ_SL_EC2EjRKSE_RKSJ_RKSN_
xRd:_Dropdown_CreateItem_m2702141380
TFf:_ReadOnlyCollection_1_IndexOf_m224962127_gshared
BZh:__ZL48Stack_t1043988394_CustomAttributesCacheGeneratorP21CustomAttributesCache
To:FUNCTION_TABLE_viifi
Uo:FUNCTION_TABLE_viiff
tU:__Z75AudioPlayableGraphExtensions_CUSTOM_INTERNAL_CALL_InternalCreateAudioOutputR14HPlayableGraphP12Il2CppStringP15HPlayableOutput
RPg:__Z59RuntimeInvoker_Boolean_t3825574718_ResourceInfo_t3933049236PFvvEPK10MethodInfoPvPS4_
g4g:_MonoEvent_GetAddMethod_m4289563120
HXh:__ZL37Type_t_CustomAttributesCacheGeneratorP21CustomAttributesCache
bed:_UNITY_tt_face_free_hdmx
SYc:__ZNSt3__26__sortIRN18Overlap2DQueryBase29ColliderHitsByDepthComparitorEPP10Collider2DEEvT0_S7_T_
sZj:__ZN15dense_hashtableINSt3__24pairIK10KeyWrapperINS1_IP11Il2CppClassjEEES4_EES6_N6il2cpp8metadata14ArrayClassHashEN14dense_hash_mapIS6_S4_SB_NS6_14EqualsComparerINSA_17ArrayClassCompareEEENS0_9allocatorIS8_EEE9SelectKeyESF_SH_E5clearEv
GGj:__ZNSt3__218uninitialized_copyIPNS_4pairIK10KeyWrapperIPK11Il2CppClassEPKcEESB_EET0_T_SD_SC_
SQj:__ZN6il2cpp2vm14TypeNameParser5ParseEb
jGi:_ReflectionMethodsCache__ctor_m1835220
$Yh:__ZL71SynchronizedArrayListWrapper_t3317806524_CustomAttributesCacheGeneratorP21CustomAttributesCache
Uqd:__ZN23UnityPurchasingSettingsC2Ev
Ume:_Double_ToString_m1864290157
qqk:__ZNSt9bad_allocD0Ev
AAg:__Z50RuntimeInvoker_Int64_t909078037_Double_t4078015681PFvvEPK10MethodInfoPvPS4_
Z8:__ZNSt3__26__treeINS_12__value_typeI18VertexChannelsInfo16MeshVertexFormatEENS_19__map_value_compareIS2_S4_NS_4lessIS2_EELb1EEE13stl_allocatorIS4_L18MemLabelIdentifier16ELi16EEE12__find_equalIS2_EERPNS_16__tree_node_baseIPvEENS_21__tree_const_iteratorIS4_PNS_11__tree_nodeIS4_SF_EEiEESI_RKT_
rxf:_Collection_1_System_Collections_IList_get_Item_m1122792492_gshared
Sva:__ZL37stbir__resample_horizontal_downsampleP11stbir__infoiPf
Gtf:__ZN21InterfaceFuncInvoker1Ib18Color32_t874517518E6InvokeEjP11Il2CppClassP12Il2CppObjectS0_
Zsa:__ZNK5Unity9Component38MarkGameObjectAndComponentDependenciesER27GarbageCollectorThreadState
F$:__ZL16OutOfMemoryErrorjj18MemLabelIdentifieriPKc
a7d:_SynchronizedArrayListWrapper_Contains_m2259439339
LR:__ZNK7Texture21GetShadowSamplingModeEv
M4:__ZNK11TypeManager15ClassNameToRTTIEPKcb
uea:__ZN13ScreenManager21OnWindowRegainedFocusEv
ORb:__Z18Transfer_BlittableI18StreamedBinaryReadILb0EELb1EdEvRK29SerializationCommandArgumentsR31RuntimeSerializationCommandInfo
nAh:_WillRenderCanvases_BeginInvoke_m1914028027
XKe:_Guid__ctor_m2599802704
FRe:_FileStream_get_CanRead_m4148920720
Esd:__ZN13RuntimeStaticINSt3__26vectorIPN5physx15PxVehicleWheelsENS0_9allocatorIS4_EEEELb0EE13StaticDestroyEPv
TTg:__Z31RuntimeInvoker_Link_t2723257478PFvvEPK10MethodInfoPvPS4_
gIa:__ZN4crnd12symbol_codec32decode_receive_static_data_modelERNS_25static_huffman_data_modelE
A0b:__ZN18ScriptingArguments8AddFloatEf
qJe:_GregorianCalendar_set_CalendarType_m2438362222
DPd:_FloatTween_get_targetValue_m2120061648_AdjustorThunk
ivg:__Z44RuntimeInvoker_RuntimeTypeHandle_t2330101084PFvvEPK10MethodInfoPvPS4_
Hre:_Array_InternalArray__ICollection_Contains_TisVector2_t2243707579_m3625698589_gshared
Ztc:__Z18Transfer_BlittableI9JSONWriteLb0EaEvRK29SerializationCommandArgumentsR31RuntimeSerializationCommandInfo
trg:__Z45RuntimeInvoker_SByte_t454417549_RuntimeObjectPFvvEPK10MethodInfoPvPS4_
HV:__ZN11UnityEngine15CloudWebService14DataDispatcher34OnSessionContainerArchivedAndReadyERNS0_16SessionContainerE
oUc:__ZN7b2World11CreateJointEPK10b2JointDef
$Je:_NumberFormatInfo_GetFormat_m3247563525
qHc:__ZN23ParticleSystemParticles20SetUsesTriggerEventsEb
Z7h:__ZL77Convert_t2607082565_CustomAttributesCacheGenerator_Convert_ToByte_m2303223565P21CustomAttributesCache
BMf:_CipherSuiteCollection__ctor_m2154226461
GMb:__Z18Transfer_BlittableI19StreamedBinaryWriteILb0EELb0E8Vector3fEvRK29SerializationCommandArgumentsR31RuntimeSerializationCommandInfo
E8g:_RectOffset__ctor_m2227510254
PTb:__ZN14SafeBinaryRead19TransferSTLStyleMapINSt3__23mapIN4core12basic_stringIcNS3_20StringStorageDefaultIcEEEEiNS1_4lessIS7_EENS1_9allocatorINS1_4pairIKS7_iEEEEEEEEvRT_17TransferMetaFlags
aVj:__ZN15dense_hashtableINSt3__24pairIK10KeyWrapperINS1_IPK11Il2CppImageP11Il2CppClassEEEjEES9_17ReflectionMapHashIS8_EN14dense_hash_mapIS9_jSD_NS9_14EqualsComparerINS0_8equal_toIS8_EEEENS0_9allocatorISB_EEE9SelectKeyESI_SK_ED2Ev
K5c:_gray_move_to
Hdg:_DSAParameters_t1872138834_marshal_pinvoke
UDg:__Z37RuntimeInvoker_ContentType_t859870085PFvvEPK10MethodInfoPvPS4_
Eyf:_Collection_1_System_Collections_IEnumerable_GetEnumerator_m4174600764_gshared
vTi:_ConstructionCall_InitDictionary_m4046452035
WVj:__ZN6il2cpp2vm10Reflection14GetEventObjectEP11Il2CppClassPK9EventInfo
UNf:_TlsStream_Write_m2271546135
xbc:__Z30RegisterValidateMethodCallbackiPF18ScriptingMethodPtrS_17ScriptingClassPtrP6ObjectEPKc
Wfa:__ZN20LocalFileSystemPosixD0Ev
Kni:__ZL133AnimatorControllerPlayable_t1744083903_CustomAttributesCacheGenerator_AnimatorControllerPlayable_INTERNAL_CALL_GetFloatID_m1278007428P21CustomAttributesCache
Rpe:_CultureInfo_ConstructInternalLocaleFromCurrentLocale_m1342751405
jIc:__Z25GetTransformationMatricesPN4math8float3x3ES1_bbRK10Matrix4x4fS4_
rfg:_Latin1Encoding_GetString_m3553289597
FEc:__ZN4PPtrI14ParticleSystemE8TransferI19StreamedBinaryWriteILb0EEEEvRT_
g7c:_tt_cmap_init
La:invoke_viidi
KGh:_Enumerator_get_Current_m1020413567_AdjustorThunk
Hef:_List_1_System_Collections_IList_get_IsFixedSize_m1122077912_gshared
O5j:__ZN15dense_hashtableI10KeyWrapperIP18Il2CppGenericClassES3_N6il2cpp8metadata22Il2CppGenericClassHashEN14dense_hash_setIS3_S6_NS3_14EqualsComparerINS5_25Il2CppGenericClassCompareEEENSt3__29allocatorIS3_EEE8IdentityESA_SD_E12maybe_shrinkEv
e0b:__ZN9TextAssetC2E18MemLabelIdentifier18ObjectCreationMode
DDh:_Display_RecreateDisplayList_m3412638488
EVj:__ZN15dense_hashtableINSt3__24pairIK10KeyWrapperINS1_IPK12PropertyInfoP11Il2CppClassEEEjEES9_17ReflectionMapHashIS8_EN14dense_hash_mapIS9_jSD_NS9_14EqualsComparerINS0_8equal_toIS8_EEEENS0_9allocatorISB_EEE9SelectKeyESI_SK_E8min_sizeEjj
A9h:__ZL79Convert_t2607082565_CustomAttributesCacheGenerator_Convert_ToUInt64_m2215781574P21CustomAttributesCache
_Bk:_emscripten_glCheckFramebufferStatus__wrapper
E_j:__ZNK15dense_hashtableINSt3__24pairIK10KeyWrapperIP11Il2CppClassES4_EES5_N6il2cpp8metadata16SZArrayClassHashEN14dense_hash_mapIS5_S4_SA_NS5_14EqualsComparerINS9_19SZArrayClassCompareEEENS0_9allocatorIS7_EEE9SelectKeyESE_SG_E12test_deletedEj
Fwc:__Z18Transfer_BlittableI8JSONReadLb0EdEvRK29SerializationCommandArgumentsR31RuntimeSerializationCommandInfo
lPg:__Z83RuntimeInvoker_Boolean_t3825574718_NavigationU26_t3929175072_Navigation_t1571958496PFvvEPK10MethodInfoPvPS4_
Xjf:_List_1_TrimExcess_m2004514756_gshared
Yig:_Thread_ClrState_m822263449
I$e:_SimpleCollator_LastIndexOfOrdinalIgnoreCase_m550798345
ddh:_GUIStyle_INTERNAL_CALL_Internal_GetCursorStringIndex_m3074318281
aBa:__ZNK9GfxDevice13GetViewMatrixEv
jta:__ZN17RemapPPtrTransferC2E24TransferInstructionFlagsb
H5:__ZN8TypeTree8BlobReadERPKhS1_ib
WMh:_Dictionary_2_System_Collections_Generic_ICollectionU3CSystem_Collections_Generic_KeyValuePairU3CTKeyU2CTValueU3EU3E_Remove_m3080541539_gshared
uta:__ZN18LoadSceneOperation23GetAllowSceneActivationEv
erh:_AnimationPlayableOutput_op_Implicit_m1147972631
Qjb:__ZN6CameraD0Ev
h1e:_ModulusRing_Multiply_m386339435
Mba:__ZN31CanvasBatchIntermediateRenderer16StaticInitializeEPv
PTd:_GraphicRaycaster_U3CRaycastU3Em__0_m3971200721
rCf:_ReadOnlyCollection_1_System_Collections_IList_RemoveAt_m3004588099_gshared
Mw:__ZN7mecanim12AndValueMaskILb0EEEvPKNS_14ValueArrayMaskEPS1_
mee:_Decimal_op_Implicit_m4246329390
P8e:_ArgumentNullException__ctor_m2252076819
y9a:__ZN10GameObjectC2E18MemLabelIdentifier18ObjectCreationMode
M4c:_raccess_guess_apple_double
BRg:__Z70RuntimeInvoker_Void_t1841601450_CustomAttributeNamedArgument_t94157543PFvvEPK10MethodInfoPvPS4_
iVf:_ListDictionary_GetEnumerator_m1511032609
z_g:_TypeBuilder_get_FullName_m1626507516
x9f:_SerializationInfo__ctor_m4016423422
cJa:__ZL18ProgramUniform1uivPK7ApiGLESjiihPKv
fAc:__ZN27ShapeModulePropertyBindings13GetFloatValueERK14ParticleSystemi
i3b:__ZN14Texture2DArray13RebuildMipMapEv
gGj:__ZN13Il2CppHashSetIPK17Il2CppGenericInstN6il2cpp8metadata21Il2CppGenericInstHashENS4_24Il2CppGenericInstCompareENSt3__29allocatorI10KeyWrapperIS2_EEEEC2EjRKS5_RKS6_
EGb:__Z18Transfer_BlittableI14SafeBinaryReadLb1EaEvRK29SerializationCommandArgumentsR31RuntimeSerializationCommandInfo
yak:__ZN6il2cpp2gc16GarbageCollector14RemoveWeakLinkEPPv
RXb:__ZN9ShaderLab20SerializedSubProgram14AddVectorParamEPKcii15ShaderParamTypei
qgf:_List_1_System_Collections_Generic_IEnumerableU3CTU3E_GetEnumerator_m3123730956_gshared
Zid:__ZN2UI14CanvasRenderer12CleanupClassEv
_Ef:_ReadOnlyCollection_1_System_Collections_IEnumerable_GetEnumerator_m1734360860_gshared
oRh:_DefaultComparer__ctor_m1052417779_gshared
oBd:_SystemException__ctor_m2688248668
cOi:_ResourceSet_ReadResources_m1669023823
Y6e:_PKCS12_RemoveCertificate_m1590055870
q$j:__ZN6il2cpp2vm6Thread7SetNameEP12Il2CppThreadP12Il2CppString
c$h:__ZL117GenericTypeParameterBuilder_t1370236603_CustomAttributesCacheGenerator_GenericTypeParameterBuilder_Equals_m2498927509P21CustomAttributesCache
Oga:__ZN13ScreenManager18SetAllowCursorLockEb
$W:__ZN11UnityEngine15CloudWebService10RestClientINS0_23WebRequestRestHeaderMapEE16SetRequestHeaderERKN4core12basic_stringIcNS4_20StringStorageDefaultIcEEEESA_
pCb:__ZN30RuntimeInitializeOnLoadManager15ClassMethodInfo8TransferI14SafeBinaryReadEEvRT_
cGc:__ZN23ParticleSystemParticles14element_assignEjj
SBi:__ZL73CanvasScaler_t2574720772_CustomAttributesCacheGenerator_m_ScreenMatchModeP21CustomAttributesCache
BT:__ZL22InitializeModule_Audiov
Keb:__ZN16MemoryFileSystem8IsLockedERK13FileEntryData
Nhj:_Vector2_get_Item_m2792130561_AdjustorThunk
P3g:_MonoCMethod_Invoke_m931478014
btg:__Z86RuntimeInvoker_Int32_t2071877448_Int16_t4041245914_Int32_t2071877448_Int32_t2071877448PFvvEPK10MethodInfoPvPS4_
jOi:_SatelliteContractVersionAttribute__ctor_m2605651717
dl:_emscripten_glBindRenderbuffer
Vpc:__Z32GUIStyle_Set_Custom_PropClippingP12Il2CppObjecti
TFd:_DecoderExceptionFallbackBuffer_GetNextChar_m1727394816
Hgk:_GC_dirty_init
D$d:_Array_Copy_m1969461849
R8f:_MessageFormatter_ReadMethodResponse_m4134629501
l7j:__ZN6il2cpp2vm5Field14GetValueObjectEP9FieldInfoP12Il2CppObject
rid:__ZNK2UI6Canvas16GetTargetDisplayEv
zkj:_PKCS12_GetSymmetricAlgorithm_m3196291685
$Ai:__ZL68Selectable_t1490392188_CustomAttributesCacheGenerator_m_InteractableP21CustomAttributesCache
Xrj:_ListPool_1__cctor_m709904475_gshared
aoe:_Environment_get_OSVersion_m1247315981
v9:__ZN6Object17FindObjectsOfTypeEPKN5Unity4TypeER13dynamic_arrayIPS_Lj4EEb
p7b:__ZNSt3__26vectorINS_4pairIiiEE13stl_allocatorIS2_L18MemLabelIdentifier1ELi16EEE21__push_back_slow_pathIKS2_EEvRT_
d1f:_Capture_get_Length_m1952322390
Guc:__ZN9JSONWrite8TransferI4PPtrI9Texture2DEEEvRT_PKc17TransferMetaFlags
oDb:__ZN13MonoBehaviour17RemoveFromManagerEv
pkb:__ZN12ImageFilters14AddImageFilterERK11ImageFilter
gjd:__ZL23RegisterModuleICalls_UIv
Vsb:__ZL11DecodeValuePPKcS0_
oIh:_ShimEnumerator_MoveNext_m2013866013_gshared
r_:__ZN13MemoryManagerC2Ev
$La:__ZN12SkinMeshInfo10DeallocateEPS_
Wgj:_Transform_SetParent_m1963830867
fmi:__ZL66AnimationOffsetPlayable_t1019600543_CustomAttributesCacheGeneratorP21CustomAttributesCache
ETa:__ZN20ArchiveStorageReader28AcquireAndPrefillUnusedBlockEjPNS_11CacheResultE
b3b:__Z12NHxRoughnessIA4_tEvP9Texture2DPT_iiii
dgj:_Touch_get_phase_m196706494_AdjustorThunk
ayj:__ZL25UnresolvedVirtualCall_105P12Il2CppObjecthPK10MethodInfo
H4f:_MethodDictionary_get_SyncRoot_m673971424
W9:__ZN18AsyncUploadManagerD2Ev
FZb:__ZN9Transform5ResetEv
rMb:__Z22TransferField_NonArrayI24GenerateTypeTreeTransfer16Converter_StringEvRK23StaticTransferFieldInfoR31RuntimeSerializationCommandInfoRT0_
Z6c:_UNITY_FT_CMap_New
Uxh:_AudioMixerPlayable_Equals_m3014217409_AdjustorThunk
JOc:__ZL35RegisterModuleICalls_ParticleSystemv
Ega:__Z17MainLoopKeepalivePv
k6i:_MatchCollection__ctor_m1944681790
Ytd:_HMACSHA512__ctor_m1667460019
u6a:__Z24ScheduleCullingAllGroupsR8JobFenceRK22SceneCullingParameters4PPtrI6CameraERK13CullingOutputRK13dynamic_arrayIP12CullingGroupLj4EERKS_
Imk:_printf_core
Ayd:_ToBase64Transform_get_OutputBlockSize_m949275583
fzf:_Collection_1_set_Item_m3254085220_gshared
G5a:__Z14CalcHullBoundsPK8Vector3fPKhhRK5PlaneRK10Matrix4x4fR10MinMaxAABB
R6f:_RealProxy__ctor_m2147093603
Zlh:_RaycastHit2D_get_point_m442317739_AdjustorThunk
$Eb:__ZN11PreloadData39ShouldIgnoreInGarbageDependencyTrackingEv
MQ:__ZNK14SoundHandleAPI12GetFrequencyEv
Xlf:_List_1__ctor_m3511181530_gshared
t_a:__Z19SetupLODFadeKeywordR17ShaderPassContexti
CCf:_ReadOnlyCollection_1_get_Count_m2180604490_gshared
$Mb:__Z18Transfer_BlittableI19StreamedBinaryWriteILb0EELb0E5RectTIfEEvRK29SerializationCommandArgumentsR31RuntimeSerializationCommandInfo
lfk:_GC_set_fl_marks
uLa:__ZL25CheckCopyTextureArgumentsRK7ApiGLESP11GLESTextureS3_
tAc:__ZN24UVModulePropertyBindings13AddPropertiesER10vector_mapIi22ParticleModulePropertyNSt3__24lessIiEENS2_9allocatorINS2_4pairIiS1_EEEEE
P9:__ZN13dynamic_arrayI26EnlightenSystemInformationLj8EE6insertEPS0_PKS0_S4_
D6c:_tt_name_entry_ascii_from_utf16
XYe:_MulticastNotSupportedException__ctor_m2164514827
hhe:_DateTime_System_IConvertible_ToChar_m2489529194_AdjustorThunk
WLb:__Z29Transfer_Blittable_ArrayFieldI24GenerateTypeTreeTransferyEvRT_R9ArrayInfoRK23StaticTransferFieldInfo
bM:__ZN4FMOD7SystemI9playSoundE17FMOD_CHANNELINDEXPNS_5SoundEbPPNS_7ChannelE
Jwh:_AttributeHelperEngine_GetRequiredComponents_m120894667
KWh:__ZL74RuntimeArray_CustomAttributesCacheGenerator_Array_BinarySearch_m1368352453P21CustomAttributesCache
WZ:__GLOBAL__sub_I_runtime_graphics_mesh2_lump_cpp
Cti:__ZL68PreferBinarySerialization_t2472773525_CustomAttributesCacheGeneratorP21CustomAttributesCache
I8h:__ZL78Convert_t2607082565_CustomAttributesCacheGenerator_Convert_ToSByte_m1183867428P21CustomAttributesCache
Lw:__ZN27AnimationLayerMixerPlayable17LayerMixerProcessEP35AnimationPlayableEvaluationConstantP32AnimationPlayableEvaluationInputP33AnimationPlayableEvaluationOutputM17AnimationPlayableFvS1_S3_S5_EMS_FvS1_S3_S5_ESA_MS_FvS5_S1_S3_S5_ifE
PQj:__ZN6il2cpp2os4File4ReadEPNS0_10FileHandleEPciPi
FK:__ZN12AudioManager23VirtualRedirectTransferER18StreamedBinaryReadILb0EE
kdf:_List_1_Remove_m2616693989_gshared
xvb:__ZN10VertexData13SwapEndianessEv
cpk:_realloc
rzc:__ZN27ColorModulePropertyBindings13GetFloatValueERK14ParticleSystemi
Xlc:__Z57Register_UnityEngine_Transform_INTERNAL_get_localRotationv
Bzg:__Z65RuntimeInvoker_Void_t1841601450_RuntimeObject_DateTime_t693205669PFvvEPK10MethodInfoPvPS4_
ylg:_Type_get_IsInterface_m3583817465
cCb:__ZN30RuntimeInitializeOnLoadManager23VirtualRedirectTransferER17RemapPPtrTransfer
ftk:dynCall_viif
z4g:_MonoField_get_DeclaringType_m1591666235
vVi:_InternalEnumerator_1__ctor_m2111763266_AdjustorThunk
y3f:_Enumerator_MoveNext_m4234629003
obd:_cf2_hint_lock
KJb:__ZL26Transfer_SimpleNativeClassI17RemapPPtrTransfer8GradientLb0EEvRK29SerializationCommandArgumentsR31RuntimeSerializationCommandInfo
mOc:__ZL32TransformParticleMeshAnimatedUVsILb1EEvRK16ParticleMeshDataiRK22ParticleSystemTempDataRK31ParticleSystemParticlesTempData11ColorRGBA32RK26ParticleSystemRendererDataRK21ParticleSystemModulesRK10Matrix4x4fRK10Matrix3x3fRK8Vector3fRK23ParticleSystemParticlesjPPhPPf
yWh:__ZL69RuntimeArray_CustomAttributesCacheGenerator_Array_GetValue_m518505780P21CustomAttributesCache
HBg:__Z52RuntimeInvoker_UInt64_t2909196914_Single_t2076509932PFvvEPK10MethodInfoPvPS4_
bQg:__Z59RuntimeInvoker_Boolean_t3825574718_RaycastHit2D_t4063908774PFvvEPK10MethodInfoPvPS4_
O8h:__ZL78Convert_t2607082565_CustomAttributesCacheGenerator_Convert_ToSByte_m1880147062P21CustomAttributesCache
UXe:_MonoType_GetDefaultConstructor_m925465120
mmg:_Type_IsArrayImpl_m3073208555
JX:__ZN13UploadHandlerD2Ev
trk:dynCall_viiiiiffi
Ski:__ZL95Physics2D_t2540166467_CustomAttributesCacheGenerator_Physics2D_Raycast_m2303387255____distance2P21CustomAttributesCache
Oc:_emscripten_glBlendFuncSeparate
$$g:_GenericTypeParameterBuilder_IsPrimitiveImpl_m1198748291
d2:__Z20scripting_string_newPKc
pkc:__Z43Material_CUSTOM_Internal_CreateWithMaterialP12Il2CppObjectS0_
AQe:_Directory_GetCurrentDirectory_m44486537
aui:__ZL56UnityEventBase_t828812576_CustomAttributesCacheGeneratorP21CustomAttributesCache
Zpf:_Collection_1_System_Collections_ICollection_CopyTo_m1047946700_gshared
ZWc:__ZN16PhysicsManager2D20GetRigidBodyVelocityERK11Rigidbody2D
vfe:_Convert_ToInt64_m4057339019
$Yf:_AsnEncodedData_Default_m4197142414
r$j:__ZN6il2cpp2vm6Thread13MemoryBarrierEv
b_j:__ZNSt3__218uninitialized_copyIPNS_4pairIK10KeyWrapperIP11Il2CppClassES4_EES8_EET0_T_SA_S9_
DQj:__ZN6il2cpp2os4File17GetFileAttributesERKNSt3__212basic_stringIcNS2_11char_traitsIcEENS2_9allocatorIcEEEEPi
UB:__ZNSt3__26__sortIRPFbPKN8Animator11AnimatorJobES4_EPS4_EEvT0_S9_T_
VJ:__ZN17AudioCustomFilterD2Ev
jI:__Z91Register_UnityEngine_Animations_AnimatorControllerPlayable_INTERNAL_CALL_ResetTriggerStringv
Xyj:__ZL25UnresolvedVirtualCall_154P12Il2CppObject40CustomAttributeTypedArgument_t1498197914S1_PK10MethodInfo
MZb:__ZN9Transform16ResetReplacementEv
akh:_PlayableHandle_GetPlayState_m514486667
yoc:__ZNK8GUIStyle13GetLineHeightEv
EKa:__ZN18GfxFramebufferGLES18ReleaseFramebufferEP17RenderSurfaceBaseP14GfxContextGLES
ERi:_Context_GetDynamicPropertyCollection_m1987747444
OOh:_Dictionary_2_make_pair_m1307594529_gshared
m_f:_X509Certificate2_get_Version_m1927399907
$4b:__ZN13ProduceHelperI6CameraLb0EE7ProduceE18MemLabelIdentifier18ObjectCreationMode
vVd:_Image_RadialCut_m3229543088
fZ:__ZN19CloudServiceHandler34HandleSaveFileWebRequestPlayerLoopEv
ay:__ZN7mecanim21ValueArrayReverseCopyEPKNS_18ValueArrayConstantEPKNS_10ValueArrayES2_PS3_PKi
GJ:__Z31GetParentSampleClipFromInstancePN11SoundHandle8InstanceE
H0b:__ZNK28RectTransformPropertyBinding13GetFloatValueERKN11UnityEngine9Animation10BoundCurveE
w8a:__ZN6Camera22StandaloneCustomRenderENS_10RenderFlagEP6ShaderRKN4core12basic_stringIcNS3_20StringStorageDefaultIcEEEEPNS_21PerformRenderFunctionE
wlk:__ZN6il2cpp2os16ThreadLocalValue8GetValueEPPv
tKj:__ZN6il2cpp2vm13MetadataCache14GetGenericInstEPKPK10Il2CppTypej
Bxd:_SHA384Managed_Initialize_m712692291
qWi:_InternalEnumerator_1__ctor_m2688327768_gshared
eQi:_ChannelInfo__ctor_m2502026239
Wb:invoke_iiidii
d1h:__ZL60CallingConvention_t3354538265_CustomAttributesCacheGeneratorP21CustomAttributesCache
omc:__Z52Object_CUSTOM_GetOffsetOfInstanceIDInCPlusPlusObjectv
cS:__ZN9AudioClip15InitializeClassEv
Ap:setThrew
V2b:__ZL21BuildEmptyCubeTexturePKci11ColorRGBA3217TextureColorSpace
STb:__ZN14SafeBinaryRead21TransferSTLStyleArrayINSt3__26vectorIN9ShaderLab20SerializedSubProgramENS1_9allocatorIS4_EEEEEEvRT_17TransferMetaFlags
wLd:_StandaloneInputModule_set_cancelButton_m2642677329
Mvc:__Z15Transfer_StringI8JSONReadLb1EEvRK29SerializationCommandArgumentsR31RuntimeSerializationCommandInfo
Mqa:__ZN6prcoreL17RemapGenericFloatI17TexFormatRGBFloat15TexFormatRGHalfEEvPKNS_9InnerInfoE
L$a:__Z25DoForwardShaderRenderLoopR17RenderLoopContextR13dynamic_arrayI16RenderObjectDataLj4EERK11CullResultsbbbN6Camera10RenderFlagE
yGe:_GameObject_GetComponent_TisRuntimeObject_m2812611596_gshared
b6c:_sfnt_load_face
f6e:_PKCS12_GetSymmetricAlgorithm_m1812022677
lhg:_UTF8Encoding_GetByteCount_m2372933408
BRi:_Context_get_NeedsContextSink_m1907794755
U5c:_UNITY_ft_service_list_lookup
oJf:_ARC4Managed_GenerateKey_m716135508
DJb:__Z18Transfer_BlittableI17RemapPPtrTransferLb1E11ColorRGBA32EvRK29SerializationCommandArgumentsR31RuntimeSerializationCommandInfo
boc:__ZN5IMGUI21SelectReceivingWindowER8GUIStateb
qF:__ZNK26AnimatorControllerPlayable17ValidateGoToStateERiS0_
g0i:_InternalEnumerator_1_get_Current_m3179981210_gshared
agb:__ZN13BaseAllocator13TryDeallocateEPv
iOb:__Z29Transfer_Blittable_ArrayFieldI19StreamedBinaryWriteILb0EEfEvRT_R9ArrayInfoRK23StaticTransferFieldInfo
n$d:_Array_CreateInstance_m1054139389
Dah:_GUIStyleState_GetGUIStyleState_m2816150617
VWi:_InternalEnumerator_1__ctor_m967618647_AdjustorThunk
seb:__ZN16MemoryFileSystem5WriteER13FileEntryDatayPvPy
ERc:__ZNK12b2MotorJoint17GetReactionTorqueEf
QMh:_Dictionary_2_System_Collections_ICollection_get_IsSynchronized_m1738433079_gshared
ykb:__ZNSt3__26vectorIN12FlareManager10FlareEntryENS_9allocatorIS2_EEE21__push_back_slow_pathIKS2_EEvRT_
$Xg:_Default_check_arguments_with_score_m1714931543
Ysd:_SHA1_Create_m4086509717
jqj:_UnityEvent_1_GetDelegate_m3098147632_gshared
xQg:__Z111RuntimeInvoker_Int32_t2071877448_RuntimeObject_AnimatorClipInfo_t3905751349_Int32_t2071877448_Int32_t2071877448PFvvEPK10MethodInfoPvPS4_
i5g:_MonoMethodInfo_GetMethodInfo_m3298558752
qK:__ZN13AudioListener17RemoveFromManagerEv
Id:_glAttachShader
BRd:_Dropdown_SetAlpha_m2769981009
nZa:__ZNK6Camera19GetProjectionMatrixEv
eCj:_Predicate_1_BeginInvoke_m1856151290_gshared
Ule:_StackTrace__ctor_m2404985356
V3:__Z38PreallocateObjectFromPersistentManagerib
vhe:_DateTime_System_IConvertible_ToSingle_m3927769066
t3f:_CostDelegate__ctor_m80452417
YZ:__GLOBAL__sub_I_runtime_interfaces_lump_cpp
Zob:__ZNK9Texture2D20GetUnscaledTextureIDEv
Gfe:_Convert_ToSByte_m883113940
azk:_glFenceSync__wrapper
woe:_Exception_get_Message_m173095527
mI:__Z103Register_UnityEngine_Animations_AnimatorControllerPlayable_INTERNAL_CALL_IsParameterControlledByCurveIDv
opf:_Queue_1_Peek_m1463479953_gshared
Rzc:__ZNK14ParticleSystem7GetLoopEv
oxh:_AudioClipPlayable_INTERNAL_CALL_GetStartDelayInternal_m3715907549
pzi:__ZL53InputField_t1631627530_CustomAttributesCacheGeneratorP21CustomAttributesCache
aNd:_ButtonClickedEvent__ctor_m938038541
ESb:__ZN18StreamedBinaryReadILb0EE21TransferSTLStyleArrayI13dynamic_arrayI4AABBLj4EEEEvRT_17TransferMetaFlags
hAg:__Z119RuntimeInvoker_Int32_t2071877448_RuntimeObject_Int32_t2071877448_Int32_t2071877448_CharU26_t1894467670_SByte_t454417549PFvvEPK10MethodInfoPvPS4_
bng:_UInt16_System_IConvertible_ToDouble_m4100549304_AdjustorThunk
Yta:__Z29ClearRepeatingLogMessageStatev
fCd:_Single_System_IConvertible_ToInt16_m962677079
j9:__ZN21EnlightenSceneMappingaSERKS_
Kxf:_Collection_1_SetItem_m546457615_gshared
Olk:__ZNK6il2cpp8metadata21Il2CppGenericInstHashclEPK17Il2CppGenericInst
tCd:_Single_System_IConvertible_ToUInt32_m2447833283
VDf:_ReadOnlyCollection_1_System_Collections_IList_Add_m3806843030_gshared
tPa:__ZN7ApiGLESD2Ev
hab:__ZN9Transform47ClearTransformHierarchyAndApplyToSerializedDataEv
D_i:_InternalEnumerator_1_get_Current_m4083613828_AdjustorThunk
cvd:_RijndaelManaged_GenerateKey_m3366247933
gQe:_BinaryReader_ReadUInt64_m1893783375
dzh:_Bounds_op_Equality_m2161830280
Udb:__ZN17PersistentManager9AddStreamEv
ytk:dynCall_fidi
$Sj:__ZN15dense_hashtableINSt3__24pairIK10KeyWrapperINS1_IPK9FieldInfoP11Il2CppClassEEEjEES9_17ReflectionMapHashIS8_EN14dense_hash_mapIS9_jSD_NS9_14EqualsComparerINS0_8equal_toIS8_EEEENS0_9allocatorISB_EEE9SelectKeyESI_SK_E12resize_deltaEjj
Uqc:__Z47Register_UnityEngine_GUIStyle_set_imagePositionv
vqc:__Z49GUIStyle_CUSTOM_INTERNAL_CALL_Internal_DrawCursor13Il2Cpp_IntPtrRK5RectTIfEP12Il2CppObjectiRK10ColorRGBAf
YHi:_ScrollRect_set_movementType_m3292965850
R7h:__ZL59AttributeTargets_t1984597432_CustomAttributesCacheGeneratorP21CustomAttributesCache
fnh:_RectTransform_set_anchorMin_m4247668187
lY:__ZN11UnityEngine15CloudWebService14RestDownloaderD2Ev
Pcb:__Z29StdTemplateConversionFunctionIjhEbPvR14SafeBinaryRead
Ucf:_List_1_GrowIfNeeded_m2986672263_gshared
TUi:_ArrayReadOnlyList_1_Remove_m2325516426_gshared
o9d:_Hashtable_get_Count_m830088216
sbc:__ZNK13MonoBehaviour13GetScriptTypeEv
Gia:__ZN13RenderTexture12SetDimensionE16TextureDimension
tdj:_ScriptableObject_CreateInstance_m3921674852
QJf:_MD4Managed__ctor_m796835377
xe:_SDL_FreeRW
w4e:_PKCS1_OS2IP_m1273945439
bxd:_SHA1Internal_FillBuff_m891541953
hbi:__ZL62ResolveEventHandler_t3842432458_CustomAttributesCacheGeneratorP21CustomAttributesCache
Kjd:__Z34CanvasRenderer_Get_Custom_PropCullP12Il2CppObject
vUi:_ArrayReadOnlyList_1_get_IsReadOnly_m2717922212_gshared
SP:__ZN20SoundChannelInstance8getDelayE14FMOD_DELAYTYPEPjS1_
vjk:__ZNSt3__26__treeINS_12__value_typeIPvxEENS_19__map_value_compareIS2_S3_NS_4lessIS2_EELb1EEENS_9allocatorIS3_EEE12__find_equalIS2_EERPNS_16__tree_node_baseIS2_EESF_RKT_
AWd:_InputField_set_customCaretColor_m3534590098
gIi:_ScrollRect_set_viewport_m323693490
d5h:__ZL66RijndaelManagedTransform_t135163252_CustomAttributesCacheGeneratorP21CustomAttributesCache
xIe:_NumberFormatter_FormatExponential_m3975285307
q1c:__ZNSt3__26vectorIN20TextRenderingPrivate8FontImpl13CharacterInfoE13stl_allocatorIS3_L18MemLabelIdentifier1ELi16EEE8__appendEj
v:tempBigInt
Fe:_emscripten_glVertexAttrib1fv
wUb:__ZNSt3__26vectorIN9ShaderLab20SerializedSubProgram12UAVParameterENS_9allocatorIS3_EEE7reserveEj
Joh:_AnimationCurve_Init_m1486386337
aCh:_Component_GetComponents_m3712441745
kXd:_InputField_get_selectionAnchorPosition_m466595604
o7h:__ZL99Thread_t241561612_CustomAttributesCacheGenerator_Thread_t241561612____ExecutionContext_PropertyInfoP21CustomAttributesCache
$Fd:_DecoderReplacementFallback_get_DefaultString_m3399348550
Ppj:_UnityAction_4_Invoke_m3312096275_gshared
cDi:__ZL111LayoutUtility_t4076838048_CustomAttributesCacheGenerator_LayoutUtility_U3CGetPreferredHeightU3Em__5_m1524880643P21CustomAttributesCache
HUj:__ZN24dense_hashtable_iteratorINSt3__24pairIK10KeyWrapperINS1_IPK10MethodInfoP11Il2CppClassEEEjEES9_17ReflectionMapHashIS8_EN14dense_hash_mapIS9_jSD_NS9_14EqualsComparerINS0_8equal_toIS8_EEEENS0_9allocatorISB_EEE9SelectKeyESI_SK_E30advance_past_empty_and_deletedEv
lcj:_RectTransformUtility_ScreenPointToRay_m1842507230
K7a:__ZN16ReflectionProbes16UpdateSampleDataEv
DIc:__Z9UpdateTplIL27ParticleSystemCurveEvalMode1EEvRK11MinMaxCurveR23ParticleSystemParticlesjjPKN4math8floatNx3E
sFb:__ZN14SafeBinaryRead21TransferSTLStyleArrayI10vector_setI4PPtrI10MonoScriptENSt3__24lessIS4_EE13stl_allocatorIS4_L18MemLabelIdentifier76ELi16EEEEEvRT_17TransferMetaFlags
xPi:_SafeHandle_Finalize_m1839546519
Dub:__ZN14Texture2DArray5ResetEv
rxc:__ZN8JSONRead21TransferSTLStyleArrayINSt3__26vectorI10RectOffset13stl_allocatorIS3_L18MemLabelIdentifier1ELi16EEEEEEvRT_S5_17TransferMetaFlags
G2i:_InternalEnumerator_1_MoveNext_m252820768_AdjustorThunk
kSi:_Context_AllocateNamedDataSlot_m3200404053
vJf:_CryptoConvert_ToHex_m2874017189
kZf:_X509EnhancedKeyUsageExtension_Decode_m3866320499
tIe:_NumberFormatter_AppendIntegerStringWithGroupSeparator_m1401773574
Hmf:_List_1_Remove_m1237648310_gshared
QLf:_CipherSuite_get_ServerHMAC_m3566778727
HZh:__ZL64DebuggerBrowsableState_t944457511_CustomAttributesCacheGeneratorP21CustomAttributesCache
af:_JS_Sound_Play
KVd:_Image_IsRaycastLocationValid_m864962354
qwg:__Z181RuntimeInvoker_Void_t1841601450_RuntimeObject_Int32_t2071877448_Int32_t2071877448_RuntimeObject_Int32_t2071877448_Int32_t2071877448_RuntimeObject_Int32_t2071877448_Int32_t2071877448PFvvEPK10MethodInfoPvPS4_
tTb:__ZN9ShaderLab16SerializedShader8TransferI14SafeBinaryReadEEvRT_
Ixa:__ZN5Mutex7TryLockEv
mB:__ZN7mecanim8skeleton13SkeletonAlignEPKNS0_8SkeletonERKN4math7_float4ES7_i
O3b:__ZN19ShaderPropertySheet16SetVectorIndexedEN9ShaderLab16FastPropertyNameEifRK8Vector4fNS_8SetFlagsE
Tq:__ZN14SafeBinaryRead21TransferSTLStyleArrayIN4core12basic_stringIcNS1_20StringStorageDefaultIcEEEEEEvRT_17TransferMetaFlags
l7f:_RemotingConfiguration_RegisterWellKnownServiceType_m2491506630
ogi:__ZL89Screen_t786852042_CustomAttributesCacheGenerator_Screen_t786852042____height_PropertyInfoP21CustomAttributesCache
_1h:__ZL55_TypeBuilder_t2783404358_CustomAttributesCacheGeneratorP21CustomAttributesCache
Tzj:__ZL25UnresolvedVirtualCall_204P12Il2CppObjectPK10MethodInfo
rdb:__Z29StdTemplateConversionFunctionIayEbPvR14SafeBinaryRead
sgf:_List_1_System_Collections_IEnumerable_GetEnumerator_m2923618987_gshared
pif:_List_1_System_Collections_IList_IndexOf_m4061554721_gshared
OY:__ZN11UnityEngine15CloudWebService14DataDispatcher4StopEv
eqh:_AnimationLayerMixerPlayable_SetLayerAdditive_m4206337590_AdjustorThunk
LBc:__ZN15CollisionModule16CheckConsistencyEv
yUb:__ZNSt3__26vectorIN9ShaderLab20SerializedSubProgram12UAVParameterENS_9allocatorIS3_EEE8__appendEj
ysf:_Collection_1_GetEnumerator_m434271983_gshared
AWj:__ZNK15dense_hashtableINSt3__24pairIK10KeyWrapperINS1_IPK9EventInfoP11Il2CppClassEEEjEES9_17ReflectionMapHashIS8_EN14dense_hash_mapIS9_jSD_NS9_14EqualsComparerINS0_8equal_toIS8_EEEENS0_9allocatorISB_EEE9SelectKeyESI_SK_E12test_deletedERK24dense_hashtable_iteratorISB_S9_SD_SM_SI_SK_E
jzd:_X509Certificate_ToString_m1582581274
eKh:_Enumerator_get_Current_m2986380627_gshared
qla:__ZN17ScriptingGCHandle7AcquireE18ScriptingObjectPtr25ScriptingGCHandleWeakness
lRi:_LifetimeServices_set_LeaseTime_m1487876644
lZg:_ConstructorBuilder_not_supported_m3687319507
NT:__ZN19AudioPlayableOutputC2EjP13PlayableGraph
EXh:__ZL48IList_t3321498491_CustomAttributesCacheGeneratorP21CustomAttributesCache
kCd:_Single_System_IConvertible_ToInt64_m3555853323_AdjustorThunk
P3i:_InternalEnumerator_1__ctor_m3901400705_AdjustorThunk
lsk:dynCall_iifiii
Cva:__Z21HasAlphaTextureFormat13TextureFormat
KS:__ZN12AudioManager6UpdateEv
xva:__ZN14ImageReference9BlitImageERKS_NS_8BlitModeE
Z4g:_MonoMethod_get_MethodHandle_m1882915015
Ns:__ZN8Animator12AddToManagerEv
a0h:__ZL93ConstructorInfo_t2851816542_CustomAttributesCacheGenerator_ConstructorInfo_Invoke_m2144827141P21CustomAttributesCache
o9b:__Z26ApplyBlendShapesToVerticesR12SkinMeshInfoRKN4math5_int4EPNS1_8floatNx3ES6_
XHh:_ShimEnumerator_get_Key_m1171725158_gshared
kEb:__ZN23CachedSerializationDataD2Ev
o7a:__ZNK25CameraStackRenderingState31CalculateStereoCameraTargetTypeEv
Nmb:__ZN14RenderSettings23VirtualRedirectTransferER14SafeBinaryRead
_Pc:__ZNK13b2CircleShape5CloneEP16b2BlockAllocator
x9j:__ZN6il2cpp2os10ThreadImpl15CurrentThreadIdEv
qxf:_Collection_1_System_Collections_IList_get_IsReadOnly_m4005091053_gshared
ure:_Array_InternalArray__ICollection_Contains_TisColor32_t874517518_m2818328910_gshared
Elb:__ZN17GlobalGameManager8TransferI17RemapPPtrTransferEEvRT_
w8e:_AppDomainInitializer_EndInvoke_m4003801172
mXh:__ZL66RuntimeArray_CustomAttributesCacheGenerator_Array_Sort_m2544329074P21CustomAttributesCache
Ylh:_RaycastHit2D_get_point_m442317739
zmb:__ZN16LevelGameManager8TransferI18StreamedBinaryReadILb0EEEEvRT_
ged:_UNITY_tt_face_load_fpgm
Xyb:__ZN12InputManagerD0Ev
Hjk:__ZN6il2cpp6icalls8mscorlib6System11Diagnostics10StackTrace9get_traceEP15Il2CppExceptionib
VPd:_DefaultControls_CreateUIObject_m2810394112
och:_GUIStyle_get_overflow_m1125058093
Xua:__ZNK16LightmapSettings14GetLightProbesEv
dIi:_ScrollRect_get_scrollSensitivity_m1160815603
ggg:_UnicodeEncoding_GetBytes_m1337660232
kRb:__Z18Transfer_BlittableI18StreamedBinaryReadILb0EELb1EtEvRK29SerializationCommandArgumentsR31RuntimeSerializationCommandInfo
hpk:_posix_memalign
c4b:__ZN13ProduceHelperI12MeshRendererLb0EE7ProduceE18MemLabelIdentifier18ObjectCreationMode
Lof:_List_1_get_Count_m1249351212_gshared
N3i:_InternalEnumerator_1_get_Current_m747506907_AdjustorThunk
pzh:_Camera_get_eventMask_m4241372419
Tzg:__Z38RuntimeInvoker_PaddingMode_t3032142640PFvvEPK10MethodInfoPvPS4_
ILf:_CertificateValidationCallback2_BeginInvoke_m3996282202
BSf:_SslClientStream_get_ClientCertSelectionDelegate_m2316959461
Z6d:_SynchronizedArrayListWrapper_get_SyncRoot_m1466044127
_4:__ZNK15MonoScriptCache7ReleaseEv
XEj:__ZN6il2cpp2vm5Class13HasReferencesEP11Il2CppClass
pg:_glBindTexture
vsf:_Collection_1_ClearItems_m3585785594_gshared
wnk:_snprintf
hCi:__ZL84HorizontalOrVerticalLayoutGroup_t1968298610_CustomAttributesCacheGenerator_m_SpacingP21CustomAttributesCache
gjg:_ThreadAbortException__ctor_m1623816114
HXg:_Binder__ctor_m1361613966
hXd:_InputField_set_caretPosition_m888572237
C0g:_ILGenerator__cctor_m3943061018
o6d:_ArrayListWrapper_Clone_m1506311066
jEh:_Event_get_character_m3740896233
Jsa:__Z36scripting_liveness_calculation_begin17ScriptingClassPtriPFvPP12Il2CppObjectiPvES3_PFvvES7_
dMf:_CipherSuite_set_Context_m4127897124
pNa:__ZN16UniformCacheGLES6CreateERK20GpuProgramParameters
uhg:_UTF8Encoding_Fallback_m811555654
jpg:_UInt64_CompareTo_m3513742483
Uwe:_Array_InternalArray__IndexOf_TisPlayableBinding_t2498078091_m398853908_gshared
qdj:_ScriptableObject_t1975622470_marshal_pinvoke_cleanup
Xeg:_Encoding_GetString_m1894033578
QCf:_ReadOnlyCollection_1_System_Collections_IList_Clear_m1918003010_gshared
otg:__Z77RuntimeInvoker_Void_t1841601450_RuntimeObject_RuntimeObject_Int32_t2071877448PFvvEPK10MethodInfoPvPS4_
qwk:_emscripten_glGetProgramInfoLog__wrapper
RD:__ZN25AnimatedPropertyEvaluator29BindCurveToScriptingObjectPtrERKN13AnimationClip10FloatCurveEj18ScriptingObjectPtrb
Foi:__ZL94Font_t4239498691_CustomAttributesCacheGenerator_Font_InvokeTextureRebuilt_Internal_m2007522718P21CustomAttributesCache
yhg:_UTF8Encoding_InternalGetChars_m373801468
Q6:__ZN17PersistentManager23DestroyFromFileInternalEi
pji:__ZL98Object_t1021602117_CustomAttributesCacheGenerator_Object_DoesObjectWithInstanceIDExist_m2570795274P21CustomAttributesCache
Cdj:_ScrollViewState__ctor_m535685782
Rje:_Decimal_System_IConvertible_ToChar_m2425091200_AdjustorThunk
X$a:__Z19SetupMotionMatricesR6CameraR18RPDataMotionVector
Une:_Enum_ToString_m2112979707
lfj:_TextGenerator_ValidatedSettings_m1640214759
y3h:__ZL55SoapServices_t3397513225_CustomAttributesCacheGeneratorP21CustomAttributesCache
W4f:_MonoMethodMessage_get_MethodName_m3580519713
BC:__ZN26AnimatorControllerPlayable18PrepareForPlaybackERN7mecanim6memory9AllocatorE
bne:_Enum_t2459695545_marshal_pinvoke_cleanup
Ndj:_HitInfo_t1761367055_marshal_pinvoke_cleanup
Kve:_Array_FindLastIndex_TisRuntimeObject_m986818300_gshared
phg:_UTF8Encoding_GetBytes_m4170182058
YGe:_Mesh_GetAllocArrayFromChannel_TisColor32_t874517518_m2030100417_gshared
kma:__ZN22CreateGpuProgramOutputC2Ev
W$f:_X509Chain__ctor_m2242540866
f7g:_Object__ctor_m197157284
qii:__ZL99SortingLayer_t221838959_CustomAttributesCacheGenerator_SortingLayer_GetLayerValueFromID_m4029056996P21CustomAttributesCache
SSe:_MemoryStream_InternalConstructor_m2423667240
J9i:_CapturingGroup_set_Index_m2175936006
R5f:_SoapMethodAttribute_SetReflectionObject_m3431595769
IKi:_Slider_set_maxValue_m2951480075
hmd:__Z38CustomEventData_CUSTOM_InternalDestroyP12Il2CppObject
H4b:__ZN8GUILayer12CleanupClassEv
vYd:_InputField_OnSubmit_m2856515494
WEj:__ZN6il2cpp2vm5Class4InitEP11Il2CppClass
ha:invoke_vidi
l6e:_DeriveBytes_Adjust_m105515328
Rhd:__ZN2UI14CanvasRenderer17SyncDirtyElementsER8JobFence
gRb:__Z18Transfer_BlittableI18StreamedBinaryReadILb0EELb0ExEvRK29SerializationCommandArgumentsR31RuntimeSerializationCommandInfo
MOd:_ColorBlock_op_Inequality_m1517672458
Dck:__ZN6il2cpp5utils11StringUtils15StringDuplicateEPKc
ymi:__ZL156AnimatorControllerPlayable_t1744083903_CustomAttributesCacheGenerator_AnimatorControllerPlayable_INTERNAL_CALL_GetAnimatorTransitionInfoInternal_m1417370130P21CustomAttributesCache
n9a:__Z15CanAddComponentR10GameObjectPKN5Unity4TypeE
Dla:__ZNK9ShaderLab21ShaderRasterStateDesc16ToGfxRasterStateEPK19ShaderPropertySheetS3_R14GfxRasterState
e$:_tlsf_memalign
Ocg:_CspParameters__ctor_m2480441577
Dlk:__ZN6il2cpp2os9EventImplC2Ebb
QJc:__Z12RangedRandomR5RandNRKiS2_
NRi:_DynamicPropertyCollection_NotifyMessage_m840388347
Taj:_Uri_ParseUri_m5711497
ID:__ZN4PPtrI13MonoBehaviourE8TransferI19StreamedBinaryWriteILb0EEEEvRT_
yFg:__Z98RuntimeInvoker_RuntimeObject_RuntimeObject_RayU26_t3651946800_Single_t2076509932_Int32_t2071877448PFvvEPK10MethodInfoPvPS4_
Q$:__Z20IsMatrixBuiltinParamPKcPi
xtf:_Collection_1_CheckWritable_m2467777750_gshared
fAi:__ZL108MaskableGraphic_t540192618_CustomAttributesCacheGenerator_MaskableGraphic_ParentMaskStateChanged_m3643747340P21CustomAttributesCache
wUj:__ZN15dense_hashtableINSt3__24pairIK10KeyWrapperINS1_IPK10MethodInfoP11Il2CppClassEEEjEES9_17ReflectionMapHashIS8_EN14dense_hash_mapIS9_jSD_NS9_14EqualsComparerINS0_8equal_toIS8_EEEENS0_9allocatorISB_EEE9SelectKeyESI_SK_E16reset_thresholdsEv
v3b:__ZN8Renderer19PostInitializeClassEv
ugj:_TrackedReference_t1045890189_marshal_pinvoke_back
NVi:_InternalEnumerator_1_get_Current_m1943362081_AdjustorThunk
Oij:_Vector3_get_sqrMagnitude_m1814096310_AdjustorThunk
Rhk:__ZN6il2cpp6icalls8mscorlib6System8Delegate23CreateDelegate_internalEP20Il2CppReflectionTypeP12Il2CppObjectP22Il2CppReflectionMethodb
GWh:__ZL82RuntimeArray_CustomAttributesCacheGenerator_Array_GetValue_m1507415734____indices0P21CustomAttributesCache
VXg:_Default_check_type_m2363631305
ADb:__ZN18DelayedCallManager18CancelCallDelayed2E4PPtrI6ObjectEPF15CallObjectStatePS1_PvES7_
jif:_List_1__cctor_m911493842_gshared
fgb:__ZN25ThreadsafeLinearAllocator10ReallocateEPvji
ZFb:__Z18Transfer_BlittableI14SafeBinaryReadLb1E11QuaternionfEvRK29SerializationCommandArgumentsR31RuntimeSerializationCommandInfo
Cda:__ZN18SpriteAtlasManagerD0Ev
Wwe:_Array_InternalArray__IndexOf_TisRaycastHit2D_t4063908774_m3739817942_gshared
I5g:_MonoProperty_GetAccessors_m3704698731
shk:_GC_disable
Lvb:__ZN10Matrix4x4f8TransferI14SafeBinaryReadEEvRT_
hWe:_UnmanagedMemoryStream_ReadByte_m2501145010
$8f:_ObjectRecord_UnchainFixup_m3025030310
h7:__Z6AppendRKN4core12basic_stringIcNS_20StringStorageDefaultIcEEEEPKc
UVh:__ZL60MulticastDelegate_t3201952435_CustomAttributesCacheGeneratorP21CustomAttributesCache
Isa:__ZL14OnWorldStoppedv
wOb:__Z18Transfer_BlittableI18StreamedBinaryReadILb1EELb0E8Vector3fEvRK29SerializationCommandArgumentsR31RuntimeSerializationCommandInfo
xFg:__Z81RuntimeInvoker_RuntimeObject_Ray_t2469606224_Single_t2076509932_Int32_t2071877448PFvvEPK10MethodInfoPvPS4_
api:__ZL84Canvas_t209405766_CustomAttributesCacheGenerator_Canvas_get_sortingOrder_m3120854436P21CustomAttributesCache
izi:__ZL61Image_t2042527209_CustomAttributesCacheGenerator_m_FillCenterP21CustomAttributesCache
rGa:__ZN7ApiGLES18ClearBufferSubDataEjN2gl12BufferTargetEll
fgj:_Touch_get_type_m3264731406_AdjustorThunk
Rec:__Z37Camera_Get_Custom_PropAllCamerasCountv
Yub:__ZN14Texture2DArray8TransferI18StreamedBinaryReadILb0EEEEvRT_
A$j:__ZN6il2cpp6icalls8mscorlib6System5Array9GetLengthEP11Il2CppArrayi
p4a:__Z18ApplyOcclusionMaskR19ProbeOcclusionCacheRK17LightProbeContextRK10RenderNodeb
rDa:__ZN13GfxDeviceGLES13AfterDrawCallEv
kSe:_FileStreamAsyncResult__ctor_m1096228032
J8c:_Split_Cubic
ib:invoke_fiiii
Oii:__ZL78Time_t31991979_CustomAttributesCacheGenerator_Time_get_unscaledTime_m862335845P21CustomAttributesCache
rje:_DBNull_System_IConvertible_ToSByte_m1228193074
csf:_Collection_1__ctor_m2818834331_gshared
kGe:_Array_InternalArray__get_Item_TisUICharInfo_t3056636800_m3872982785_gshared
DEg:__Z68RuntimeInvoker_UInt16_t986882611_UInt16_t986882611_UInt16_t986882611PFvvEPK10MethodInfoPvPS4_
$kf:_List_1__ctor_m2168280176_gshared
ath:_AnimatorControllerPlayable_INTERNAL_CALL_GetLayerIndexInternal_m2875146206
zkk:__ZN6il2cpp2vm14MetadataLoader16LoadMetadataFileEPKc
z9j:__ZN6il2cpp2os10ThreadImpl22CreateForCurrentThreadEv
hmi:__ZL136AnimationOffsetPlayable_t1019600543_CustomAttributesCacheGenerator_AnimationOffsetPlayable_INTERNAL_CALL_GetPositionInternal_m1117100583P21CustomAttributesCache
tvf:_Collection_1_Insert_m3041550124_gshared
MRe:_FileStream_FlushBuffer_m2594140542
nrc:__Z64Register_UnityEngine_GUIStyle_GetFontInternalDuringLoadingThreadv
v8c:_ft_black_render
pdk:__ZN6il2cpp2vm8Profiler12GCHeapResizeEx
Gtk:dynCall_viiifi
gKa:__ZN18GfxFramebufferGLES20ActiveContextChangedEPP17RenderSurfaceBaseS2_
cKa:__Z19PluginsRenderMarkeri
tji:__ZL80Object_t1021602117_CustomAttributesCacheGenerator_Object_Instantiate_m2439155489P21CustomAttributesCache
qE:__ZN10HumanTrait18InitializeBoneNameEv
YPh:_DefaultComparer__ctor_m899694595_gshared
drh:_AnimationPlayableOutput_GetHandle_m1362491789_AdjustorThunk
Daj:__ZN23InterfaceActionInvoker1ItE6InvokeEjP11Il2CppClassP12Il2CppObjectt
Cub:__ZN14Texture2DArray21AwakeFromLoadThreadedEv
gSb:__Z29Transfer_Blittable_ArrayFieldI18StreamedBinaryReadILb0EEyEvRT_R9ArrayInfoRK23StaticTransferFieldInfo
Qkj:_X509CertificateEnumerator_get_Current_m3129374511
rSh:_EqualityComparer_1_get_Default_m875724809_gshared
b5j:__ZNSt3__214__split_bufferIN6il2cpp2vm5Image20EmbeddedResourceDataERNS_9allocatorIS4_EEEC2EjjS7_
zUd:_HorizontalOrVerticalLayoutGroup_get_spacing_m2859152439
j1h:__ZL57DispIdAttribute_t607560947_CustomAttributesCacheGeneratorP21CustomAttributesCache
cK:__ZN12AudioManager17RemoveAudioSourceEP11AudioSource
$xk:_emscripten_glBindProgramARB__wrapper
vXh:__ZL83RuntimeArray_CustomAttributesCacheGenerator_RuntimeArray____LongLength_PropertyInfoP21CustomAttributesCache
Xzg:__Z151RuntimeInvoker_Int32_t2071877448_RuntimeObject_Int32_t2071877448_Int32_t2071877448_RuntimeObject_Int32_t2071877448_DecoderFallbackBufferU26_t3597875002PFvvEPK10MethodInfoPvPS4_
SCh:_CullingGroup_Finalize_m3172731580
ogh:_Matrix4x4__cctor_m3092679229
_Fe:_Array_InternalArray__get_Item_TisUInt64_t2909196914_m2580870875_gshared
pZj:__ZN15dense_hashtableINSt3__24pairIK10KeyWrapperINS1_IP11Il2CppClassjEEES4_EES6_N6il2cpp8metadata14ArrayClassHashEN14dense_hash_mapIS6_S4_SB_NS6_14EqualsComparerINSA_17ArrayClassCompareEEENS0_9allocatorIS8_EEE9SelectKeyESF_SH_E4swapERSK_
G1b:__ZN13ProduceHelperI14SpriteRendererLb0EE7ProduceE18MemLabelIdentifier18ObjectCreationMode
IU:__ZN5physx14PxLightCpuTask12addReferenceEv
fYc:__Z10b2DistanceP16b2DistanceOutputP14b2SimplexCachePK15b2DistanceInput
_qb:__ZN21EnlightenSceneMapping8TransferI19StreamedBinaryWriteILb0EEEEvRT_
C6j:__ZN6il2cpp2gc16GarbageCollector19InitializeFinalizerEv
cy:__ZN7mecanim8skeleton18CreateSkeletonMaskEjPKNS0_19SkeletonMaskElementERNS_6memory9AllocatorE
cXh:__ZL66RuntimeArray_CustomAttributesCacheGenerator_Array_Sort_m4096942812P21CustomAttributesCache
Hnc:__ZN10GUIManager10DoGUIEventER10InputEventb
vMf:_Context_get_ClientWriteKey_m2235605337
YKb:__Z35Transfer_Blittable_FixedBufferFieldI24GenerateTypeTreeTransferxEvRK29SerializationCommandArgumentsR31RuntimeSerializationCommandInfo
R0:__Z20CalculateSqrDistanceRK8Vector3fRK4AABB
R7j:__ZN6il2cpp2vm12GenericClass8GetClassEP18Il2CppGenericClass
UN:__Z32AudioMixerDuckingProcessCallbackP21UnityAudioEffectStatePfS1_jii
IYg:_CustomAttributeTypedArgument_GetHashCode_m999147081_AdjustorThunk
y2b:__ZN26CustomRenderTextureManagerD2Ev
VRe:_FileStream_Read_m3880951166
KK:__ZN12AudioManager8TransferI24GenerateTypeTreeTransferEEvRT_
ELc:__ZN16CustomDataModuleD0Ev
lpa:__Z25GetBytesFromTextureFormat13TextureFormat
uva:__ZN9Texture3D19UnloadFromGfxDeviceEb
Owh:_AudioClipPlayable__ctor_m1273139759
nJb:__Z18Transfer_BlittableI17RemapPPtrTransferLb0EsEvRK29SerializationCommandArgumentsR31RuntimeSerializationCommandInfo
bEe:_Dictionary_2_Do_CopyTo_TisRuntimeObject_TisRuntimeObject_m2625001464_gshared
kai:__ZL67Math_t2022911894_CustomAttributesCacheGenerator_Math_Min_m105057611P21CustomAttributesCache
KD:__ZN16MecanimAnimation25RegisterIAnimationBindingEPKN5Unity4TypeEiP17IAnimationBinding
W4:__Z32scripting_class_get_assemblyname17ScriptingClassPtr
kYc:__ZN9b2Simplex9ReadCacheEPK14b2SimplexCachePK15b2DistanceProxyRK11b2TransformS5_S8_
tMh:_Dictionary_2_Resize_m2532139610_gshared
Cej:_StackTraceUtility__cctor_m1132099289
Cmf:_List_1_IndexOf_m2019441835_gshared
Jli:__ZL85AudioClip_t1932558630_CustomAttributesCacheGenerator_AudioClip_get_length_m3881628918P21CustomAttributesCache
Ekg:_TimeSpan_Equals_m2029123271_AdjustorThunk
SKj:__ZN6il2cpp2vm13MetadataCache23GetInvokerMethodPointerEPK10MethodInfoPK20Il2CppGenericContext
xOa:__ZN9GfxDevice21RegisterNativeTextureE9TextureIDi16TextureDimension
Npe:_CultureInfo__ctor_m456863818
Uik:__ZN6il2cpp6icalls8mscorlib6System10Reflection4Emit11TypeBuilder20create_generic_classEP27Il2CppReflectionTypeBuilder
DNj:__ZNSt3__26vectorIPK10MethodInfoNS_9allocatorIS3_EEE26__swap_out_circular_bufferERNS_14__split_bufferIS3_RS5_EE
Ibf:_Enumerator_MoveNext_m2504790928_gshared
Tah:_GUISkin_set_button_m412653849
dj:_emscripten_glUniformMatrix4fv
aej:_SliderState__ctor_m1096533539
rYb:__ZN12ScriptMapperD2Ev
$vi:__ZL85AxisEventData_t1524870173_CustomAttributesCacheGenerator_U3CmoveDirU3Ek__BackingFieldP21CustomAttributesCache
OBc:__ZN9SubModule8TransferI14SafeBinaryReadEEvRT_
gzc:__ZN14ParticleSystem15AddCustomLightsERK27LocalLightCullingParametersRK11CullResultsR12ActiveLightsRi9LightType
Dtd:_KeyedHashAlgorithm_Dispose_m1864300576
Jkj:_X509Certificate_PEM_m49854707
euh:_AnimatorControllerPlayable_GetParameter_m4243058543_AdjustorThunk
M6e:_PKCS12_get_RNG_m3620550062
nZf:_X509BasicConstraintsExtension__ctor_m3320418592
Tjj:_ExtendedKeyUsageExtension_Decode_m901297139
vVb:__Z32TransferEnumWithNameForceIntSizeI14SafeBinaryRead7FogModeEvRT_RT0_PKc17TransferMetaFlags
mlc:__Z52Register_UnityEngine_RenderTexture_Internal_GetWidthv
BYh:__ZL89SafeWaitHandle_t481461830_CustomAttributesCacheGenerator_SafeWaitHandle__ctor_m1710231470P21CustomAttributesCache
cgk:_GC_check_leaked
ZWb:__ZN9ShaderLab20SerializedSubProgram16TextureParameter8TransferI19StreamedBinaryWriteILb0EEEEvRT_
BAe:_Array_InternalArray__Insert_TisVector4_t2243707581_m1643342708_gshared
Ahb:__ZNK7Hash12812PackToUInt32Ev
qEi:_Mask_OnSiblingGraphicEnabledDisabled_m865494155
SVf:_KeysCollection_System_Collections_ICollection_get_SyncRoot_m2289369147
WY:__ZN11UnityEngine15CloudWebService16SessionContainer8AddEventEPNS0_14CloudEventInfoE
rNa:__Z4TrimRKN4core12basic_stringIcNS_20StringStorageDefaultIcEEEES5_
QLi:_Text_set_resizeTextMaxSize_m4034967714
gYh:__ZL55GuidAttribute_t222072359_CustomAttributesCacheGeneratorP21CustomAttributesCache
e8g:_GUIStyle_SetDefaultFont_m2095841351
tYg:_CustomAttributeNamedArgument_Equals_m2691468532
cVh:__ZL74String_t_CustomAttributesCacheGenerator_String_Concat_m3881798623____args0P21CustomAttributesCache
q4h:__ZL103CryptoConfig_t896479599_CustomAttributesCacheGenerator_CryptoConfig_CreateFromName_m2169102076____args1P21CustomAttributesCache
ttb:__ZN10VertexData8TransferI14SafeBinaryReadEEvRT_
XL:__ZN4FMOD8ChannelI8setDelayE14FMOD_DELAYTYPEjj
sbe:_Stack__ctor_m2410583781
vug:__Z42RuntimeInvoker_UInt32_t2149682021_IntPtr_tPFvvEPK10MethodInfoPvPS4_
TXg:_Default_GetBetterMethod_m4255740863
wZg:_ConstructorBuilder_GetILGenerator_m1731893569
d5j:__ZNSt3__214__split_bufferIN6il2cpp2vm5Image20EmbeddedResourceDataERNS_9allocatorIS4_EEED2Ev
a3:__ZL20SortItemByInstanceIDRKN18AwakeFromLoadQueue4ItemES2_
a2g:_TypeBuilder_create_runtime_class_m2719530260
$vd:_RNGCryptoServiceProvider_RngClose_m2921734810
lKc:__ZN14ParticleSystem24StartParticlesProceduralERS_R23ParticleSystemParticlesfffjj
wy:__ZNK34AnimationStateMachineMixerPlayable26GetInterruptedPosePlayableEv
Opd:__ZN20UnityConnectSettings8TransferI24GenerateTypeTreeTransferEEvRT_
PA:__ZN34BlobWriteTransferSTLStyleArrayImplI22OffsetPtrArrayTransferIbEEclERS1_17TransferMetaFlagsR9BlobWrite
tdi:__ZL199U3CCreateWhereIteratorU3Ec__Iterator1D_1_t2523986802_CustomAttributesCacheGenerator_U3CCreateWhereIteratorU3Ec__Iterator1D_1_System_Collections_Generic_IEnumeratorU3CTSourceU3E_get_Current_m517722874P21CustomAttributesCache
W_e:_SimpleCollator_IsHalfKana_m4255579023
HTf:_InternalAsyncResult_get_Count_m1291942796
aqf:_Collection_1_System_Collections_IList_Contains_m3365884450_gshared
zbk:__ZNK15dense_hashtableINSt3__24pairIK10KeyWrapperIPK19Il2CppGenericMethodEP10MethodInfoEES6_N6il2cpp8metadata23Il2CppGenericMethodHashEN14dense_hash_mapIS6_S9_SD_NS6_14EqualsComparerINSC_26Il2CppGenericMethodCompareEEENS0_9allocatorISA_EEE9SelectKeyESH_SJ_E10test_emptyERK30dense_hashtable_const_iteratorISA_S6_SD_SL_SH_SJ_E
jTa:__Z16FlaggedAsSkippedIN4core12basic_stringIcNS0_20StringStorageDefaultIcEEEEEbRK13FileEntryInfoRKT_19FileEnumerationFlag
Jxf:_Collection_1_set_Item_m3440986310_gshared
$8:__ZL31InitializeRendererUpdateManagerPv
UMd:_BaseMeshEffect__ctor_m2843647600
kCg:__Z106RuntimeInvoker_RuntimeObject_Int16_t4041245914_RuntimeObject_BooleanU26_t3168250738_BooleanU26_t3168250738PFvvEPK10MethodInfoPvPS4_
CQ:__ZN13AudioPlayable22ClearFMODResourceCacheEPN4FMOD6SystemE
vS:__ZN13AudioListener12CleanupClassEv
mOf:_ClientSessionInfo_Dispose_m2571428025
FZd:_LayoutGroup_DelayedSetDirty_m4276695617
yRf:_RecordProtocol_decryptRecordFragment_m2510859489
mri:__ZL105GUIStyle_t1799908754_CustomAttributesCacheGenerator_GUIStyle_INTERNAL_set_Internal_clipOffset_m2024478897P21CustomAttributesCache
FHd:_BaseRaycaster_get_sortOrderPriority_m3340181311
Mzb:__ZN11TimeManager8TransferI19StreamedBinaryWriteILb0EEEEvRT_
BSe:_DelegatePInvokeWrapper_ReadDelegate_t3184826381
ndi:__ZL91HashSet_1_t2624254809_CustomAttributesCacheGenerator_HashSet_1_OnDeserialization_m627602129P21CustomAttributesCache
I9c:_compare_uni_maps
_ed:__ZL34RegisterModuleICalls_TextRenderingv
Wnd:__ZN11UnityEngine15PlatformWrapper27GetGraphicsCapsSupportFlagsEv
hgd:__ZNSt3__218__insertion_sort_3IRPFbPN2UI6CanvasES3_EPS3_EEvT0_S8_T_
uVh:__ZL80Decimal_t724701077_CustomAttributesCacheGenerator_Decimal_op_Explicit_m714968249P21CustomAttributesCache
Ike:_Decimal_Equals_m1115043331
fOb:__ZN12NativeBufferI16Converter_StringE15SetupForWritingER9ArrayInfo
CLd:_StandaloneInputModule_DeactivateModule_m2952848884
svk:___cxa_end_catch__wrapper
ZNc:__ZL24GenerateParticleGeometryIL24ParticleSystemRenderMode0ELb1ELb0EL25ParticleSystemRenderSpace4EEvPfRK22ParticleSystemTempDataRK26ParticleSystemRendererDataRK21ParticleSystemModulesRK23ParticleSystemParticlesRK31ParticleSystemParticlesTempData
evi:__ZL119RenderPipelineManager_t984453155_CustomAttributesCacheGenerator_RenderPipelineManager_CleanupRenderPipeline_m2242901458P21CustomAttributesCache
sLh:_ValueCollection_System_Collections_Generic_ICollectionU3CTValueU3E_Clear_m231380274_gshared
GId:_Entry__ctor_m1176697586
fQe:_BinaryReader_ReadUInt32_m1363572147
Gji:__ZL119PlayableHandle_t213697122_CustomAttributesCacheGenerator_PlayableHandle_INTERNAL_CALL_SetInputCountInternal_m3510545880P21CustomAttributesCache
t9h:__ZL79Convert_t2607082565_CustomAttributesCacheGenerator_Convert_ToUInt32_m3391339025P21CustomAttributesCache
X8a:__ZN13MonoBehaviour22DoScriptRebuildWarningEv
Tec:__Z38Camera_CUSTOM_INTERNAL_CALL_RaycastTryP12Il2CppObjectRK3Rayfi
ZLi:_Text_get_verticalOverflow_m3134063496
K5b:__ZNK10GameObject22GetComponentPtrAtIndexEi
SOi:_GCHandle_get_Target_m2327042781
EZf:_PublicKey_get_EncodedKeyValue_m3051963850
LAg:__Z50RuntimeInvoker_Char_t3454481338_Single_t2076509932PFvvEPK10MethodInfoPvPS4_
gNd:_Button_OnFinishSubmit_m1646528571
Wqk:_llvm_cttz_i32
IZf:_PublicKey_DecodeDSA_m1169363495
Poc:__ZN11IMGUIModule25GetGUIStyleScriptingClassEv
Gcd:_tt_get_interface
QCe:_Array_Sort_TisRuntimeObject_m143182644_gshared
wcg:_AsymmetricKeyExchangeFormatter__ctor_m3362140205
y0j:__ZN6il2cpp5utils9PathUtils7CombineIcEENSt3__212basic_stringIT_NS3_11char_traitsIS5_EENS3_9allocatorIS5_EEEERKSA_SC_
JVf:_NameObjectCollectionBase_BaseGet_m667273025
bzg:__Z104RuntimeInvoker_RuntimeObject_Byte_t3683104436_RuntimeObject_SByte_t454417549_RuntimeObject_RuntimeObjectPFvvEPK10MethodInfoPvPS4_
Bvc:__ZN9JSONWrite8TransferI13dynamic_arrayIiLj4EEEEvRT_PKc17TransferMetaFlags
g2:__Z18ConvertUTF16toUTF8PPKtS0_PPhS2_15ConversionFlags
Uak:__ZN6il2cpp2os20PathErrnoToErrorCodeERKNSt3__212basic_stringIcNS1_11char_traitsIcEENS1_9allocatorIcEEEEi
Ulg:_TypeLoadException__ctor_m1903359728
MCj:__ZL16my_g_bit_nth_msfj
qJh:_Transform_1_BeginInvoke_m3014766640_gshared
aud:_KeySizes__ctor_m3526899007
VZj:__ZN15dense_hashtableINSt3__24pairIK10KeyWrapperIP11Il2CppClassES4_EES5_N6il2cpp8metadata16SZArrayClassHashEN14dense_hash_mapIS5_S4_SA_NS5_14EqualsComparerINS9_19SZArrayClassCompareEEENS0_9allocatorIS7_EEE9SelectKeyESE_SG_E12expand_arrayEjN21dense_hash_map_traits17integral_constantIbLb0EEE
aMe:_Int16_System_IConvertible_ToInt32_m191782913_AdjustorThunk
ohj:_SpriteAtlasManager__cctor_m1344469326
Oti:__ZL69ArgumentCache_t4810721_CustomAttributesCacheGenerator_m_FloatArgumentP21CustomAttributesCache
$qf:_Collection_1_CopyTo_m1578267616_gshared
Vdg:_EncoderReplacementFallback__ctor_m2208438262
gZa:__Z23SetupStereoFlareElementP11FlareVertexRK8Vector2fS3_S3_RK11ColorRGBA32RK10Matrix4x4fRK8Vector3fb
hEg:__Z91RuntimeInvoker_X509ChainStatusFlags_t480677120_RuntimeObject_RuntimeObject_SByte_t454417549PFvvEPK10MethodInfoPvPS4_
iFj:__ZN6il2cpp2vm5Class15GetInstanceSizeEPK11Il2CppClass
BOg:__Z37RuntimeInvoker_Enumerator_t3806193287PFvvEPK10MethodInfoPvPS4_
Ua:invoke_iiiifiiii
eCf:_ReadOnlyCollection_1_System_Collections_Generic_ICollectionU3CTU3E_Remove_m3751131234_gshared
FPh:_Dictionary_2_CopyTo_m1495142643_gshared
Lyc:__ZN9rapidjson8internal6u64toaEyPc
Rqj:_EventFunction_1_BeginInvoke_m3064802067_gshared
bai:__ZL67IndexOutOfRangeException_t3527622107_CustomAttributesCacheGeneratorP21CustomAttributesCache
CZj:__ZNK15dense_hashtableINSt3__24pairIK10KeyWrapperINS1_IP11Il2CppClassjEEES4_EES6_N6il2cpp8metadata14ArrayClassHashEN14dense_hash_mapIS6_S4_SB_NS6_14EqualsComparerINSA_17ArrayClassCompareEEENS0_9allocatorIS8_EEE9SelectKeyESF_SH_E12test_deletedERK30dense_hashtable_const_iteratorIS8_S6_SB_SJ_SF_SH_E
LQe:_Directory_GetFiles_m4036267478
pG:__Z64AnimationOffsetPlayable_CUSTOM_INTERNAL_CALL_GetRotationInternalR9HPlayableR11Quaternionf
EJe:_NumberFormatInfo_get_CurrencyNegativePattern_m3972163809
KKa:__ZL19BlitFramebufferImplRN4gles23BlitFramebufferDrawQuadER9GfxDevice9TextureIDRK8Vector4f
XIb:__Z18Transfer_BlittableI17RemapPPtrTransferLb0EhEvRK29SerializationCommandArgumentsR31RuntimeSerializationCommandInfo
BTj:__ZN15dense_hashtableINSt3__24pairIK10KeyWrapperIPK10Il2CppTypeEjEES6_N6il2cpp8metadata14Il2CppTypeHashEN14dense_hash_mapIS6_jSB_NS6_14EqualsComparerINSA_26Il2CppTypeEqualityComparerEEENS0_9allocatorIS8_EEE9SelectKeyESF_SH_E4findERS7_
hGg:__Z83RuntimeInvoker_Void_t1841601450_QuaternionU26_t4187826802_QuaternionU26_t4187826802PFvvEPK10MethodInfoPvPS4_
DAf:_ReadOnlyCollection_1_System_Collections_IList_Add_m2333231354_gshared
f3c:_UNITY_FT_List_Add
S1g:_OpCodes__cctor_m939885911
AG:__Z87Register_UnityEngine_Animations_AnimationPlayableOutput_INTERNAL_CALL_InternalGetTargetv
pKf:_PKCS1_RSASP1_m1748738009
fob:__ZN12CubemapArray21AwakeFromLoadThreadedEv
ojh:_PlayableHandle_CompareVersion_m276961171
bcj:_UriParser_InitializeAndValidate_m251943319
syd:_SymmetricAlgorithm_set_Padding_m3081984460
vzb:__ZN9InputAxis8TransferI18StreamedBinaryReadILb0EEEEvRT_
yBc:__ZN11ForceModule8TransferI14SafeBinaryReadEEvRT_
Gag:_StreamingContext_t1417235061_marshal_pinvoke_back
B5d:_ArrayList_RemoveAt_m2578928333
DGb:__Z18Transfer_BlittableI14SafeBinaryReadLb0EaEvRK29SerializationCommandArgumentsR31RuntimeSerializationCommandInfo
qwi:__ZL92PointerEventData_t1599784723_CustomAttributesCacheGenerator_U3CworldNormalU3Ek__BackingFieldP21CustomAttributesCache
Jzf:_ReadOnlyCollection_1_System_Collections_IList_set_Item_m1233322304_gshared
_jj:_GeneralNames_get_DNSNames_m2721668874
xAg:__Z76RuntimeInvoker_Boolean_t3825574718_TimeSpan_t3430258949_TimeSpan_t3430258949PFvvEPK10MethodInfoPvPS4_
YIc:__ZN11NoiseModule17CalculateNoiseJobILi3ELb1ELb1EEEvP12NoiseJobData
gne:_Enum_System_IConvertible_ToByte_m38374586
rzf:_ReadOnlyCollection_1_System_Collections_Generic_IListU3CTU3E_RemoveAt_m1592158292_gshared
xWg:_PlatformNotSupportedException__ctor_m3301654967
Cuk:_emscripten_glFrustum__wrapper
eni:__ZL126AnimatorControllerPlayable_t1744083903_CustomAttributesCacheGenerator_AnimatorControllerPlayable_CrossFadeInternal_m1115142950P21CustomAttributesCache
QRf:_ReceiveRecordAsyncResult_get_CompletedWithError_m2670396551
WUg:__Z37RuntimeInvoker_Enumerator_t2983962278PFvvEPK10MethodInfoPvPS4_
tke:_Decimal_Equals_m1798565377
zlb:__ZN17GlobalGameManager8TransferI24GenerateTypeTreeTransferEEvRT_
SMg:__Z38RuntimeInvoker_ContentType_t1028629049PFvvEPK10MethodInfoPvPS4_
Dzi:__ZL66InputField_t1631627530_CustomAttributesCacheGenerator_m_CaretColorP21CustomAttributesCache
Z8b:__ZNSt3__26vectorINS_4pairI11ShaderTagIDS2_EENS_9allocatorIS3_EEE6assignIPS3_EENS_9enable_ifIXaasr21__is_forward_iteratorIT_EE5valuesr16is_constructibleIS3_NS_15iterator_traitsISA_E9referenceEEE5valueEvE4typeESA_SA_
I_g:_TypeBuilder_check_created_m2929267877
WCg:__Z121RuntimeInvoker_Int64_t909078037_Int32_t2071877448_Int32_t2071877448_Int32_t2071877448_Int32_t2071877448_Int32_t2071877448PFvvEPK10MethodInfoPvPS4_
_Va:__Z20SyncFenceCullResultsR11CullResults
gMa:__ZN15TextureTFMethod20IsBoneCountSupportedEi
sF:__ZN26AnimatorControllerPlayable9GotoStateEiifff
hbh:_GUISkin_set_horizontalScrollbarThumb_m2119687595
gte:_PlayableHandle_IsPlayableOfType_TisAudioMixerPlayable_t1831808911_m1065481197_AdjustorThunk
Mmb:__ZN14RenderSettings23VirtualRedirectTransferER24GenerateTypeTreeTransfer
uhe:_DateTime_System_IConvertible_ToSByte_m2575078084_AdjustorThunk
nKb:__Z22TransferField_NonArrayI17RemapPPtrTransfer27Converter_SimpleNativeClassI8GUIStyleEEvRK23StaticTransferFieldInfoR31RuntimeSerializationCommandInfoRT0_
Hvh:_AnimatorStateInfo_IsTag_m1529621725_AdjustorThunk
b1b:__ZNK17AnimationCurveTplIfE20EvaluateWithoutCacheEfRf
_8j:__ZN6il2cpp2os6Thread12QueueUserAPCEPFvPvES2_
Hma:__ZN19ShaderPropertySheet10SetTextureERK23FastTexturePropertyNameP7Texture
Qte:_Array_InternalArray__IEnumerable_GetEnumerator_TisDictionaryEntry_t3048875398_m3498834924_gshared
Udh:_GUIStyleState__ctor_m3611888666
Ksf:_Collection_1_IsValidItem_m1304951912_gshared
y8b:__ZN4Mesh10SetNormalsEPK8Vector3fj
y5g:_PropertyInfo__ctor_m1808219471
Q$c:__Z66Register_UnityEngine_Physics2D_INTERNAL_CALL_GetRayIntersectionAllv
Hde:_Convert_ToDateTime_m4161927553
O_g:_TypeBuilder_GetConstructors_m774120094
$oi:__ZL87Canvas_t209405766_CustomAttributesCacheGenerator_Canvas_set_overrideSorting_m3982973573P21CustomAttributesCache
uck:__ZNSt3__212basic_stringIDsNS_11char_traitsIDsEENS_9allocatorIDsEEE9__grow_byEjjjjjj
Sr:__ZN17AnimationCurveTplIfE8TransferI14SafeBinaryReadEEvRT_
Nli:__ZL90AudioSource_t1135106623_CustomAttributesCacheGenerator_AudioSource_PlayOneShot_m4118899740P21CustomAttributesCache
zxg:__Z75RuntimeInvoker_Boolean_t3825574718_RuntimeObject_MonoIOErrorU26_t1029615899PFvvEPK10MethodInfoPvPS4_
yOc:__ZN22ParticleSystemRenderer15InitializeClassEv
uaj:_RegularExpression_set_GroupCount_m2991393456
Moe:_Calendar_get_EraNames_m452820602
Dsb:__ZNSt3__26vectorIN15QualitySettings14QualitySettingENS_9allocatorIS2_EEE6assignIPS2_EENS_9enable_ifIXaasr21__is_forward_iteratorIT_EE5valuesr16is_constructibleIS2_NS_15iterator_traitsIS9_E9referenceEEE5valueEvE4typeES9_S9_
phb:__ZNK5Unity9Component10GetEnabledEv
rXa:__ZNK19ShaderPropertySheet11HasPropertyERKN9ShaderLab16FastPropertyNameE
fhe:_DateTime_System_IConvertible_ToByte_m2670443498_AdjustorThunk
j_:__GLOBAL__sub_I_runtime_utilities4_lump_cpp
xPj:_il2cpp_class_get_image
i6:__Z16AsyncReadRequestP16AsyncReadCommand
lbi:__ZL81BigInteger_t925946153_CustomAttributesCacheGenerator_BigInteger__ctor_m4013661868P21CustomAttributesCache
gIf:_BigInteger_op_Addition_m1734797151
Rgf:_List_1_CheckMatch_m1814522134_gshared
Hrf:_Collection_1_System_Collections_IList_set_Item_m3488446830_gshared
h$g:_EnumBuilder_CreateNotSupportedException_m62763134
Ard:__ZNK12HeaderHelper3GetERKN4core12basic_stringIcNS0_20StringStorageDefaultIcEEEE
Yld:__Z24GetUnityAnalyticsManagerv
FWe:_Math_Log_m3371716878
s8g:_GUILayoutUtility_Layout_m3812180708
mzb:__ZN9InputAxis8TransferI14SafeBinaryReadEEvRT_
p3:__ZNK21ExecutionOrderManager30GetCustomAwakeFromLoadQueueForEPKN5Unity4TypeE
Xqd:__Z27RegisterModule_UnityConnectv
g9d:_Hashtable__ctor_m4280223555
g6g:_ParameterInfo_get_IsRetval_m1881464570
Wyh:_Bounds_get_size_m1728027642_AdjustorThunk
M6f:_RealProxy__ctor_m3041043303
NHe:_NumberFormatter_Init_m2654758994
Ntd:_HMACSHA1__ctor_m1168389339
$gi:__ZL100Input_t1785128008_CustomAttributesCacheGenerator_Input_INTERNAL_get_compositionCursorPos_m2426914348P21CustomAttributesCache
FWc:__ZNK17Physics2DSettings22GetTypeVirtualInternalEv
bG:__Z96Register_UnityEngine_Animations_AnimationClipPlayable_INTERNAL_CALL_SetRemoveStartOffsetInternalv
pN:__ZN10ObjectPoolIN4FMOD12ChannelGroupENS0_13ChannelGroupIEE7SetSizeEi
P1e:_PrimalityTest_BeginInvoke_m966469054
lda:__ZN15dense_hashtableINSt3__24pairIKN4core12basic_stringIcNS2_20StringStorageDefaultIcEEEE13dynamic_arrayI4PPtrI6SpriteELj4EEEES6_20StringHash32FunctionIS6_EN14dense_hash_mapIS6_SC_SF_NS0_8equal_toIS6_EE13stl_allocatorISD_L18MemLabelIdentifier79ELi16EEE9SelectKeyESI_SL_E9copy_fromERKSO_j
Vog:_UInt64_System_IConvertible_ToInt16_m2797150165_AdjustorThunk
MFe:_Array_InternalArray__get_Item_TisLabelData_t3712112744_m863115768_gshared
GNe:_Int32_Parse_m753946802
Gfh:_Material_DisableKeyword_m1204728089
Y_:__Z22ValidateTlsfAllocationPvjiS_
Jmf:_List_1_RemoveAt_m2331128844_gshared
Crh:_AnimatorControllerPlayable_GetFloatString_m3678921564
y2g:_UnmanagedMarshal_ToMarshalAsAttribute_m3695569337
_Hb:__Z14resize_trimmedINSt3__26vectorI17AnimationCurveTplIfE13stl_allocatorIS3_L18MemLabelIdentifier1ELi16EEEEEvRT_j
n7a:__ZN25CameraStackRenderingState19SetupLastEyeCamerasERK11CameraStack
udc:__Z12GUIDToStringRK9UnityGUID
Lsd:__GLOBAL__sub_I_runtime_vr_plugininterface_lump_cpp
cZd:_LayoutElement_get_minHeight_m2070403283
DJ:__ZN11SoundHandleC2ERKS_
rEi:_Mask_OnEnable_m501850981
qJc:__Z9UpdateTplIL27ParticleSystemCurveEvalMode2EEvRK11MinMaxCurveR23ParticleSystemParticlesPfRKN4math7_float4Ejj
aAh:_Canvas_get_targetDisplay_m316548313
WG:__Z75AnimatorControllerPlayable_CUSTOM_INTERNAL_CALL_GetAnimatorClipInfoInternalR9HPlayableihP12Il2CppObject
u1e:_BigInteger_op_Addition_m1196561843
Tcb:__Z29StdTemplateConversionFunctionItxEbPvR14SafeBinaryRead
rRi:_FormatterData__ctor_m3974986124
B_h:__ZL64FileNotFoundException_t4200667904_CustomAttributesCacheGeneratorP21CustomAttributesCache
lvd:_RijndaelManagedTransform_get_CanReuseTransform_m3735256596
D8d:_Comparer__cctor_m1327316974
GQe:_MonoIO_ExistsFile_m1421941572
Eie:_DateTime_op_GreaterThanOrEqual_m3818963848
_za:__ZNSt3__26__treeINS_12__value_typeI18VertexChannelsInfoP17VertexDeclarationEENS_19__map_value_compareIS2_S5_NS_4lessIS2_EELb1EEE13stl_allocatorIS5_L18MemLabelIdentifier14ELi16EEE12__find_equalIS2_EERPNS_16__tree_node_baseIPvEENS_21__tree_const_iteratorIS5_PNS_11__tree_nodeIS5_SG_EEiEESJ_RKT_
Ov:__ZN17AnimationPlayable18DeallocateBindingsEv
oab:__ZN6Camera25StandaloneRenderToCubemapEP7TextureiPFvPK9SceneNodePK4AABBR9IndexListPvESA_j
YPd:_DefaultControls_SetDefaultTextValues_m1707718380
XLd:_TouchInputModule_UseFakeInput_m2112019004
YHd:_EventSystem_get_baseEventDataCache_m4294741599
ZJi:_Selectable_IsInteractable_m3245596965
Rmb:__ZN14RenderSettings18TransferDeprecatedI14SafeBinaryReadEEvRT_
Fri:__ZL85GUIStyle_t1799908754_CustomAttributesCacheGenerator_GUIStyle_Internal_Draw_m694122665P21CustomAttributesCache
E$:__ZN12TLSAllocatorI14StackAllocatorE8AllocateEji
k4:__ZN16ScriptingManager18GetMonoScriptCacheEi
Pug:__Z62RuntimeInvoker_Void_t1841601450_RuntimeObject_Int64_t909078037PFvvEPK10MethodInfoPvPS4_
u9g:_GUIStyle_get_stretchHeight_m3396762700
pGj:__ZN15dense_hashtableINSt3__24pairIK10KeyWrapperIPK11Il2CppClassEPKcEES6_N6il2cpp5utils11PointerHashIS3_EEN14dense_hash_mapIS6_S9_SE_NS6_14EqualsComparerINS0_8equal_toIS5_EEEENS0_9allocatorISA_EEE9SelectKeyESJ_SL_E15set_deleted_keyERKSA_
dUd:_GridLayoutGroup_CalculateLayoutInputHorizontal_m2355123124
kdi:__ZL84Locale_t4255929017_CustomAttributesCacheGenerator_Locale_GetText_m512920887____args1P21CustomAttributesCache
KGb:__Z18Transfer_BlittableI14SafeBinaryReadLb1EyEvRK29SerializationCommandArgumentsR31RuntimeSerializationCommandInfo
zHc:__ZNSt3__27__sort5IR31SortCollisionEventsByGameObjectP22ParticleCollisionEventEEjT0_S5_S5_S5_S5_T_
fsc:__ZN8JSONRead8TransferIfEEvRT_PKc17TransferMetaFlagsb
dUi:_U3CGetEnumeratorU3Ec__Iterator0_Reset_m2980566576_gshared
ECh:_Coroutine__ctor_m1253937571
aEf:_ReadOnlyCollection_1_System_Collections_ICollection_get_IsSynchronized_m4063596282_gshared
q1d:__ZN21InterfaceFuncInvoker2IP12Il2CppObjectP6Type_tS1_E6InvokeEjP11Il2CppClassS1_S3_S1_
Hpk:__ZNSt3__212basic_stringIcNS_11char_traitsIcEENS_9allocatorIcEEE6appendEPKcj
t$h:__ZL54TypeBuilder_t3308873219_CustomAttributesCacheGeneratorP21CustomAttributesCache
$qa:__ZN6prcoreL17RemapGenericFloatI18TexFormatARGBFloat17TexFormatRGBAHalfEEvPKNS_9InnerInfoE
iuf:_Collection_1_CheckWritable_m691269733_gshared
SO:__ZN11AudioSource21ApplyCachedParametersE12SoundChannel
SUg:__Z54RuntimeInvoker_Void_t1841601450_IntPtr_t_RuntimeObjectPFvvEPK10MethodInfoPvPS4_
L$g:_GenericTypeParameterBuilder_GetAttributeFlagsImpl_m3338182267
eV:__ZN13Simd4iFactoryIN6detail9FourTupleEEC2Eiiii
$Ue:_SynchronizedReader__ctor_m1408327515
enj:_X509Store_LoadCrl_m1146720614
JQg:__Z59RuntimeInvoker_Int32_t2071877448_KeyValuePair_2_t3749587448PFvvEPK10MethodInfoPvPS4_
aFf:_ReadOnlyCollection_1_System_Collections_IList_Clear_m1858417639_gshared
kae:_Slot_t2022531261_marshal_pinvoke_cleanup
fwh:_LogCallback__ctor_m898185969
Aqb:__ZN15SerializeTraitsI33EnlightenTerrainChunksInformationE8TransferI14SafeBinaryReadEEvRS0_RT_
oZc:__ZN6b2Body12SetTransformERK6b2Vec2f
L3b:__ZNK32RendererMaterialAnimationBinding9BindValueER6ObjectRKN11UnityEngine9Animation14GenericBindingERNS3_10BoundCurveE
Anb:__Z13GetIAnimationv
Yva:__ZL18stbir__support_onef
Aff:_List_1_System_Collections_IList_Remove_m2040310137_gshared
j6i:_Match_get_Regex_m3526002767
N_h:__ZL49Stream_t3255436806_CustomAttributesCacheGeneratorP21CustomAttributesCache
tCj:_U3CsoltarEnemigoU3Ec__Iterator0_MoveNext_m308364678
nuc:__Z26Transfer_UnityEngineObjectI9JSONWriteLb0EEvRK29SerializationCommandArgumentsR31RuntimeSerializationCommandInfo
jLc:__ZN14VelocityModuleD2Ev
Gna:__ZNSt3__26vectorIN4core12basic_stringIcNS1_20StringStorageDefaultIcEEEE13stl_allocatorIS5_L18MemLabelIdentifier1ELi16EEE6assignINS_11__wrap_iterIPS5_EEEENS_9enable_ifIXaasr21__is_forward_iteratorIT_EE5valuesr16is_constructibleIS5_NS_15iterator_traitsISF_E9referenceEEE5valueEvE4typeESF_SF_
aog:_UInt32_System_IConvertible_ToInt16_m2251335934_AdjustorThunk
chd:__ZNSt3__27__sort5IRNS_6__lessIN2UI14DepthSortEntryES3_EEPS3_EEjT0_S7_S7_S7_S7_T_
PLc:__Z39ParticleSystemRenderer_RenderBillboardsIL21SpriteMaskInteraction0EEvRK15RenderNodeQueuej17ShaderChannelMaski
a1d:_Boolean_System_IConvertible_ToType_m3990189691
kVj:__ZNSt3__218uninitialized_copyIPNS_4pairIK10KeyWrapperINS1_IPK11Il2CppImageP11Il2CppClassEEEjEESC_EET0_T_SE_SD_
Ca:invoke_vdd
Ln:FUNCTION_TABLE_fiii
_$i:_InternalEnumerator_1_Dispose_m3838127340_AdjustorThunk
Gme:_Double_System_IConvertible_ToUInt32_m624993430
On:FUNCTION_TABLE_fiif
vwi:__ZL89PointerEventData_t1599784723_CustomAttributesCacheGenerator_U3CdraggingU3Ek__BackingFieldP21CustomAttributesCache
_1b:__ZNK30SpriteRendererAnimationBinding12GetPPtrValueERKN11UnityEngine9Animation10BoundCurveE
Ted:__ZZ29InitializeTextRenderingModulevEN27cleanupAfterLoadRegistrator7ForwardEv
zjg:_Scheduler_Add_m376749205
Kw:__ZN27AnimationLayerMixerPlayable24ProcessAnimationLayerMixEP33AnimationPlayableEvaluationOutputP35AnimationPlayableEvaluationConstantP32AnimationPlayableEvaluationInputS1_if
M6a:__Z29PluginsIssueRenderingExtEvent26UnityRenderingExtEventTypePv
l4j:__ZN15dense_hashtableINSt3__24pairIK10KeyWrapperINS1_IPKcS4_EEEiEES6_24NamespaceAndNamePairHashN14dense_hash_mapIS6_iS9_NS6_14EqualsComparerI26NamespaceAndNamePairEqualsEENS0_9allocatorIS8_EEE9SelectKeyESD_SF_E12resize_deltaEjj
a2i:_InternalEnumerator_1_Dispose_m3464626239_AdjustorThunk
L2b:__Z14RandomRotationP9Texture2DPhiiii
I7f:_SingleCallIdentity__ctor_m1512303454
C_i:_InternalEnumerator_1_MoveNext_m1594563423_AdjustorThunk
d$e:_SimpleCollator_IsIgnorable_m2485013022
dpi:__ZL86Canvas_t209405766_CustomAttributesCacheGenerator_Canvas_get_sortingLayerID_m1396307660P21CustomAttributesCache
hzj:__ZL25UnresolvedVirtualCall_166P12Il2CppObject20UIVertex_t1204258818S1_PK10MethodInfo
kkf:_List_1_System_Collections_IList_Insert_m2036969360_gshared
FXd:_InputField_GetUnclampedCharacterLineFromPosition_m1912794077
zsh:_AnimatorControllerPlayable_SetTrigger_m2446912300
aSe:_ReadDelegate__ctor_m885671467
bje:_DateTimeOffset_ToString_m2121173678_AdjustorThunk
Ibi:__ZL50X509Crl_t1699034837_CustomAttributesCacheGeneratorP21CustomAttributesCache
KCg:__Z74RuntimeInvoker_RuntimeObject_RuntimeObject_Int16_t4041245914_RuntimeObjectPFvvEPK10MethodInfoPvPS4_
rj:_JS_WebRequest_SetResponseHandler
LAk:_glDeleteProgram__wrapper
_ec:__Z50Register_UnityEngine_Camera_INTERNAL_get_pixelRectv
oli:__ZL119AudioClipPlayable_t192218916_CustomAttributesCacheGenerator_AudioClipPlayable_INTERNAL_CALL_GetClipInternal_m2079955679P21CustomAttributesCache
rqa:__ZN6prcoreL18BlitFloatToIntegerERK14ImageReferenceRS0_
o7e:_X509CertificateCollection_get_Item_m410866272
B9g:_Rect_get_yMax_m2915146103
Ttj:_EqualityComparer_1_System_Collections_IEqualityComparer_Equals_m1705945391_gshared
zsi:__ZL94CustomEventData_t1269126727_CustomAttributesCacheGenerator_CustomEventData_AddInt32_m103138778P21CustomAttributesCache
IZc:__ZN7b2Timer5ResetEv
pY:__ZN11UnityEngine15CloudWebService14RestDownloader17OnCompleteContentEv
xUd:_LayoutGroup_SetChildAlongAxis_m1615929339
OCg:__Z75RuntimeInvoker_RuntimeObject_RuntimeObject_Double_t4078015681_RuntimeObjectPFvvEPK10MethodInfoPvPS4_
bCg:__Z200RuntimeInvoker_Boolean_t3825574718_RuntimeObject_RuntimeObject_RuntimeObject_Int32_t2071877448_DateTimeU26_t3448131235_SByte_t454417549_BooleanU26_t3168250738_SByte_t454417549_ExceptionU26_t1467204777PFvvEPK10MethodInfoPvPS4_
Ta:invoke_viffi
dba:__ZNSt3__26vectorI20ProcessCallbackGroupNS_9allocatorIS1_EEEC2ERKS4_
Iy:__ZN17AnimationPlayable28UpdateInternalStateRecursiveILi1ELb0EEEvPK35AnimationPlayableEvaluationConstant
fnf:_List_1_System_Collections_ICollection_get_SyncRoot_m1429670979_gshared
Wa:invoke_vifff
uVi:_InternalEnumerator_1__ctor_m2111763266_gshared
Fhc:__Z53Register_UnityEngine_Input_INTERNAL_get_mousePositionv
wzk:_glGetVertexAttribiv__wrapper
$e:_emscripten_request_fullscreen
omh:_Rect_get_xMin_m1161102488
$lh:_RaycastHit2D_get_normal_m3768105386_AdjustorThunk
Yea:__ZN20LocalFileSystemWebGL6DeleteER13FileEntryDatab
fke:_Decimal_System_IConvertible_ToUInt16_m1621568250
bf:_emscripten_glDisableVertexAttribArray
rji:__ZL79Object_t1021602117_CustomAttributesCacheGenerator_Object_Instantiate_m938141395P21CustomAttributesCache
En:FUNCTION_TABLE_iiiifiiii
ukg:_TimeSpan_get_TotalMinutes_m1645177229_AdjustorThunk
yc:invoke_fifffi
gKh:_Enumerator__ctor_m3539306986_gshared
SGa:__ZN4gles23ClearCurrentFramebufferEP7ApiGLESbbbRK10ColorRGBAffi
jx:__ZN7mecanim12statemachine20CreateStateWorkspaceEjjjRNS_6memory9AllocatorE
D2e:__ZN21InterfaceFuncInvoker3IP22ByteU5BU5D_t3397334013S1_iiE6InvokeEjP11Il2CppClassP12Il2CppObjectS1_ii
tWi:_InternalEnumerator_1_System_Collections_IEnumerator_get_Current_m3680087284_gshared
nf:_emscripten_glDeleteObjectARB
HIa:__Z14DecompressDXT3iiiPKjPj
RVe:_UnexceptionalStreamReader_Read_m3839775235
Hra:__ZN6prcoreL27StretchGenericFloatBilinearI18TexFormatARGBFloatEEvPKNS_9InnerInfoE
aGc:__ZN12LightsModule5StartER23ParticleSystemParticlesjj
JGe:_Dropdown_GetOrAddComponent_TisRuntimeObject_m2875934266_gshared
_6f:_RealProxy_SetTargetDomain_m3940877656
sra:__ZN6prcoreL17RemapGenericFloatI17TexFormatRGBAHalf18TexFormatARGBFloatEEvPKNS_9InnerInfoE
mne:_Enum_System_IConvertible_ToInt32_m2459904362
roc:__ZNK8GUIStyle21DrawWithTextSelectionER8GUIStateRK5RectTIfER10GUIContentbbbbbiiRK10ColorRGBAfSA_
RCg:__Z61RuntimeInvoker_RuntimeObject_Double_t4078015681_RuntimeObjectPFvvEPK10MethodInfoPvPS4_
UYc:__ZNSt3__27__sort4IRN18Overlap2DQueryBase29ColliderHitsByDepthComparitorEPP10Collider2DEEjT0_S7_S7_S7_T_
Foc:__Z14GetBuiltinSkini
hGd:_DecoderReplacementFallbackBuffer_Reset_m2576819665
Y0i:_InternalEnumerator_1_MoveNext_m607849555_AdjustorThunk
UGd:_BaseInput_set_compositionCursorPos_m2632248731
vvj:_Enumerator_System_Collections_IEnumerator_Reset_m2573763156_gshared
uQe:_DirectoryInfo_Initialize_m2216118894
ZAd:_WindowsIdentity_Dispose_m2649088337
bZb:__ZN2UI13RectTransform23VirtualRedirectTransferER14SafeBinaryRead
roj:_InvokableCall_1__ctor_m54675381_gshared
wrf:_Collection_1_System_Collections_IList_Contains_m323652826_gshared
Ocf:_List_1_System_Collections_ICollection_get_SyncRoot_m3733894943_gshared
Wif:_List_1_Reverse_m302978607_gshared
FVb:__ZNSt3__26vectorIN9ShaderLab20SerializedSubProgramENS_9allocatorIS2_EEE6assignIPS2_EENS_9enable_ifIXaasr21__is_forward_iteratorIT_EE5valuesr16is_constructibleIS2_NS_15iterator_traitsIS9_E9referenceEEE5valueEvE4typeES9_S9_
mwc:__Z18Transfer_BlittableI8JSONReadLb0E8BitFieldEvRK29SerializationCommandArgumentsR31RuntimeSerializationCommandInfo
U7f:_SoapServices_RegisterInteropXmlType_m2949236705
bUj:__ZNK15dense_hashtableINSt3__24pairIK10KeyWrapperIPK10Il2CppTypeEjEES6_N6il2cpp8metadata14Il2CppTypeHashEN14dense_hash_mapIS6_jSB_NS6_14EqualsComparerINSA_26Il2CppTypeEqualityComparerEEENS0_9allocatorIS8_EEE9SelectKeyESF_SH_E10test_emptyERK24dense_hashtable_iteratorIS8_S6_SB_SJ_SF_SH_E
rPb:__ZL17Transfer_GUIStyleI18StreamedBinaryReadILb1EELb0EEvRK29SerializationCommandArgumentsR31RuntimeSerializationCommandInfo
cFd:_String_CharCopy_m2550399897
CDg:__Z234RuntimeInvoker_RuntimeObject_Int16_t4041245914_RuntimeObject_Int32_t2071877448_Int32_t2071877448_Int32_t2071877448_SByte_t454417549_SByte_t454417549_SByte_t454417549_SByte_t454417549_Int16_t4041245914_SByte_t454417549_SByte_t454417549PFvvEPK10MethodInfoPvPS4_
OTb:__ZN9ShaderLab14SerializedPass8TransferI14SafeBinaryReadEEvRT_
xpc:__Z71Register_UnityEngine_GUILayoutUtility_INTERNAL_CALL_Internal_MoveWindowv
IS:__ZN12AudioManager16SetListenerPauseEb
IUc:__ZNSt3__26__sortIRN10ClipperLib12LocMinSorterEPNS1_12LocalMinimumEEEvT0_S6_T_
H0j:__ZN6il2cpp2vm9Exception25RaiseOutOfMemoryExceptionERKNS_5utils10StringViewIDsEE
Zrf:_Collection_1_IsValidItem_m2254106115_gshared
X_g:_TypeBuilder_GetEvent_m3876348075
eLi:_Slider_OnMove_m641164662
ea:invoke_viiiiiiiiiii
hmk:___syscall_ret
Cjg:_Scheduler__ctor_m3716265742
s4e:_MACAlgorithm_Final_m4076939925
bRj:__ZNSt3__212basic_stringIcNS_11char_traitsIcEENS_9allocatorIcEEE6assignINS_11__wrap_iterIPKcEEEENS_9enable_ifIXaasr21__is_forward_iteratorIT_EE5valuesr38__libcpp_string_gets_noexcept_iteratorISC_EE5valueERS5_E4typeESC_SC_
Hmd:__Z56Register_UnityEngine_Analytics_CustomEventData_AddDoublev
bzj:__ZL25UnresolvedVirtualCall_160P12Il2CppObject23RaycastResult_t21186376S1_PK10MethodInfo
_tb:__ZN11ChannelInfo8TransferI19StreamedBinaryWriteILb0EEEEvRT_
$Vi:_InternalEnumerator_1_System_Collections_IEnumerator_get_Current_m3583252352_gshared
y_g:_EnumBuilder_get_FullName_m2818393911
ZZa:__ZN14qsort_internal13Partition3WayIP17RODataReplacementi19ROSorterReplacementEENSt3__24pairIT_S6_EES6_S6_T0_T1_
_Te:_StreamAsyncResult_get_Done_m2858832609
_gc:__Z34Register_UnityEngine_Gradient_Initv
L4f:_DictionaryEnumerator_get_Entry_m1597857786
U8b:__Z15WriteLineVertexILb0EEvRPhRKN4math8float4x4ERKNS2_7_float3ERK11ColorRGBA32RKffRKNS2_7_float2E
YCc:__ZN13InitialModule8TransferI17RemapPPtrTransferEEvRT_
hsj:_ObjectPool_1_set_countAll_m1742773675_gshared
oag:_SerializationEntry_get_Value_m1628109884_AdjustorThunk
vHd:_BaseInputModule_GetAxisEventData_m3903709281
$Fe:_Array_InternalArray__get_Item_TisUriScheme_t1876590943_m1821482697_gshared
jHf:_BigInteger__ctor_m3239748086
tea:__ZN13ScreenManager23SetIsOrientationEnabledE18EnabledOrientationb
gxj:__ZL24UnresolvedVirtualCall_57P12Il2CppObjectiPK10MethodInfo
V8h:__ZL79Convert_t2607082565_CustomAttributesCacheGenerator_Convert_ToUInt16_m1043031438P21CustomAttributesCache
Qw:__ZN7mecanim5human25HumanPoseAddOverrideLayerERNS0_9HumanPoseERKS1_fRKNS_6bitsetILj70EEE
U0b:__ZN13ProduceHelperI9TransformLb0EE7ProduceE18MemLabelIdentifier18ObjectCreationMode
orc:__Z45Register_UnityEngine_GUIStyle_GetFontInternalv
Woh:_AnimationEvent_set_floatParameter_m4139544688
eyj:__ZL25UnresolvedVirtualCall_109P12Il2CppObjectS0_S0_iiPK10MethodInfo
rDg:__Z42RuntimeInvoker_AlertDescription_t844791462PFvvEPK10MethodInfoPvPS4_
Q8i:_Alternation_get_Alternatives_m1445219249
jQh:_DefaultComparer_GetHashCode_m2506382068_gshared
hCh:_Component_SendMessageUpwards_m19741277
ZTh:_EqualityComparer_1_System_Collections_IEqualityComparer_GetHashCode_m1012273405_gshared
lye:_Array_InternalArray__ICollection_Add_TisHitInfo_t1761367055_m2956071622_gshared
iAc:__ZN33SizeBySpeedModulePropertyBindings13GetFloatValueERK14ParticleSystemi
J9a:__ZN10GameObject23VirtualRedirectTransferER18StreamedBinaryReadILb0EE
maf:_Enumerator_get_Current_m2577424081_gshared
A3i:_InternalEnumerator_1_Dispose_m2270401482_AdjustorThunk
Dg:_glFrontFace
P9f:_ObjectRecord_get_IsUnsolvedObjectReference_m2202692850
t1f:_FactoryCache_Cleanup_m4130035987
XRi:__ZN23InterfaceActionInvoker1IP18Context_t502196753E6InvokeEjP11Il2CppClassP12Il2CppObjectS1_
VCc:__ZN14ParticleSystem8TransferI17RemapPPtrTransferEEvRT_
bF:__ZN26AnimatorControllerPlayable14SetLayerWeightEif
KJc:__Z11StartCircleILN11ShapeModule14MultiModeValueE3EEvRS0_R23ParticleSystemParticlesRK19ParticleSystemStateRK27ParticleSystemEmissionStateRKN4math8float3x3ERKNSB_8float4x4Ejbj
S$b:__ZN13ProduceHelperI19LowerResBlitTextureLb0EE7ProduceE18MemLabelIdentifier18ObjectCreationMode
b3a:__ZNSt3__26vectorI16ShadowCasterData13stl_allocatorIS1_L18MemLabelIdentifier2ELi16EEE21__push_back_slow_pathIKS1_EEvRT_
Wse:_PlayableHandle_IsPlayableOfType_TisAnimationClipPlayable_t4099382200_m682525715_AdjustorThunk
fpj:_UnityAction_1_Invoke_m1279802577_gshared
Eog:_UInt32_ToString_m1783596809
rcj:_Vector3_get_forward_m1201659139
Inf:_List_1_Sort_m269561757_gshared
Iri:__ZL110GUIStyle_t1799908754_CustomAttributesCacheGenerator_GUIStyle_INTERNAL_CALL_Internal_DrawPrefixLabel_m557487542P21CustomAttributesCache
Afd:__Z51Register_UnityEngine_TextGenerator_GetLinesInternalv
Qvj:_HashSet_1_Init_m1258286688_gshared
Usf:_Collection_1_System_Collections_IList_Contains_m3345685421_gshared
Amj:_X509ExtensionCollection_get_Item_m4212651995
wFc:__Z8EvaluateRK11MinMaxCurveRKN4math7_float4ES5_
Eve:__ZN21InterfaceFuncInvoker1Ii19Vector4_t2243707581E6InvokeEjP11Il2CppClassP12Il2CppObjectS0_
nBh:_Collision2D_get_gameObject_m4234358314
Jqa:__ZN6prcoreL17RemapGenericFloatI17TexFormatRGBFloat18TexFormatRGBAFloatEEvPKNS_9InnerInfoE
Jog:_UInt64_System_IConvertible_ToBoolean_m3012279573_AdjustorThunk
wmg:_Type_get_IsGenericTypeDefinition_m2147901038
TRa:__ZN12HandlerChain10ToAbsoluteEPKc
sSi:_ContextAttribute_Freeze_m4133346275
jHe:_GregorianCalendar__ctor_m3794576475
zog:_UInt32_TryParse_m4283512434
$Wc:__ZN16PhysicsManager2D12BeginContactEP9b2Contact
s5j:__ZN15dense_hashtableI10KeyWrapperIP18Il2CppGenericClassES3_N6il2cpp8metadata22Il2CppGenericClassHashEN14dense_hash_setIS3_S6_NS3_14EqualsComparerINS5_25Il2CppGenericClassCompareEEENSt3__29allocatorIS3_EEE8IdentityESA_SD_E8min_sizeEjj
uJ:__ZN9AudioClip11CreateSoundEv
clh:_Quaternion_Internal_MakePositive_m2921671247
OHh:_ShimEnumerator_MoveNext_m3313047792_gshared
Lsf:_Collection_1_ConvertItem_m2185647560_gshared
$kg:_TimeSpan_op_Inequality_m257547441
hig:_ExecutionContext_GetObjectData_m1456913356
MYj:__ZN14dense_hash_mapI10KeyWrapperINSt3__24pairIPK9FieldInfoP11Il2CppClassEEEj17ReflectionMapHashIS8_ENS9_14EqualsComparerINS1_8equal_toIS8_EEEENS1_9allocatorINS2_IKS9_jEEEEEC2EjRKSB_RKSF_
Ghh:_Object_set_hideFlags_m2204253440
mUj:__ZNK15dense_hashtableINSt3__24pairIK10KeyWrapperINS1_IPK10MethodInfoP11Il2CppClassEEEjEES9_17ReflectionMapHashIS8_EN14dense_hash_mapIS9_jSD_NS9_14EqualsComparerINS0_8equal_toIS8_EEEENS0_9allocatorISB_EEE9SelectKeyESI_SK_E13find_positionERSA_
q_g:_EnumBuilder_get_Assembly_m4285228003
cEa:__ZN13GfxDeviceGLES20CreateComputeProgramEPKhj
ukh:_PlayableOutput__ctor_m3826671654
cJe:_DateTimeFormatInfo_get_RoundtripPattern_m562440017
oqd:__ZN11UnityEngine7Connect16PersistentValues13RestoreValuesER8JSONRead
zTa:__ZN20ArchiveStorageReader31TryToReadDirectoryFromBlockDataEyPKvj
lRh:_DefaultComparer__ctor_m3947565964_gshared
lme:_Double_System_IConvertible_ToByte_m3004284950_AdjustorThunk
Y7f:_TypeEntry_get_AssemblyName_m1762285107
u3j:__ZN6il2cpp2vmL11GetIdentityEP14Il2CppIUnknown
T3e:_SmallXmlParser_ReadCDATASection_m2558307107
Nfk:_GC_push_gc_structures
EMd:_AspectRatioFitter_get_aspectRatio_m3023618874
qWf:_ServicePointManager_get_ServerCertificateValidationCallback_m1409951209
_Nj:__ZN6il2cpp6icalls8mscorlib6SystemL8IsPublicEPK9EventInfo
r3f:_Enumerator__ctor_m3782962052
kXj:__ZN15dense_hashtableINSt3__24pairIK10KeyWrapperIPK14Il2CppAssemblyEPK22Il2CppMonoAssemblyNameEES6_N6il2cpp5utils11PointerHashIS4_EEN14dense_hash_mapIS6_SA_SF_NS6_14EqualsComparerINS0_8equal_toIS5_EEEENS0_9allocatorISB_EEE9SelectKeyESK_SM_E4swapERSP_
mbe:_Enumerator_get_Current_m1271212567
Yck:__ZThn4_N6il2cpp2vm13ComObjectBase18ReleaseMarshalDataEP13Il2CppIStream
uNa:__Z22GetShaderCachePathGLESv
vBg:__Z51RuntimeInvoker_UInt16_t986882611_Double_t4078015681PFvvEPK10MethodInfoPvPS4_
Oeh:_Input_set_compositionCursorPos_m1615567306
KNc:__ZN22ParticleSystemRenderer23UpdateVertexInputLayoutEv
eXf:_IPAddress_ParseIPV6_m2209709575
KHi:_U3CClickRepeatU3Ec__Iterator0_MoveNext_m1747924386
$Gf:_Comparison_1_Invoke_m1670081898_gshared
zMi:_Toggle_set_group_m3833595685
YZd:_LayoutRebuilder_ForceRebuildLayoutImmediate_m566681977
rub:__ZNSt3__213__stable_sortIRNS_4lessI4PPtrI11SpriteAtlasEEENS_11__wrap_iterIPS4_EEEEvT0_SA_T_NS_15iterator_traitsISA_E15difference_typeEPNSD_10value_typeEi
hNa:__ZNSt3__26vectorIPN19ConstantBuffersGLES11ConstBufferENS_9allocatorIS3_EEE21__push_back_slow_pathIKS3_EEvRT_
_Ig:__Z74RuntimeInvoker_AnimatorControllerPlayable_t1744083903_Playable_t1896841784PFvvEPK10MethodInfoPvPS4_
tye:_Array_InternalArray__ICollection_Add_TisVector4_t2243707581_m698578249_gshared
g1:__ZN8keywords6CreateEPKc
S:Math_imul
Zbh:_GUIStyle_set_active_m2896743432
Ryb:__ZN14SpriteRenderer15SetupPropertiesEv
Rsb:__ZN11PlayerPrefs6GetIntERKN4core12basic_stringIcNS0_20StringStorageDefaultIcEEEEi
NIj:__ZN6il2cpp5utils13dynamic_arrayIPK10Il2CppTypeLj4EEC2ERKS5_
BBd:_SecurityFrame_t1002202659_marshal_pinvoke_back
ifd:__Z45TextGenerator_CUSTOM_INTERNAL_get_rectExtentsP12Il2CppObjectP5RectTIfE
DLf:_CertificateValidationCallback_Invoke_m2500463874
Jri:__ZL102GUIStyle_t1799908754_CustomAttributesCacheGenerator_GUIStyle_Internal_GetCursorFlashOffset_m3177259302P21CustomAttributesCache
rte:_SetPropertyUtility_SetStruct_TisChar_t3454481338_m2333420724_gshared
asf:_Collection_1_IsSynchronized_m2601980439_gshared
H9d:_Hashtable_ContainsKey_m2716576664
M6i:_PatternCompiler_EmitCategory_m1696942454
xAc:__ZN30VelocityModulePropertyBindings13GetFloatValueERK14ParticleSystemi
qke:_Decimal_decimalFloorAndTrunc_m3655683429
Nye:_Array_InternalArray__ICollection_CopyTo_TisInt32_t2071877448_m984622488_gshared
Y1:__ZN18ScriptingArguments9AddObjectE18ScriptingObjectPtr
ljd:__Z39CanvasGroup_Get_Custom_PropInteractableP12Il2CppObject
qWc:__ZN16CircleCollider2D23VirtualRedirectTransferER18StreamedBinaryReadILb0EE
awi:__ZL97AxisEventData_t1524870173_CustomAttributesCacheGenerator_AxisEventData_get_moveVector_m1338727516P21CustomAttributesCache
gHa:__ZN17GenericDynamicVBOC2ER9GfxDevice13GfxBufferModejj
RRi:_Context_get_HasDynamicSinks_m1998518649
gZc:__Z28GetPhysics2DScriptingClassesv
Cnc:__ZZN10GUIManager14InitGUIManagerEvEN41PreUpdateIMGUISendQueuedEventsRegistrator7ForwardEv
Ksh:_AnimatorControllerPlayable_ResetTrigger_m758725835_AdjustorThunk
UW:__ZN11UnityEngine15CloudWebService17SessionEventQueue10PurgeItemsEj
Qcj:_UpdatedEventHandler_BeginInvoke_m4238510153
zGd:_AbstractEventData_get_used_m4208553917
v8a:__ZN6Camera16StandaloneRenderENS_10RenderFlagEP6ShaderRKN4core12basic_stringIcNS3_20StringStorageDefaultIcEEEE
q_d:_Array_System_Collections_IList_get_Item_m2088124007
K_d:_Array_GetLength_m2083296647
V5h:__ZL58SecurityElement_t2325568386_CustomAttributesCacheGeneratorP21CustomAttributesCache
uob:__ZNK12CubemapArray13GetIsReadableEv
q7d:_SynchronizedArrayListWrapper_ToArray_m1522185111
NOb:__Z18Transfer_BlittableI18StreamedBinaryReadILb1EELb1EtEvRK29SerializationCommandArgumentsR31RuntimeSerializationCommandInfo
cBd:_SecurityContext_get_FlowSuppressed_m420202521
_wg:__Z55RuntimeInvoker_DayOfWeek_t721777893_DateTime_t693205669PFvvEPK10MethodInfoPvPS4_
mCa:__ZN9GfxDevice20DeallocRenderSurfaceEP17RenderSurfaceBase
xqg:_ValueType_ToString_m3796301715
MJa:__ZN20GpuProgramParameters36UpdatePrepareValuesMaximumBufferSizeEv
N5j:__ZNK15dense_hashtableI10KeyWrapperIP18Il2CppGenericClassES3_N6il2cpp8metadata22Il2CppGenericClassHashEN14dense_hash_setIS3_S6_NS3_14EqualsComparerINS5_25Il2CppGenericClassCompareEEENSt3__29allocatorIS3_EEE8IdentityESA_SD_E12test_deletedEj
Yhc:__Z53Register_UnityEngine_Quaternion_INTERNAL_CALL_Inversev
WBe:_Array_qsort_TisUICharInfo_t3056636800_m2607408901_gshared
D8g:_GUILayoutGroup__ctor_m992523271
xjb:__ZN12BaseRenderer23RendererBecameInvisibleEv
y1c:__ZN20TextRenderingPrivate8FontImpl13CharacterInfo8TransferI18StreamedBinaryReadILb0EEEEvRT_
sMb:__Z29Transfer_Blittable_ArrayFieldI24GenerateTypeTreeTransferfEvRT_R9ArrayInfoRK23StaticTransferFieldInfo
jvg:__Z76RuntimeInvoker_RuntimeObject_RuntimeObject_SByte_t454417549_SByte_t454417549PFvvEPK10MethodInfoPvPS4_
ibb:__ZN19CustomRenderTexture9AddParentE4PPtrIS_E
SWi:_InternalEnumerator_1_MoveNext_m930150026_AdjustorThunk
Grb:__ZN8Gradient8TransferI14SafeBinaryReadEEvRT_
Fqj:_UnityEvent_1_Invoke_m1533100983_gshared
Fna:__ZNSt3__26vectorIN4core12basic_stringIcNS1_20StringStorageDefaultIcEEEE13stl_allocatorIS5_L18MemLabelIdentifier1ELi16EEE7reserveEj
uWf:_FileWebRequest__ctor_m4003648606
wBi:__ZL71SpriteState_t1353336012_CustomAttributesCacheGenerator_m_DisabledSpriteP21CustomAttributesCache
one:_Enum_System_IConvertible_ToSByte_m3488526280
fEg:__Z60RuntimeInvoker_X509ChainStatusFlags_t480677120_RuntimeObjectPFvvEPK10MethodInfoPvPS4_
WSi:_Identity_set_Disposed_m628843469
thh:_MonoBehaviour_StopAllCoroutines_m1675795839
Bxa:__ZN18IDCollectorFunctorD0Ev
SJj:__ZNK15dense_hashtableI10KeyWrapperIPK19Il2CppGenericMethodES4_N6il2cpp8metadata23Il2CppGenericMethodHashEN14dense_hash_setIS4_S7_NS4_14EqualsComparerINS6_26Il2CppGenericMethodCompareEEENSt3__29allocatorIS4_EEE8IdentityESB_SE_E4findERKS4_
gsh:_AnimatorControllerPlayable_GetIntegerString_m2944800090
lji:__ZL82Object_t1021602117_CustomAttributesCacheGenerator_Object_DestroyObject_m2343493981P21CustomAttributesCache
Rea:__ZNK20LocalFileSystemPosix9IsSymLinkERK13FileEntryData
Hek:_GC_new_free_list_inner
XPh:_DefaultComparer_Equals_m85211180_gshared
Pvf:_Collection_1_System_Collections_IList_IndexOf_m1950953062_gshared
$Xe:_MonoType_InternalGetEvent_m532443236
Iuf:_Collection_1_IndexOf_m2700825189_gshared
d5i:_Comparer_1_get_Default_m2605397692_gshared
zIg:__Z93RuntimeInvoker_Void_t1841601450_PlayableHandleU26_t4210769902_Int32_t2071877448_RuntimeObjectPFvvEPK10MethodInfoPvPS4_
axc:__ZN8JSONRead8TransferI10RectOffsetEEvRT_PKc17TransferMetaFlagsb
d4j:__ZNK15dense_hashtableINSt3__24pairIK10KeyWrapperINS1_IPKcS4_EEEiEES6_24NamespaceAndNamePairHashN14dense_hash_mapIS6_iS9_NS6_14EqualsComparerI26NamespaceAndNamePairEqualsEENS0_9allocatorIS8_EEE9SelectKeyESD_SF_E12test_deletedERK24dense_hashtable_iteratorIS8_S6_S9_SH_SD_SF_E
CW:__ZN9JSONWrite8TransferIN11UnityEngine15CloudWebService14DataErrorEvent15FileErrorDetailEEEvRT_PKc17TransferMetaFlags
EFd:_Decoder__ctor_m2623573910
mxa:__Z21ClearFenceWithoutSyncR8JobFence
aDc:__ZN14RotationModule8TransferI17RemapPPtrTransferEEvRT_
kM:__ZN12SoundManager20RegisterModifiedClipEP10SampleClip
LO:__ZN11AudioSource4PlayEd
G7j:__ZN6il2cpp2vm6Object16GetVirtualMethodEP12Il2CppObjectPK10MethodInfo
Yvj:_HashSet_1_Add_m199171953_gshared
JHj:__ZN15dense_hashtableI10KeyWrapperIPK17Il2CppGenericInstES4_N6il2cpp8metadata21Il2CppGenericInstHashEN14dense_hash_setIS4_S7_NS4_14EqualsComparerINS6_24Il2CppGenericInstCompareEEENSt3__29allocatorIS4_EEE8IdentityESB_SE_E13set_empty_keyERKS4_
Qea:__ZNK20LocalFileSystemPosix8IsHiddenERK13FileEntryData
Vqh:_AnimationOffsetPlayable_INTERNAL_CALL_SetRotationInternal_m2809009466
d4e:_SmallXmlParser_IsNameChar_m1561000202
slj:_X501__cctor_m2610532554
v1h:__ZL95SafeHandle_t2733794115_CustomAttributesCacheGenerator_SafeHandle_DangerousGetHandle_m1328172664P21CustomAttributesCache
IQg:__Z48RuntimeInvoker_Int32_t2071877448_Link_t865133271PFvvEPK10MethodInfoPvPS4_
UGh:_Enumerator_VerifyState_m3173176371_gshared
eFd:_StringComparer__ctor_m2275216983
NKg:__Z83RuntimeInvoker_Void_t1841601450_RuntimeObject_Internal_DrawArgumentsU26_t3595831378PFvvEPK10MethodInfoPvPS4_
Gmf:_List_1_CheckCollection_m2220107869_gshared
Uob:__ZN7Cubemap23VirtualRedirectTransferER18StreamedBinaryReadILb0EE
SNf:_RecordProtocol_EncodeRecord_m3884270352
oxd:_SHA256_Create_m896954069
kdd:_Read_CVT
tge:_Convert_ToUInt32_m776714429
tQa:__ZN12FileAccessor4SeekEx10FileOrigin
mLb:__ZL26Transfer_SimpleNativeClassI24GenerateTypeTreeTransfer17AnimationCurveTplIfELb0EEvRK29SerializationCommandArgumentsR31RuntimeSerializationCommandInfo
Oqb:__ZN24GenerateTypeTreeTransfer8TransferI13dynamic_arrayI33EnlightenTerrainChunksInformationLj4EEEEvRT_PKc17TransferMetaFlags
rGc:__Z9UpdateTplIL27ParticleSystemCurveEvalMode2EEvRK11MinMaxCurveR23ParticleSystemParticlesjjbjRK8Vector2f
BCh:_Coroutine_t2299508840_marshal_pinvoke
h9:__ZN16LightmapSettings20DidChangeActiveSceneEP10UnitySceneS1_
KDi:__ZL59g_AssemblyU2DCSharp_Assembly_CustomAttributesCacheGeneratorP21CustomAttributesCache
mOj:__ZN6il2cpp5utils9PathUtils8BasenameIcEENSt3__212basic_stringIT_NS3_11char_traitsIS5_EENS3_9allocatorIS5_EEEERKSA_
BN:__ZN10AudioMixer11SetupGroupsEv
hii:__ZL91Resources_t339470017_CustomAttributesCacheGenerator_Resources_GetBuiltinResource_m582410469P21CustomAttributesCache
jpc:__Z35Register_UnityEngine_Event_get_typev
S4e:_PrivateKeyInfo_DecodeRSA_m1427048948
T0j:__ZN6il2cpp2vm9Exception23GetInvalidCastExceptionERKNS_5utils10StringViewIDsEE
qIf:_BigInteger_op_GreaterThanOrEqual_m2643115413
VWg:_Assembly_FillName_m1934025015
xPe:_IntPtr_op_Explicit_m1073656736
ZDd:_String_IndexOf_m2126171214
VOe:_Int64_ToString_m1544341651_AdjustorThunk
Jy:__ZN8Animator28BuildControllerPlayableCacheEv
UKe:_Guid_CheckNull_m2903986431
$ai:__ZL62CrossContextDelegate_t754146990_CustomAttributesCacheGeneratorP21CustomAttributesCache
tNc:__ZN14ParticleSystem15InitializeClassEv
e3:__Z63ThreadAndSerializationSafeCheckGetMonoBehaviourBeingTransferredv
rhk:_GC_enable
NPf:_TlsClientCertificateVerify_ProcessAsSsl3_m3377063356
oLd:_StandaloneInputModule_set_repeatDelay_m2820945738
ZQe:_EndOfStreamException__ctor_m4268387737
Jng:_UInt16_ToString_m4213290405
Ahc:__Z37Register_UnityEngine_Input_GetAxisRawv
kui:__ZL123UnitySynchronizationContext_t1205147244_CustomAttributesCacheGenerator_UnitySynchronizationContext_ExecuteTasks_m2941058172P21CustomAttributesCache
uof:_List_1_GetIndex_m433539411_gshared
b4h:__ZL59StreamingContext_t1417235061_CustomAttributesCacheGeneratorP21CustomAttributesCache
lQi:_ChannelServices_RegisterChannel_m3832858065
vne:_Enum_GetName_m1226611481
kBj:_Func_2_Invoke_m4121137703_gshared
xO:__ZN11AudioSource5ResetEv
LUg:__Z74RuntimeInvoker_DictionaryEntry_t3048875398_RuntimeObject_Int32_t2071877448PFvvEPK10MethodInfoPvPS4_
RAg:__Z53RuntimeInvoker_DateTime_t693205669_Single_t2076509932PFvvEPK10MethodInfoPvPS4_
Hub:__ZN14Texture2DArray23VirtualRedirectTransferER18StreamedBinaryReadILb0EE
p9i:_Literal_CompileLiteral_m276843152
UYb:__ZN2UI13RectTransform13AwakeFromLoadE17AwakeFromLoadMode
l9i:_Reference__ctor_m4110013284
z2a:__ZN14qsort_internal30FindAndMovePivotToLastPositionIP20ShadowCasterSortDatai26ShadowCasterSortDataSorterEEvT_S4_T0_T1_
nIj:__ZNK15dense_hashtableI10KeyWrapperIPK19Il2CppGenericMethodES4_N6il2cpp8metadata23Il2CppGenericMethodHashEN14dense_hash_setIS4_S7_NS4_14EqualsComparerINS6_26Il2CppGenericMethodCompareEEENSt3__29allocatorIS4_EEE8IdentityESB_SE_E3endEv
KFb:__Z18Transfer_BlittableI14SafeBinaryReadLb1EiEvRK29SerializationCommandArgumentsR31RuntimeSerializationCommandInfo
_xa:__ZN17PersistentManager13GetAllFileIDsERKN4core12basic_stringIcNS0_20StringStorageDefaultIcEEEER13dynamic_arrayIxLj8EE
ACf:_ReadOnlyCollection_1_GetEnumerator_m713393110_gshared
T6f:_ProxyAttribute_GetPropertiesForNewContext_m3587421540
K$d:_Array_LastIndexOf_m4096535198
r5d:_ArrayList_Add_m1719188324
Bme:_Double_System_IConvertible_ToSByte_m1653690240_AdjustorThunk
ADg:__Z59RuntimeInvoker_RuntimeObject_Byte_t3683104436_RuntimeObjectPFvvEPK10MethodInfoPvPS4_
Lk:_glGetStringi
Rdh:_GUIStyleState_t3801000545_marshal_pinvoke
z5j:__ZNK15dense_hashtableI10KeyWrapperIP18Il2CppGenericClassES3_N6il2cpp8metadata22Il2CppGenericClassHashEN14dense_hash_setIS3_S6_NS3_14EqualsComparerINS5_25Il2CppGenericClassCompareEEENSt3__29allocatorIS3_EEE8IdentityESA_SD_E10test_emptyERK30dense_hashtable_const_iteratorIS3_S3_S6_SF_SA_SD_E
fE:__ZZN8Animator15InitializeClassEvEN43FunctorImpl_420kDidModifyAnimatorController4CallEPviR11MessageData
fqe:_CultureInfo_set_NumberFormat_m1618950525
avb:__ZN18StreamedBinaryReadILb0EE21TransferSTLStyleArrayI13dynamic_arrayI8Vector4fLj4EEEEvRT_17TransferMetaFlags
b$f:_X509Store__ctor_m1573680316
q$f:_X509Chain_get_CertificateCollection_m324631835
kTh:_EqualityComparer_1__cctor_m1011898363_gshared
nMd:_AnimationTriggers__ctor_m2623627182
bwe:_Array_InternalArray__IndexOf_TisClientCertificateType_t4001384466_m1168139450_gshared
y$g:_FieldBuilder_get_Name_m2243491233
oX:__ZN11UnityEngine15CloudWebService20WebRequestRestClient18GetResponseHeadersEv
P6b:__ZN16PropertyAccessorC2Ev
Tsb:__ZNSt3__23mapIN4core12basic_stringIcNS1_20StringStorageDefaultIcEEEE9PrefValueNS_4lessIS5_EENS_9allocatorINS_4pairIKS5_S6_EEEEEixERSB_
hPb:__Z35Transfer_Blittable_FixedBufferFieldI18StreamedBinaryReadILb1EEaEvRK29SerializationCommandArgumentsR31RuntimeSerializationCommandInfo
o6b:__ZN15DirectorManager22ConstructPlayableGraphEv
eea:__ZN13ScreenManager16SetScreenTimeoutEi
XJb:__Z18Transfer_BlittableI17RemapPPtrTransferLb0EdEvRK29SerializationCommandArgumentsR31RuntimeSerializationCommandInfo
lyd:_SymmetricAlgorithm_set_IV_m4262655606
zLi:_StencilMaterial__cctor_m2963056855
Ytj:_EqualityComparer_1_System_Collections_IEqualityComparer_Equals_m315020809_gshared
evh:_AnimatorControllerPlayable_Play_m614561002_AdjustorThunk
CYg:_CustomAttributeNamedArgument_GetHashCode_m3715408876_AdjustorThunk
pfd:__Z38Register_UnityEngine_Font_HasCharacterv
v_f:_X509Certificate2_AppendBuffer_m3517242299
E6a:__Z35IntersectSpherePlaneBoundsOptimizedRKN4math7_float4EPS1_i
bqe:_CultureInfo_get_IsNeutralCulture_m3874876470
Tmi:__ZL137AnimatorControllerPlayable_t1744083903_CustomAttributesCacheGenerator_AnimatorControllerPlayable_CrossFadeInFixedTimeInternal_m3383124488P21CustomAttributesCache
ele:_Delegate_CreateDelegate_m3813023227
Abj:_Uri_get_AbsoluteUri_m2120317928
Jzc:__ZN37InheritVelocityModulePropertyBindings13GetFloatValueERK14ParticleSystemi
l8j:__ZN6il2cpp2os5posix15PosixWaitObject13InterruptWaitEv
pPd:_ColorTween_TweenValue_m3279916815
CHd:_BaseInputModule_IsModuleSupported_m4272494372
J8:__Z22CleanupLODGroupManagerPv
mye:_Array_InternalArray__ICollection_Add_TisContentType_t1028629049_m2984242302_gshared
fpc:__Z21Event_CUSTOM_PopEventP12Il2CppObject
U5j:__ZN6il2cpp8metadata15GenericMetadata20RegisterGenericClassEP18Il2CppGenericClass
ul:_glUniform3fv
tBb:__ZNSt3__218__insertion_sort_3IRN15ResourceManager10Dependency6SorterEPS2_EEvT0_S6_T_
icf:_Enumerator_System_Collections_IEnumerator_Reset_m3796537546_AdjustorThunk
ved:_UNITY_FT_Init_Class_tt_service_gx_multi_masters
ZCg:__Z53RuntimeInvoker_Int32_t2071877448_TimeSpan_t3430258949PFvvEPK10MethodInfoPvPS4_
W$i:_InternalEnumerator_1_System_Collections_IEnumerator_Reset_m3249248421_AdjustorThunk
_9b:__ZNK8Gradient19InitializeOptimizedER17OptimizedGradient
ctg:__Z64RuntimeInvoker_RuntimeObject_Int32_t2071877448_Int16_t4041245914PFvvEPK10MethodInfoPvPS4_
KXe:_IntComparer_Compare_m3057931085
f1a:__ZNK16LightmapSettings31GetRealtimeLightmapDecodeValuesEv
_N:__ZN5audio5mixer12SetSuspendedERNS0_16AudioMixerMemoryEb
ota:__ZN17PersistentManager21UnloadNonDirtyStreamsEv
Bwg:__Z63RuntimeInvoker_DSAParameters_t1872138834_BooleanU26_t3168250738PFvvEPK10MethodInfoPvPS4_
$Pg:__Z62RuntimeInvoker_Boolean_t3825574718_PlayableBinding_t2498078091PFvvEPK10MethodInfoPvPS4_
I1j:__ZN6il2cpp2vm13LivenessStateC2EP11Il2CppClassjPFvPP12Il2CppObjectiPvES7_PFvvESB_
fHe:_Array_ConvertAll_TisRuntimeObject_TisRuntimeObject_m2423585546_gshared
bXa:__ZN12ImageFilters4BlitER17ShaderPassContextP7TextureP13RenderTextureiPK18SharedMaterialDataPKcP6ShaderiNS_9BlitFlagsE11CubemapFaceRK8Vector2fSH_
LYf:_Oid__ctor_m1936781897
Zhh:_Object_INTERNAL_CALL_Internal_InstantiateSingleWithParent_m1401308849
cX:__ZN11UnityEngine15CloudWebService10RestClientINS0_23WebRequestRestHeaderMapEED2Ev
WNi:_ResourceSet__ctor_m1222864106
Vpg:_UIntPtr_op_Explicit_m1113914169
jqf:_Collection_1_System_Collections_IList_get_Item_m3376056117_gshared
tta:__ZN18LoadSceneOperationD0Ev
JId:__ZN23InterfaceActionInvoker1IP28PointerEventData_t1599784723E6InvokeEjP11Il2CppClassP12Il2CppObjectS1_
rph:_AnimationClipPlayable_INTERNAL_CALL_CreateHandleInternal_m218917601
KUh:__ZL76UInt16_t986882611_CustomAttributesCacheGenerator_UInt16_TryParse_m1818885113P21CustomAttributesCache
hcf:_Enumerator_VerifyState_m3639069574_gshared
kIa:__ZN4crnd25static_huffman_data_model22prepare_decoder_tablesEv
Jpf:_Enumerator_MoveNext_m689054299_gshared
PHf:_ModulusRing_Difference_m662924064
x$i:_InternalEnumerator_1_MoveNext_m1869236997_gshared
TNd:_CanvasUpdateRegistry_ObjectValidForUpdate_m855695984
IWd:_InputField_set_onValueChanged_m2406388125
Vki:__ZL95Physics2D_t2540166467_CustomAttributesCacheGenerator_Physics2D_Raycast_m2303387255____maxDepth5P21CustomAttributesCache
Fzf:_ReadOnlyCollection_1_System_Collections_ICollection_get_SyncRoot_m2702046016_gshared
Oda:__ZL22CleanupUnityWebStreamsPv
$Qb:__Z18Transfer_BlittableI18StreamedBinaryReadILb0EELb0E10ColorRGBAfEvRK29SerializationCommandArgumentsR31RuntimeSerializationCommandInfo
lVf:_ListDictionary_Add_m4276262662
m9:__Znaj
Nvd:_RIPEMD160Managed_GGG_m1639995340
jBk:_emscripten_glEnableClientState__wrapper
k0:__ZN17MessageIdentifierC2EPKcNS_7OptionsEPKN5Unity4TypeES1_
cH:__Z76AnimatorControllerPlayable_CUSTOM_INTERNAL_CALL_CrossFadeInFixedTimeInternalR9HPlayableifif
CJh:_Enumerator_System_Collections_IEnumerator_get_Current_m1648049763_gshared
Ujk:__ZN6il2cpp6icalls8mscorlib4Mono8Security12Cryptography18KeyPairPersistence15_ProtectMachineEP12Il2CppString
krk:dynCall_viiifiii
lxg:__Z31RuntimeInvoker_Char_t3454481338PFvvEPK10MethodInfoPvPS4_
rjb:__ZN11GameManager15ThreadedCleanupEv
_kf:_List_1__ctor_m1337392449_gshared
D_d:_Array_System_Collections_IList_Remove_m2438892375
CUe:_TextWriter__ctor_m2225796097
ZQi:__ZN21InterfaceFuncInvoker0IP24StringU5BU5D_t1642385972E6InvokeEjP11Il2CppClassP12Il2CppObject
Rhb:__ZN14SafeBinaryRead8TransferI14ConstantStringEEvRT_PKc17TransferMetaFlags
sdj:_ScriptableObject_Internal_CreateScriptableObject_m1778903390
Kka:__ZNK6Camera16GetStereoEnabledEv
m3b:__ZN12LightManager15InitializeClassEv
Kla:__ZN9ShaderLab11shaderprops16GetComputeBufferEPK19ShaderPropertySheetS3_NS_16FastPropertyNameE
xch:_GUIStyle_GetFontInternal_m3509743324
j2:__ZN18ScriptingArgumentsC2Ev
hlg:_TimeZone_IsDaylightSavingTime_m875882154
gVi:_ArrayReadOnlyList_1_Insert_m503707439_gshared
Dwk:_emscripten_glBlendFuncSeparate__wrapper
EMf:_CipherSuiteCollection_System_Collections_IList_set_Item_m750275607
Orh:_AnimatorControllerPlayable_SetFloatID_m3806317182
GFa:__Z17HasSampledTexture14GraphicsFormat13formatSupport
wYa:__ZNK25CameraStackRenderingState27GetStereoImageEffectTextureEb
Vwd:_SHA1CryptoServiceProvider__ctor_m3127563759
lq:__ZN8Vector3f8TransferI14SafeBinaryReadEEvRT_
mDi:__ZL103BaseVertexEffect_t2504093552_CustomAttributesCacheGenerator_BaseVertexEffect_ModifyVertices_m3446986347P21CustomAttributesCache
Ro:FUNCTION_TABLE_ii
fqh:_AnimationLayerMixerPlayable_SetLayerMaskFromAvatarMask_m2582039992
ljb:__ZN10TagManager8TransferI18StreamedBinaryReadILb0EEEEvRT_
nrg:__Z45RuntimeInvoker_Char_t3454481338_RuntimeObjectPFvvEPK10MethodInfoPvPS4_
Ptc:__Z18Transfer_BlittableI9JSONWriteLb0E8BitFieldEvRK29SerializationCommandArgumentsR31RuntimeSerializationCommandInfo
Dog:_UInt32_ToString_m3894907091_AdjustorThunk
Due:_Array_InternalArray__IEnumerable_GetEnumerator_TisPlayableBinding_t2498078091_m2095426925_gshared
Fnj:_Predicate_1__ctor_m2863314033_gshared
Xpe:_CultureInfo_get_TextInfo_m1582311326
pxe:_Array_ForEach_TisRuntimeObject_m1849351808_gshared
Adh:_GUIStyle_get_contentOffset_m1904924583
cIh:_ShimEnumerator_get_Key_m616785465_gshared
J3e:_SmallXmlParser_Error_m1832158746
p2f:_RepeatContext_get_IsLazy_m1620488045
Kk:_glDeleteVertexArrays
feb:__Z24CreateDirectoryRecursiveRKN4core12basic_stringIcNS_20StringStorageDefaultIcEEEE
Tuk:b41
AWb:__ZN9ShaderLab20SerializedSubProgram8TransferI18StreamedBinaryReadILb0EEEEvRT_
cUe:_StreamAsyncResult_get_AsyncWaitHandle_m4218169359
rri:__ZL89GUIStyle_t1799908754_CustomAttributesCacheGenerator_GUIStyle_get_stretchWidth_m1223411161P21CustomAttributesCache
xnc:__Z22MonoGUIContentToNative18ScriptingObjectPtrR10GUIContent
f5a:__Z9EndJobSetR8JobFence11JobPriority
cGe:_Array_InternalArray__get_Item_TisContactPoint2D_t3659330976_m825151777_gshared
Tfd:__ZN2UI13CanvasManager9AddCanvasEPNS_6CanvasE
vwa:__ZN9Texture3D8TransferI19StreamedBinaryWriteILb0EEEEvRT_
BZa:__ZNK6Camera22CalculateRenderingPathEv
hvc:__ZN9JSONWrite8TransferI5RectTIfEEEvRT_PKc17TransferMetaFlags
Hph:_AnimationClipPlayable_INTERNAL_CALL_GetRemoveStartOffsetInternal_m3895628593
aLa:__Z13ConvertMipmap14GraphicsFormatPKvS_Pviiii
iLf:_ContentInfo_get_Content_m1802070908
Fxd:_SHA384Managed_processBlock_m3232296629
f7e:_X509Certificate_get_PublicKey_m714501701
JEg:__Z70RuntimeInvoker_Boolean_t3825574718_UInt16_t986882611_Int32_t2071877448PFvvEPK10MethodInfoPvPS4_
PYd:_U3CMouseDragOutsideRectU3Ec__Iterator1_System_Collections_IEnumerator_get_Current_m561728752
O6c:_tt_sbit_decoder_load_image
pja:__Z14IsHalfRTFormat19RenderTextureFormat
mEd:_String_LastIndexOf_m290475879
eRc:__ZN15b2DistanceJointD0Ev
tve:__ZN21InterfaceFuncInvoker1Ii22UILineInfo_t3621277874E6InvokeEjP11Il2CppClassP12Il2CppObjectS0_
JVd:_Image_get_layoutPriority_m2151045813
e_j:__ZN15dense_hashtableINSt3__24pairIK10KeyWrapperIP11Il2CppClassES4_EES5_N6il2cpp8metadata16SZArrayClassHashEN14dense_hash_mapIS5_S4_SA_NS5_14EqualsComparerINS9_19SZArrayClassCompareEEENS0_9allocatorIS7_EEE9SelectKeyESE_SG_EC2EjRKSA_RKSE_RKSI_
Z6h:__ZL58ManualResetEvent_t926074657_CustomAttributesCacheGeneratorP21CustomAttributesCache
sVe:_TextReader_Read_m975794707
Pnc:__ZNSt3__24listIN10GUIManager12SortedScriptE11memory_poolIS2_EE6__sortI13OldSortScriptEENS_15__list_iteratorIS2_PvEESA_SA_jRT_
Nog:_UInt64_System_IConvertible_ToChar_m1930853313_AdjustorThunk
IPf:_TlsClientCertificate_SendCertificates_m1096074091
lMd:_UIBehaviour_OnCanvasHierarchyChanged_m762109874
tae:_SyncHashtable_get_Item_m408601391
x4h:__ZL45DSA_t903174880_CustomAttributesCacheGeneratorP21CustomAttributesCache
IBf:_ReadOnlyCollection_1_System_Collections_IEnumerable_GetEnumerator_m1401363518_gshared
Ppf:_Stack_1_System_Collections_ICollection_CopyTo_m2104527616_gshared
_fg:_StringBuilder_AppendFormat_m1666670800
z3a:__ZN18DeferredRenderLoop13RenderGBufferEP13RenderTexturePS1_b8JobFencePK25DeferredRenderLoopScratchRi
JJg:__Z97RuntimeInvoker_Boolean_t3825574718_RuntimeObject_TextGenerationSettings_t2543476768_RuntimeObjectPFvvEPK10MethodInfoPvPS4_
Tmh:_Rect_Equals_m3806390726
YVg:__Z80RuntimeInvoker_RuntimeObject_RaycastResult_t21186376_RuntimeObject_RuntimeObjectPFvvEPK10MethodInfoPvPS4_
FJb:__Z18Transfer_BlittableI17RemapPPtrTransferLb1E8BitFieldEvRK29SerializationCommandArgumentsR31RuntimeSerializationCommandInfo
S$j:__ZN6il2cpp6icalls8mscorlib6System9ThreadingL11ThreadStartEPv
mba:__ZN15DirectorManager12OnSampleTimeEv
_Df:_ReadOnlyCollection_1_System_Collections_IList_Remove_m3878418841_gshared
NWd:_InputField_EnforceContentType_m1902926812
ika:__ZN12CachedReader10Align4ReadEv
oXc:__ZN15b2WorldManifold10InitializeEPK10b2ManifoldRK11b2TransformfS5_f
Wyf:_Collection_1_CopyTo_m42272870_gshared
l1j:__ZN6il2cpp2vm9Exception28GetMarshalDirectiveExceptionEPKc
PYe:_MulticastDelegate_GetObjectData_m3187757658
thb:__ZNK9Behaviour22GetTypeVirtualInternalEv
sNd:_CanvasScaler_set_referencePixelsPerUnit_m1188599784
IEf:_ReadOnlyCollection_1_System_Collections_IList_get_Item_m887129009_gshared
NGf:_Comparison_1_EndInvoke_m179917407_gshared
r0b:__ZNK28MonoBehaviourPropertyBinding12SetPPtrValueERKN11UnityEngine9Animation10BoundCurveEi
G7a:__Z21GetScriptingArraySize17ScriptingArrayPtr
S0c:__ZN20TextRenderingPrivate8FontImpl8TransferI14SafeBinaryReadEEvRT_
FNc:__ZNSt3__27__sort4IRN10vector_mapIi22ParticleModulePropertyNS_4lessIiEENS_9allocatorINS_4pairIiS2_EEEEE13value_compareEPS7_EEjT0_SD_SD_SD_T_
V8i:__ZN23InterfaceActionInvoker1IP19LinkRef_t2090853131E6InvokeEjP11Il2CppClassP12Il2CppObjectS1_
loa:__Z35UnityPropertySheet_MakeSortedColorsRKNSt3__23mapIN9ShaderLab16FastPropertyNameE10ColorRGBAfNS_4lessIS2_EENS_9allocatorINS_4pairIKS2_S3_EEEEEER10vector_mapIS2_S3_S5_NS6_INS7_IS2_S3_EEEEE
zKg:__Z116RuntimeInvoker_Void_t1841601450_Rect_t3681755626_RuntimeObject_Int32_t2071877448_Int32_t2071877448_Int32_t2071877448PFvvEPK10MethodInfoPvPS4_
Ech:_GUIStyle_Draw_m4006459684
Eui:__ZL104PlayableExtensions_t2358977238_CustomAttributesCacheGenerator_PlayableExtensions_SetDuration_m3676215212P21CustomAttributesCache
Vrg:__Z110RuntimeInvoker_Boolean_t3825574718_RuntimeObject_SByte_t454417549_Int64U26_t763825331_ExceptionU26_t1467204777PFvvEPK10MethodInfoPvPS4_
iDa:__ZN9GfxDevice17ImmediateTexCoordEifff
J7i:_Parser_ParseRegularExpression_m2390577313
s8c:_ft_black_new
lVc:__ZN10ClipperLib7Clipper13AppendPolygonEPNS_5TEdgeES2_
h0d:_Array_double_swapper_m1175307080
agi:__ZL102GameObject_t1756533147_CustomAttributesCacheGenerator_GameObject_Internal_CreateGameObject_m3428198595P21CustomAttributesCache
S8i:_Alternation_AddAlternative_m623421443
S$f:_X509CertificateEnumerator_System_Collections_IEnumerator_Reset_m327358896
pDg:__Z65RuntimeInvoker_Void_t1841601450_Byte_t3683104436_Byte_t3683104436PFvvEPK10MethodInfoPvPS4_
uAd:_Hash__ctor_m2554411450
iIe:_NumberFormatter_AppendDigits_m1308372770
aCd:_Single_System_IConvertible_ToDateTime_m2510003459_AdjustorThunk
xle:_Delegate_RemoveImpl_m3666700529
uuk:_emscripten_glUniform4f__wrapper
FVf:_NameObjectCollectionBase_OnDeserialization_m3478980442
MXh:__ZL70Type_t_CustomAttributesCacheGenerator_Type_GetConstructors_m2314877651P21CustomAttributesCache
zWd:_InputField_set_caretColor_m2252440840
zU:__Z78Register_UnityEngine_Audio_AudioPlayableOutput_INTERNAL_CALL_InternalSetTargetv
pD:__ZN8Animator8TransferI19StreamedBinaryWriteILb0EEEEvRT_
Z$a:__ZNK6Camera16GetProjectionFarEv
mr:__Z24InverseTransformRotationRK23TransformAccessReadOnlyRKN4math7_float4E
NWe:_MissingFieldException__ctor_m1161042282
owe:_Array_InternalArray__IndexOf_TisSlot_t2267560602_m1912863273_gshared
ard:__Z31GetPerformanceReportingSettingsv
Hnb:__ZNK14PlayableOutput11DerivesFromE17ScriptingClassPtr
Awa:__ZN7Texture34CreateFileTextureUploadInstructionE18TextureUploadFlagsj
Gej:_StateMachineBehaviour_OnStateExit_m1490844990
YCa:__ZN9GfxDevice21ResetDynamicResourcesEv
SWa:__ZN13ComputeShader14SetBufferParamEjRKN9ShaderLab16FastPropertyNameE15ComputeBufferID
omb:__ZThn280_N31CanvasBatchIntermediateRenderer20OnAssetBoundsChangedEv
Iag:_StreamingContext__ctor_m3063421596_AdjustorThunk
NDf:_ReadOnlyCollection_1_System_Collections_Generic_IListU3CTU3E_Insert_m3054305464_gshared
sDc:__ZN20ParticleSystemModule8TransferI17RemapPPtrTransferEEvRT_
KVh:__ZL70IntPtr_t_CustomAttributesCacheGenerator_IntPtr_op_Explicit_m3896766622P21CustomAttributesCache
gD:__ZN8Animator8TransferI14SafeBinaryReadEEvRT_
QZj:__ZN15dense_hashtableINSt3__24pairIK10KeyWrapperIP11Il2CppClassES4_EES5_N6il2cpp8metadata16SZArrayClassHashEN14dense_hash_mapIS5_S4_SA_NS5_14EqualsComparerINS9_19SZArrayClassCompareEEENS0_9allocatorIS7_EEE9SelectKeyESE_SG_E4swapERSJ_
Eib:__ZN17GlobalGameManager23VirtualRedirectTransferER18StreamedBinaryReadILb0EE
Fwe:_Array_InternalArray__IndexOf_TisTypeTag_t141209596_m2882894956_gshared
LKi:_Slider_get_value_m4182660424
IPc:__ZNK14b2CapsuleShape5CloneEP16b2BlockAllocator
Gt:__ZN17AnimationPlayable34CollectAnimatorControllerPlayablesER13dynamic_arrayIP26AnimatorControllerPlayableLj4EE
rT:__ZN16BaseVideoTexture19UpdateVideoTexturesEv
dmb:__Z28BuildSingleStreamChannelInfo17ShaderChannelMaskRK20VertexChannelsLayoutS_S2_P11ChannelInfo
Zua:__ZNK16LightmapSettings23HasLightProbeTetrahedraEv
eHc:__ZNK18ColorBySpeedModule12UpdateSingleERK22ParticleSystemParticleR11ColorRGBA32
VOf:_Context_get_WriteSequenceNumber_m243492531
$sb:__ZN6Sprite23VirtualRedirectTransferER19StreamedBinaryWriteILb0EE
UTh:_EqualityComparer_1_System_Collections_IEqualityComparer_GetHashCode_m3761319178_gshared
eEd:_String_LastIndexOfAny_m1473637802
xlc:__Z38Transform_CUSTOM_INTERNAL_set_positionP12Il2CppObjectRK8Vector3f
ohf:_List_1_System_Collections_ICollection_CopyTo_m3062449209_gshared
pTj:__ZNK15dense_hashtableINSt3__24pairIK10KeyWrapperINS1_IPK9FieldInfoP11Il2CppClassEEEjEES9_17ReflectionMapHashIS8_EN14dense_hash_mapIS9_jSD_NS9_14EqualsComparerINS0_8equal_toIS8_EEEENS0_9allocatorISB_EEE9SelectKeyESI_SK_E5beginEv
ama:__ZNK9ShaderLab7Program19HasMatchingVariantsERK13dynamic_arrayI16ShaderKeywordSetLj4EE
eB:__ZN15SerializeTraitsIN4math4trsXEE8TransferI8BlobSizeEEvRS1_RT_
lGa:__ZN14DataBufferGLES11CopySubDataEPKS_jjj
te:_emscripten_glVertexPointer
yPa:__ZNSt3__26__treeI20DeviceDepthStateGLES11memcmp_lessIS1_S1_ENS_9allocatorIS1_EEE7destroyEPNS_11__tree_nodeIS1_PvEE
Khd:__ZN2UI13PrepareOutputERNS_7BatchesEjjNS_30AdditionalCanvasShaderChannelsE
Bff:_List_1_System_Collections_Generic_ICollectionU3CTU3E_get_IsReadOnly_m1614481629_gshared
zOj:__ZN6il2cpp2vm7Runtime47RaiseExecutionEngineExceptionIfMethodIsNotFoundEPK10MethodInfo
f3a:__Z17GetFrustumPortionPK8Vector3fffPS_
aqg:_UnauthorizedAccessException__ctor_m259001183
S2j:__ZN15dense_hashtableINSt3__24pairIK10KeyWrapperIP14Il2CppIUnknownEjEES5_N6il2cpp5utils11PointerHashIS3_EEN14dense_hash_mapIS5_jSB_NS5_14EqualsComparerINS0_8equal_toIS4_EEEENS0_9allocatorIS7_EEE9SelectKeyESG_SI_E14squash_deletedEv
kgj:_TouchScreenKeyboard_set_text_m3456054179
ivi:__ZL60MovedFromAttribute_t922195725_CustomAttributesCacheGeneratorP21CustomAttributesCache
qQd:_DefaultControls_CreateDropdown_m1384069408
gKd:_PointerEventData_get_clickCount_m4064532478
iCf:_ReadOnlyCollection_1_System_Collections_Generic_ICollectionU3CTU3E_get_IsReadOnly_m3508872969_gshared
koe:_EventArgs__cctor_m1350395667
RMc:__Z9UpdateTplIL22MinMaxGradientEvalMode1EL12GradientMode0ELS1_1EEvRK23ParticleSystemParticlesP11ColorRGBA32RK14MinMaxGradientRK23OptimizedMinMaxGradient
qqj:_UnityEvent_1_GetDelegate_m4062537313_gshared
Kzc:__ZN37InheritVelocityModulePropertyBindings13SetFloatValueER14ParticleSystemif
Qoe:_CCGregorianCalendar_is_leap_year_m567513478
qZf:_Oid_get_Value_m2271181078
I0d:_Attribute_IsDefined_m2118467641
R4e:_PrivateKeyInfo_Normalize_m3959595934
vPg:__Z68RuntimeInvoker_Void_t1841601450_Int32_t2071877448_Color32_t874517518PFvvEPK10MethodInfoPvPS4_
jWi:_InternalEnumerator_1_System_Collections_IEnumerator_get_Current_m3125080595_gshared
wwf:_Collection_1_System_Collections_IList_Add_m2091889616_gshared
c7b:__ZN16StreamedResource8TransferI24GenerateTypeTreeTransferEEvRT_
wRc:__ZN11b2GearJoint4DumpEv
MRd:_DropdownItem_OnPointerEnter_m761897861
$ph:_AnimationLayerMixerPlayable_INTERNAL_CALL_IsLayerAdditiveInternal_m364677421
TH:__Z90Register_UnityEngine_Animations_AnimatorControllerPlayable_INTERNAL_CALL_CrossFadeInternalv
DMa:__ZN10Matrix3x3f15InvertTransposeEv
hEc:__ZN14EmissionModule8TransferI19StreamedBinaryWriteILb0EEEEvRT_
Tre:_Array_InternalArray__ICollection_Remove_TisKeyValuePair_2_t1174980068_m2768765894_gshared
GCb:__ZN24GenerateTypeTreeTransfer8TransferINSt3__26vectorIN4core12basic_stringIcNS3_20StringStorageDefaultIcEEEE13stl_allocatorIS7_L18MemLabelIdentifier12ELi16EEEEEEvRT_PKc17TransferMetaFlags
Brh:_AnimatorControllerPlayable_GetFloat_m1229536053
euf:_Collection_1_set_Item_m2199807215_gshared
Yfi:__ZL96GameObject_t1756533147_CustomAttributesCacheGenerator_GameObject_SendMessage_m71956653____value1P21CustomAttributesCache
KIb:__Z29Transfer_Blittable_ArrayFieldI14SafeBinaryRead8Vector3fEvRT_R9ArrayInfoRK23StaticTransferFieldInfo
Png:_UInt32_System_IConvertible_ToBoolean_m91295134
nig:_Monitor_Monitor_test_synchronised_m1542589500
Ofi:__ZL85GameObject_t1756533147_CustomAttributesCacheGenerator_GameObject_get_layer_m725607808P21CustomAttributesCache
dSg:__Z66RuntimeInvoker_Void_t1841601450_Int32_t2071877448_Slot_t2022531261PFvvEPK10MethodInfoPvPS4_
K1c:__ZN20TextRenderingPrivate8FontImpl18ResetCachedTextureEv
dVh:__ZL75String_t_CustomAttributesCacheGenerator_String_Concat_m626692867____values0P21CustomAttributesCache
Zfi:__ZL98GameObject_t1756533147_CustomAttributesCacheGenerator_GameObject_SendMessage_m71956653____options2P21CustomAttributesCache
E5e:_SymmetricTransform_TransformFinalBlock_m4192185386
HKe:_TextInfo__ctor_m1263401274
Fqg:_Version_get_Major_m3385239713
Orj:_ListPool_1_Release_m3047738410_gshared
igj:_TouchScreenKeyboard_Open_m913506328
pfk:_GC_print_finalization_stats
JOf:_Context_get_SecurityProtocolFlags_m3295551796
qLh:_ValueCollection__ctor_m927733289_gshared
Tka:__ZN11NamedObject15ThreadedCleanupEv
RSc:__ZNK12b2WheelJoint10GetAnchorBEv
jwh:_LowMemoryCallback__ctor_m4181659636
d0i:_InternalEnumerator_1__ctor_m2981879621_AdjustorThunk
Cec:__Z53Register_UnityEngine_Behaviour_get_isActiveAndEnabledv
vXf:_IPAddress_ToString_m267966740
Gtj:_EqualityComparer_1__ctor_m3971803374_gshared
Rq:__ZNSt3__26vectorIN4core12basic_stringIcNS1_20StringStorageDefaultIcEEEENS_9allocatorIS5_EEE8__appendEj
HOg:__Z64RuntimeInvoker_Boolean_t3825574718_IntPtr_t_ObjectU26_t597476745PFvvEPK10MethodInfoPvPS4_
RAb:__ZN26PlayerSettingsSplashScreen8TransferI17RemapPPtrTransferEEvRT_
WZi:_InternalEnumerator_1_get_Current_m3922357178_gshared
iNj:__ZN6il2cpp6icalls8mscorlib6SystemL17CollectTypeFieldsINS_5utils10functional10TrueFilterEEEvP11Il2CppClassPKS7_iRNSt3__26vectorIP9FieldInfoNSB_9allocatorISE_EEEERKT_
$xi:__ZL72ColorBlock_t2652774230_CustomAttributesCacheGenerator_m_HighlightedColorP21CustomAttributesCache
zlg:_Type_get_IsValueType_m1733572463
gbh:_GUISkin_get_horizontalScrollbarThumb_m4062590908
t_b:__Z13GetTagManagerv
iXi:_InternalEnumerator_1_Dispose_m1748410190_AdjustorThunk
W_c:__ZN14PhysicsQuery2D7RaycastERK8Vector2fS2_fRKN10Collider2D13ContactFilterEPKS3_bP12RaycastHit2Di
tse:_Array_InternalArray__ICollection_Remove_TisUInt16_t986882611_m65494986_gshared
BCf:_ReadOnlyCollection_1_IndexOf_m3054637117_gshared
RCj:__ZL10roundUp128PyS_
lV:__ZN11UnityEngine15CloudWebService17CloudJobSchedulerD0Ev
$Cd:_String_System_IConvertible_ToBoolean_m2696751322
xta:__ZN18LoadSceneOperation7PerformEv
$8g:_GUILayer_INTERNAL_CALL_HitTest_m693512502
rgd:__ZNK2UI11CanvasGroup22GetTypeVirtualInternalEv
hEd:_String_LastIndexOfAny_m4281325295
jVc:__ZN10ClipperLib7Clipper14IntersectEdgesEPNS_5TEdgeES2_RNS_8IntPointE
UNg:__Z163RuntimeInvoker_Void_t1841601450_RuntimeObject_Int32_t2071877448_SByte_t454417549_SByte_t454417549_SingleU26_t4173844468_SingleU26_t4173844468_SingleU26_t4173844468PFvvEPK10MethodInfoPvPS4_
foc:__Z21CleanupGlobalGUIStatev
bkg:_TimeSpan__ctor_m1888018443_AdjustorThunk
wUg:__Z74RuntimeInvoker_Int32_t2071877448_UIVertex_t1204258818_UIVertex_t1204258818PFvvEPK10MethodInfoPvPS4_
oae:_SyncHashtable_get_Count_m3694444082
DRj:__ZNSt3__26vectorINS_12basic_stringIcNS_11char_traitsIcEENS_9allocatorIcEEEENS4_IS6_EEE8allocateEj
jrg:__Z56RuntimeInvoker_RuntimeObject_RuntimeObject_RuntimeObjectPFvvEPK10MethodInfoPvPS4_
_Na:__ZN22VertexDeclarationCache5ClearEv
cAk:_emscripten_glUniform2i__wrapper
fcb:__ZN17PersistentManager12SetPathRemapERKN4core12basic_stringIcNS0_20StringStorageDefaultIcEEEES6_
aw:__Z27ProcessRootMotionEmptyMixerP35AnimationPlayableEvaluationConstantP32AnimationPlayableEvaluationInputP33AnimationPlayableEvaluationOutput
N4a:__ZN6Camera24PrepareCullingParametersERK23CameraCullingParameters13RenderingPathR11CullResults
P9b:__Z12SetIUISystemP9IUISystem
Jta:__ZN19RuntimeSceneManager22EndIntegrateMainThreadEP10UnitySceneNS_11LoadingModeE
B5h:__ZL84Evidence_t1407710183_CustomAttributesCacheGenerator_Evidence_GetHashCode_m1260371757P21CustomAttributesCache
sCf:_ReadOnlyCollection_1_System_Collections_ICollection_get_IsSynchronized_m2344337514_gshared
cKb:__Z26Transfer_UnityEngineObjectI17RemapPPtrTransferLb0EEvRK29SerializationCommandArgumentsR31RuntimeSerializationCommandInfo
QNg:__Z34RuntimeInvoker_FitMode_t4030874534PFvvEPK10MethodInfoPvPS4_
oEd:_String_IsNullOrEmpty_m2802126737
t3d:_Byte_Parse_m1442736478
JEa:__ZN13GfxDeviceGLES15OnDeviceCreatedEb
DOe:_Int64_Parse_m3258022240
_Dd:_String_IndexOfOrdinal_m3591623977
Rfj:_Texture2D_get_whiteTexture_m1979591766
Hcg:_CryptoConfig_EncodeLongNumber_m2352037787
dmg:_Type_GetMethod_m475234662
ICd:_Single_GetHashCode_m3102305584
y9e:_KeyValuePair_2__ctor_m1877755778_AdjustorThunk
JPi:_ActivationServices_get_ConstructionActivator_m1726426854
lMb:__Z29Transfer_Blittable_ArrayFieldI24GenerateTypeTreeTransfer4AABBEvRT_R9ArrayInfoRK23StaticTransferFieldInfo
e8h:__ZL76Convert_t2607082565_CustomAttributesCacheGenerator_Convert_ToChar_m245844937P21CustomAttributesCache
z7h:__ZL52Activator_t1850728717_CustomAttributesCacheGeneratorP21CustomAttributesCache
rgk:_GC_adj_bytes_allocd
oLi:_SpriteState_t1353336012_marshal_pinvoke_cleanup
hye:_Array_InternalArray__ICollection_Add_TisKeyframe_t1449471340_m887263954_gshared
whj:_UIVertex__cctor_m803910084
Nze:_Array_InternalArray__Insert_TisDateTime_t693205669_m1484996356_gshared
MOc:__ZN15ParticlesModule11SyncAllJobsEv
uhf:_List_1_System_Collections_IList_Remove_m3933652540_gshared
_Mh:_Dictionary_2_System_Collections_IDictionary_GetEnumerator_m1484720898_gshared
oTe:_MonoIO_get_ConsoleInput_m2976499023
O1g:_OpCode_get_Size_m481593949_AdjustorThunk
K7d:_BitArrayEnumerator_checkVersion_m3839504595
Y_d:_Array_GetUpperBound_m1352329707
lSc:__ZN13b2PulleyJoint24SolveVelocityConstraintsERK12b2SolverData
a1b:__ZNK17AnimationCurveTplIfE20FindIndexForSamplingERKNS0_5CacheEfRiS4_
Da:invoke_fiiifii
qNf:_RecordProtocol__ctor_m168945279
Uie:_DateTimeOffset_Equals_m3728302791_AdjustorThunk
Sdh:_GUIStyleState_t3801000545_marshal_pinvoke_back
S2a:__ZN20SphericalHarmonicsL219AddDirectionalLightERKN4math7_float3ERKNS0_7_float4E
_kg:_TimeSpan_op_GreaterThanOrEqual_m3997050520
X8h:__ZL77Convert_t2607082565_CustomAttributesCacheGenerator_Convert_ToUInt16_m36213644P21CustomAttributesCache
fba:__Z26ScheduleJobForEachInternalR8JobFencePFvPvjES1_iPFvS1_E11JobPriority
BZf:_OidEnumerator_MoveNext_m1889267785
HUa:__ZZ23InitPlayerLoopCallbacksvEN41PostLateUpdateProfilerEndFrameRegistrator7ForwardEv
Cac:__ZN9Scripting18RaiseMonoExceptionEPKcz
Kpb:__ZN9Texture2D8TransferI19StreamedBinaryWriteILb0EEEEvRT_
Lah:_GUISkin_set_box_m877476512
PRd:_OptionData__ctor_m3070653720
Drj:_TweenRunner_1_StartTween_m3792842064_gshared
M3b:__ZN9ShaderLab16FastPropertyName15InitBy28BitHashEj
iCd:_Single_System_IConvertible_ToInt32_m3269519527_AdjustorThunk
pFj:__ZN6il2cpp2vm5Class7GetNameEP11Il2CppClass
$wd:_SHA1Internal_ProcessBlock_m4070037334
dwa:__ZN17PersistentManager17IsObjectAvailableEi
Nhk:__ZN6il2cpp6icalls8mscorlib6System10Reflection14MonoMethodInfo15get_method_infoE12Il2CppIntPtrP16Il2CppMethodInfo
ygi:__ZL87RectOffset_t3387826427_CustomAttributesCacheGenerator_RectOffset_get_bottom_m4112328858P21CustomAttributesCache
TAe:_Array_InternalArray__set_Item_TisDouble_t4078015681_m24756265_gshared
w6f:_ObjRef_GetObjectData_m3081609242
C0b:__ZN13ProduceHelperIN2UI13RectTransformELb0EE7ProduceE18MemLabelIdentifier18ObjectCreationMode
Fvb:__ZN17PackedFloatVector12UnpackFloatsEPfiiii
yJc:__Z16EmitterStoreDataRKN4math8float3x3ERKNS_8float4x4ER23ParticleSystemParticlesRK19ParticleSystemStatejRNS_8floatNx3ESC_R5RandNfffbb
j6h:__ZL113EncoderReplacementFallback_t4228544112_CustomAttributesCacheGenerator_EncoderReplacementFallback__ctor_m517300448P21CustomAttributesCache
Qzf:_ReadOnlyCollection_1__ctor_m3671019970_gshared
gz:__ZN17AnimationPlayable28UpdateInternalStateRecursiveILi3ELb0EEEvPK35AnimationPlayableEvaluationConstant
dEa:__ZN13GfxDeviceGLES21DestroyComputeProgramER12ObjectHandleI18ComputeProgram_TagPvE
_de:_Convert_ToDecimal_m2007036836
N8:__ZN17UniqueIDGenerator16DestroyPureIndexEj
X4:__ZL21AppendNestedClassName17ScriptingClassPtrRN4core17string_with_labelILi1EEE
oUb:__ZN14SafeBinaryRead21TransferSTLStyleArrayINSt3__26vectorIN9ShaderLab20SerializedSubProgram12UAVParameterENS1_9allocatorIS5_EEEEEEvRT_17TransferMetaFlags
QRi:_Context_NotifyDynamicSinks_m1367144344
VFh:_Enumerator__ctor_m1897170543_AdjustorThunk
J_:__ZNK13BaseAllocator10IsAssignedEv
uW:__ZN24TextDOMTransferWriteBaseI9JSONWriteE12PushMetaFlagEi
pPf:_Context_get_Current_m2717045324
YAc:__ZN16MinMaxPolyCurves26FindMinMaxDoubleIntegratedEv
Lra:__ZN6prcoreL26RemapGenericIntegerToFloatI17TexFormatARGB888815TexFormatRFloatEEvPKNS_9InnerInfoE
z_:__ZN5Mutex6UnlockEv
ZRi:_Context_GetServerContextSinkChain_m390126977
qRj:__ZN6il2cpp2vm17TypeNameParseInfoD2Ev
cri:__ZL89GUIStyle_t1799908754_CustomAttributesCacheGenerator_GUIStyle_set_imagePosition_m327170707P21CustomAttributesCache
XUe:_StringReader_Read_m513112775
rrb:__ZNK8Renderer8GetLayerEv
dqf:_Collection_1_System_Collections_IList_Insert_m266942173_gshared
dlb:__ZN12FlareManager11DeleteFlareEi
Irf:_Collection_1_Add_m2613548553_gshared
ly:__ZN7mecanim9animation22DestroyBlendTreeOutputEPNS0_15BlendTreeOutputERNS_6memory9AllocatorE
k$a:__ZNK6Camera20GetReplacementShaderEv
ewk:_glProgramBinary__wrapper
Eje:_Decimal__ctor_m569480123_AdjustorThunk
OWf:_HttpWebRequest__cctor_m3013631978
pjk:__ZNSt3__26__treeINS_12__value_typeINS_12basic_stringIcNS_11char_traitsIcEENS_9allocatorIcEEEEPFvvEEENS_19__map_value_compareIS7_SA_NS_4lessIS7_EELb1EEENS5_ISA_EEE4findIS7_EENS_15__tree_iteratorISA_PNS_11__tree_nodeISA_PvEEiEERKT_
BUb:__ZNSt3__26vectorIN9ShaderLab20SerializedSubProgram14ConstantBufferENS_9allocatorIS3_EEE7reserveEj
Ova:__ZL23stbir__calculate_memoryP11stbir__info
szg:__Z83RuntimeInvoker_Void_t1841601450_Int64_t909078037_Int32_t2071877448_Int64_t909078037PFvvEPK10MethodInfoPvPS4_
JUj:__ZNK15dense_hashtableINSt3__24pairIK10KeyWrapperINS1_IPK10MethodInfoP11Il2CppClassEEEjEES9_17ReflectionMapHashIS8_EN14dense_hash_mapIS9_jSD_NS9_14EqualsComparerINS0_8equal_toIS8_EEEENS0_9allocatorISB_EEE9SelectKeyESI_SK_E12test_deletedERK24dense_hashtable_iteratorISB_S9_SD_SM_SI_SK_E
o_h:__ZL90BinaryReader_t2491843768_CustomAttributesCacheGenerator_BinaryReader_ReadSByte_m1712621355P21CustomAttributesCache
BHi:_Scrollbar_FindSelectableOnRight_m3219495255
zSh:_EqualityComparer_1_System_Collections_IEqualityComparer_GetHashCode_m487741360_gshared
igd:__ZNSt3__227__insertion_sort_incompleteIRPFbPN2UI6CanvasES3_EPS3_EEbT0_S8_T_
vyc:__ZNK9rapidjson12GenericValueINS_4UTF8IcEE13JSONAllocatorE6AcceptINS_12PrettyWriterI16TempBufferWriterS2_S2_S3_EEEEbRT_
nXa:__ZNK6Camera18GetRenderRectangleEv
wJj:__ZN6il2cpp5utils13dynamic_arrayIPK10Il2CppTypeLj4EE7reserveEj
Hri:__ZL102GUIStyle_t1799908754_CustomAttributesCacheGenerator_GUIStyle_INTERNAL_CALL_SetMouseTooltip_m3411291301P21CustomAttributesCache
wze:_Array_InternalArray__ICollection_CopyTo_TisVector3_t2243707580_m509487340_gshared
$Td:_GridLayoutGroup_get_constraint_m1351424857
xH:__Z82AnimatorControllerPlayable_CUSTOM_INTERNAL_CALL_IsParameterControlledByCurveStringR9HPlayableP12Il2CppString
vwc:__ZL26Transfer_SimpleNativeClassI8JSONRead10RectOffsetLb1EEvRK29SerializationCommandArgumentsR31RuntimeSerializationCommandInfo
tjd:__Z44CanvasRenderer_CUSTOM_INTERNAL_CALL_SetColorP12Il2CppObjectRK10ColorRGBAf
uGe:_Component_GetComponentInChildren_TisRuntimeObject_m1823576579_gshared
Sek:_GC_should_collect
XPi:_UrlAttribute_Equals_m1587451932
Y9j:__ZNSt3__26__treeINS_12basic_stringIcNS_11char_traitsIcEENS_9allocatorIcEEEENS_4lessIS6_EENS4_IS6_EEE12__find_equalIS6_EERPNS_16__tree_node_baseIPvEESG_RKT_
ztc:__Z18Transfer_BlittableI9JSONWriteLb1EsEvRK29SerializationCommandArgumentsR31RuntimeSerializationCommandInfo
bVc:__ZN10ClipperLib8JoinHorzEPNS_5OutPtES1_S1_S1_NS_8IntPointEb
Kmd:__Z48UnityAnalyticsHandler_CUSTOM_SendCustomEventNameP12Il2CppObjectP12Il2CppString
Jdg:_DSAParameters_t1872138834_marshal_pinvoke_cleanup
Vka:__ZN6ObjectD2Ev
gdc:__ZN9Transform16SetLocalRotationERK11Quaternionf
lsh:_AnimatorControllerPlayable_INTERNAL_CALL_GetIntegerID_m1635852922
xZi:_InternalEnumerator_1_get_Current_m3206960238_AdjustorThunk
MVa:__ZN13RenderManager37RenderCamerasWithScriptableRenderLoopEi
f2e:_ASN1_Element_m2600236165
aaa:__ZN23InstancedPropInfoStaticL16RegisterCallbackEPv
m6j:__ZN15dense_hashtableINSt3__24pairIK10KeyWrapperIP12Il2CppObjectEN6il2cpp2gc9CachedCCWEEES5_NS7_5utils11PointerHashIS3_EEN14dense_hash_mapIS5_S9_SD_NS5_14EqualsComparerINS0_8equal_toIS4_EEEENS0_9allocatorISA_EEE9SelectKeyESI_SK_E16reset_thresholdsEv
nB:__ZN7mecanim8skeleton25SkeletonPoseComputeLocalQEPKNS0_8SkeletonEPKNS0_13SkeletonPoseTIN4math4trsXEEEPS7_ii
Z6j:__ZN6il2cpp2os19ReleaseSocketHandleEj
hxg:__Z92RuntimeInvoker_Void_t1841601450_DateTime_t693205669_DateTime_t693205669_TimeSpan_t3430258949PFvvEPK10MethodInfoPvPS4_
AYh:__ZL128SafeHandleZeroOrMinusOneIsInvalid_t1177681199_CustomAttributesCacheGenerator_SafeHandleZeroOrMinusOneIsInvalid__ctor_m3340306667P21CustomAttributesCache
XS:__ZN11AudioModule16GetDSPSampleRateEv
rbk:__ZN15dense_hashtableINSt3__24pairIK10KeyWrapperIPK19Il2CppGenericMethodEP10MethodInfoEES6_N6il2cpp8metadata23Il2CppGenericMethodHashEN14dense_hash_mapIS6_S9_SD_NS6_14EqualsComparerINSC_26Il2CppGenericMethodCompareEEENS0_9allocatorISA_EEE9SelectKeyESH_SJ_E5clearEv
Q6b:__ZN16PropertyAccessor5ClearEv
HZg:_TypeBuilder_get_next_table_index_m1415870184
Kqk:___cxa_can_catch
AIf:_SequentialSearchPrimeGeneratorBase_GenerateNewPrime_m296245934
y4d:_Char_GetUnicodeCategory_m4273361321
PGc:__ZN14ParticleSystem4EmitEPS_RK21SubEmitterEmitCommand
Smi:__ZL137AnimatorControllerPlayable_t1744083903_CustomAttributesCacheGenerator_AnimatorControllerPlayable_CrossFadeInFixedTimeInternal_m2412303303P21CustomAttributesCache
D$a:__ZN6Camera28DefaultPerformRenderFunctionD0Ev
AWe:_Math_Round_m565516458
HRi:_Identity_get_ClientDynamicProperties_m767245959
hWi:_InternalEnumerator_1__ctor_m675130983_AdjustorThunk
vMh:_Dictionary_2_Clear_m899854001_gshared
e8j:__ZN6il2cpp2os5posix15PosixWaitObjectC2ENS2_4TypeE
wZa:__ZN6Camera21PostMultiCustomRenderENS_10RenderFlagEb
Uoi:__ZL83Canvas_t209405766_CustomAttributesCacheGenerator_Canvas_get_scaleFactor_m1115379735P21CustomAttributesCache
Y1g:_TypeBuilder_create_generic_class_m986834171
Lwj:__ZL24UnresolvedVirtualCall_34P12Il2CppObjectS0_PK10MethodInfo
BLa:__ZN12_GLOBAL__N_112UploadImagesEP7ApiGLESjji14GraphicsFormatPKhjS2_iiii16TextureUsageModePh
hza:__ZN23ShaderVariantCollection13WarmupShadersEv
IOf:_Context_set_ProtocolNegotiated_m1177527245
Tng:_UInt32_System_IConvertible_ToChar_m1056040486
C4:__Z25GetCommonScriptingClassesv
pUf:_TlsStream_get_Length_m1562309511
_ta:__Z27scripting_gc_collect_unsafei
aT:__ZN11AudioModule20SuspendVideoTexturesEv
N7d:_CaseInsensitiveComparer__ctor_m1125492797
h3b:__ZN12CubemapArrayC2E18MemLabelIdentifier18ObjectCreationMode
IUg:__Z73RuntimeInvoker_DictionaryEntry_t3048875398_RuntimeObject_SByte_t454417549PFvvEPK10MethodInfoPvPS4_
yce:_Convert_ToByte_m395020137
_ih:_Plane_ToString_m3541300360_AdjustorThunk
xxb:__Z26CalculateBlendedSkinMatrixILi2EEvRN4math8float4x4EPK10Matrix4x4fPKvj
Ibd:_UNITY_FT_GlyphLoader_CheckPoints
fkf:_List_1_System_Collections_ICollection_CopyTo_m1995866425_gshared
OXc:__ZN16b2PolygonContact7DestroyEP9b2ContactP16b2BlockAllocator
KVe:_TextWriter_WriteLine_m1754475888
Uwa:__ZN15SharedLightData7PrecalcEv
Jnb:__ZN20ScriptPlayableOutputD0Ev
Mua:__ZN10Matrix4x4fmLERKS_
joj:_InvokableCall_1_Invoke_m769918017_gshared
nq:__ZN4PPtrI9TransformE8TransferI18StreamedBinaryReadILb0EEEEvRT_
EFe:_Array_InternalArray__get_Item_TisDouble_t4078015681_m2215331088_gshared
H5h:__ZL57PrincipalPolicy_t289802916_CustomAttributesCacheGeneratorP21CustomAttributesCache
IOb:__Z35Transfer_Blittable_FixedBufferFieldI18StreamedBinaryReadILb1EEsEvRK29SerializationCommandArgumentsR31RuntimeSerializationCommandInfo
ovf:_Collection_1_ClearItems_m3446813399_gshared
nMh:_Dictionary_2_Init_m3666073812_gshared
xlf:_List_1_AsReadOnly_m1681105545_gshared
lTa:__ZN15ArchiveReadFileD0Ev
x5e:_SymmetricTransform_TransformBlock_m1524716432
jve:_Array_compare_TisColor32_t874517518_m3842009370_gshared
QJg:__Z105RuntimeInvoker_Boolean_t3825574718_RuntimeObject_Vector2_t2243707579_RuntimeObject_Vector2U26_t3911752445PFvvEPK10MethodInfoPvPS4_
aod:__ZN11UnityEngine15PlatformWrapper18GetOperatingSystemEv
bJa:__ZNSt3__26vectorIP14DataBufferGLESNS_9allocatorIS2_EEE21__push_back_slow_pathIKS2_EEvRT_
z2i:_InternalEnumerator_1__ctor_m2458691472_AdjustorThunk
UEf:_ReadOnlyCollection_1_System_Collections_Generic_ICollectionU3CTU3E_Remove_m974176789_gshared
ble:_Delegate_return_type_match_m4278947849
nYd:_InputField_GenerateHightlight_m1346735465
$aj:_Uri_ParseNoExceptions_m1151989845
Rbe:_GC_SuppressFinalize_m953228702
Ebd:_FT_MSB
DJf:_MD2__ctor_m3133818738
ydh:_GUIStyle_get_clipping_m2754700641
w_j:__ZN15dense_hashtableINSt3__24pairIK10KeyWrapperINS1_IP11Il2CppClassjEEES4_EES6_N6il2cpp8metadata14ArrayClassHashEN14dense_hash_mapIS6_S4_SB_NS6_14EqualsComparerINSA_17ArrayClassCompareEEENS0_9allocatorIS8_EEE9SelectKeyESF_SH_E3endEv
T7f:_SoapServices_PreLoad_m490411755
tJg:__Z97RuntimeInvoker_Void_t1841601450_PlayableHandleU26_t4210769902_Int32_t2071877448_Int32_t2071877448PFvvEPK10MethodInfoPvPS4_
Kwg:__Z63RuntimeInvoker_RuntimeObject_Int32_t2071877448_SByte_t454417549PFvvEPK10MethodInfoPvPS4_
Sjk:__ZN6il2cpp6icalls8mscorlib4Mono8Security12Cryptography18KeyPairPersistence10_CanSecureEP12Il2CppString
ysi:__ZL96CustomEventData_t1269126727_CustomAttributesCacheGenerator_CustomEventData_AddUInt16_m3349298376P21CustomAttributesCache
ttg:__Z51RuntimeInvoker_Int32_t2071877448_Double_t4078015681PFvvEPK10MethodInfoPvPS4_
XTi:_Action_1_Invoke_m4180501989_gshared
tKi:_Slider__ctor_m3124136916
fEc:__ZN13InitialModule8TransferI19StreamedBinaryWriteILb0EEEEvRT_
u4i:_DefaultComparer__ctor_m3180706193_gshared
_lf:_List_1_System_Collections_Generic_IEnumerableU3CTU3E_GetEnumerator_m3625278020_gshared
LAa:__ZN13GfxDeviceGLES14SetRasterStateEPK17DeviceRasterState
aBg:__Z51RuntimeInvoker_Int16_t4041245914_Single_t2076509932PFvvEPK10MethodInfoPvPS4_
SGb:__Z30TransferField_LinearCollectionI14SafeBinaryReadEvRK29SerializationCommandArgumentsR31RuntimeSerializationCommandInfo
dXd:_InputField_set_caretPositionInternal_m231166704
vcj:_Transform_InverseTransformPoint_m2648491174
cOf:_TlsServerHello__ctor_m3032108168
tja:__ZN14SafeBinaryRead11EndTransferEv
i$h:__ZL98ILGenerator_t99948092_CustomAttributesCacheGenerator_ILGenerator_Mono_GetCurrentOffset_m3553856682P21CustomAttributesCache
fHb:__ZN14SafeBinaryRead8TransferI8MonoPPtrEEvRT_PKc17TransferMetaFlags
sPh:_Dictionary_2_System_Collections_Generic_ICollectionU3CSystem_Collections_Generic_KeyValuePairU3CTKeyU2CTValueU3EU3E_Remove_m1705959559_gshared
JTa:__ZN24dense_hashtable_iteratorINSt3__24pairIKN4core12basic_stringIcNS2_20StringStorageDefaultIcEEEEP20ArchiveStorageReaderEES6_20StringHash32FunctionIS6_EN14dense_hash_mapIS6_S9_SC_NS0_8equal_toIS6_EE13stl_allocatorISA_L18MemLabelIdentifier54ELi16EEE9SelectKeyESF_SI_EppEv
h2i:_InternalEnumerator_1_System_Collections_IEnumerator_get_Current_m1533037706_gshared
Uhi:__ZL111MonoBehaviour_t1158329972_CustomAttributesCacheGenerator_MonoBehaviour_StartCoroutine_Auto_Internal_m1014513456P21CustomAttributesCache
jFc:__ZN11MinMaxCurve11ResetCurvesEv
URf:_RecordProtocol_SendChangeCipherSpec_m3542001341
EBe:_Array_InternalArray__set_Item_TisVector3_t2243707580_m1390667454_gshared
tnc:__ZN12GUIClipState10BeginOnGUIER10InputEvent
o0j:__ZNSt3__26vectorIcNS_9allocatorIcEEEC2Ej
u3e:_KeyPairPersistence_CanSecure_m2251009700
Rw:__ZN7mecanim5human14HumanPoseClearERNS0_9HumanPoseERKNS_6bitsetILj70EEE
PEb:__ZN9TextAsset15ThreadedCleanupEv
v5f:_ReturnMessage_get_Properties_m531965085
I$g:_GenericTypeParameterBuilder_IsSubclassOf_m563999142
Boe:_Exception_ToString_m627574695
o2c:__ZNSt3__26vectorIN20TextRenderingPrivate8FontImpl7IntRectE13stl_allocatorIS3_L18MemLabelIdentifier34ELi16EEE21__push_back_slow_pathIKS3_EEvRT_
gba:__Z21CompleteFenceInternalR8JobFence
$oc:__Z30Event_Get_Custom_PropModifiersP12Il2CppObject
sTj:__ZN30dense_hashtable_const_iteratorINSt3__24pairIK10KeyWrapperINS1_IPK9FieldInfoP11Il2CppClassEEEjEES9_17ReflectionMapHashIS8_EN14dense_hash_mapIS9_jSD_NS9_14EqualsComparerINS0_8equal_toIS8_EEEENS0_9allocatorISB_EEE9SelectKeyESI_SK_E30advance_past_empty_and_deletedEv
KPh:_Dictionary_2_ContainsValue_m2375979648_gshared
Wt:__ZN7mecanim9animation16CreateClipOutputEPKNS0_4ClipERNS_6memory9AllocatorE
Oze:_Array_InternalArray__Insert_TisDecimal_t724701077_m1429254816_gshared
Zrj:_ListPool_1_Get_m2998644518_gshared
fSb:__ZN18StreamedBinaryReadILb0EE21TransferSTLStyleArrayI13dynamic_arrayIyLj8EEEEvRT_17TransferMetaFlags
TCc:__ZN27ParticleSystemEmissionBurst8TransferI24GenerateTypeTreeTransferEEvRT_
fkg:_TimeSpan_get_Days_m1002111510
Kya:__ZNSt3__218__stable_sort_moveIRN10vector_mapI17ScriptingClassPtrPKN5Unity4TypeENS_4lessIS2_EENS_9allocatorINS_4pairIS2_S6_EEEEE13value_compareENS_11__wrap_iterIPSB_EEEEvT0_SJ_T_NS_15iterator_traitsISJ_E15difference_typeEPNSM_10value_typeE
iTb:__ZN6Shader21AwakeFromLoadThreadedEv
Nqa:__ZN6prcoreL17RemapGenericFloatI17TexFormatRGBFloat17TexFormatRGBAHalfEEvPKNS_9InnerInfoE
zzi:__ZL70InputField_t1631627530_CustomAttributesCacheGenerator_m_CharacterLimitP21CustomAttributesCache
Pmf:_List_1_get_Capacity_m2443158653_gshared
gyc:__ZN8JSONRead21TransferSTLStyleArrayI13dynamic_arrayI8Vector2fLj4EEEEvRT_18MemLabelIdentifier17TransferMetaFlags
gfh:_LayerMask_op_Implicit_m2135076047
Hsd:__ZN13RuntimeStaticINSt3__26vectorIjNS0_9allocatorIjEEEELb0EE16StaticInitializeEPv
TX:__ZN13UploadHandler10OnSentDataEj
clk:__ZN6il2cpp2os9SemaphoreC2Eii
fWi:_InternalEnumerator_1_get_Current_m2960188445_AdjustorThunk
hFg:__Z56RuntimeInvoker_UriHostNameType_t2148127109_RuntimeObjectPFvvEPK10MethodInfoPvPS4_
hHb:__ZNSt3__26vectorI8MonoPPtr13stl_allocatorIS1_L18MemLabelIdentifier1ELi16EEE8__appendEj
ULi:_Text_set_alignByGeometry_m1514652028
$Za:__ZN14qsort_internal30FindAndMovePivotToLastPositionIP17RODataReplacementi19ROSorterReplacementEEvT_S4_T0_T1_
wMa:__ZN15UniformTFMethod20IsBoneCountSupportedEi
Whh:_Object_Internal_InstantiateSingle_m2776302597
czd:_X509Certificate_GetExpirationDateString_m2351894475
ORe:_FileStream_get_Position_m465478322
bIj:__ZN14dense_hash_setI10KeyWrapperIPK19Il2CppGenericMethodEN6il2cpp8metadata23Il2CppGenericMethodHashENS4_14EqualsComparerINS6_26Il2CppGenericMethodCompareEEENSt3__29allocatorIS4_EEEC2EjRKS7_RKSA_
Vrk:dynCall_viidi
Sze:_Array_InternalArray__Insert_TisInt64_t909078037_m3039874636_gshared
I1d:_Convert_ToInt16_m1787678274
EMi:_ToggleGroup_NotifyToggleOn_m997426227
vt:__ZN8Playable18OnApplicationPauseEb
cSf:_RSASslSignatureDeformatter_SetKey_m1150106904
Ppi:__ZL74Event_t3028476042_CustomAttributesCacheGenerator_Event_Cleanup_m1195902101P21CustomAttributesCache
u2:__ZN24ScriptingMethodFiltering17FilterOnSignatureENS_18MethodSearchFilterE
zEc:__ZN11TrailModule8TransferI19StreamedBinaryWriteILb0EEEEvRT_
lHi:_Scrollbar_ClickRepeat_m3403943364
fXc:__ZThn4_N16PhysicsManager2D12BeginContactEP9b2Contact
aea:__ZN18ScreenManagerWebGL13SetLockCursorE14CursorLockMode
abd:_cf2_arrstack_finalize
fYe:_MonoType_GetMethodsByName_m1854415088
hGh:_Enumerator_get_CurrentValue_m3147984131_gshared
QZg:_DerivedType_GetMethods_m165266904
c5e:_RSAManaged_EncryptValue_m4089823119
l0b:__ZN13MonoBehaviour19HandleNotificationsEPviR11MessageData
Flk:__ZN6il2cpp2os9EventImpl5ResetEv
BQh:_DefaultComparer_GetHashCode_m926363525_gshared
fch:_GUIStyle_set_focused_m1547304893
lIi:_ScrollRect_get_verticalScrollbar_m2455612493
CSe:_ReadDelegate_Invoke_m2091885836
Z_g:_TypeBuilder_GetField_m2112455315
yvk:b58
Bvk:b59
kIg:__Z80RuntimeInvoker_PlayableHandle_t213697122_PlayableGraph_t1041204988_RuntimeObjectPFvvEPK10MethodInfoPvPS4_
ivk:b52
jvk:b53
gvk:b50
hvk:b51
mvk:b56
nvk:b57
kvk:b54
lvk:b55
_0e:_Kernel_Multiply_m3585610531
BLf:_CertificateSelectionCallback_EndInvoke_m3525317639
jO:__ZN4PPtrI15AudioMixerGroupE8TransferI18StreamedBinaryReadILb0EEEEvRT_
Bui:__ZL116PlayableAsset_t2298101656_CustomAttributesCacheGenerator_PlayableAsset_Internal_GetPlayableAssetDuration_m1442951748P21CustomAttributesCache
$ge:_DateTime__ctor_m3604679583_AdjustorThunk
Wji:__ZL96Transform_t3275118058_CustomAttributesCacheGenerator_Transform_INTERNAL_get_position_m1881704498P21CustomAttributesCache
usi:__ZL94CustomEventData_t1269126727_CustomAttributesCacheGenerator_CustomEventData_AddChar_m1103619816P21CustomAttributesCache
n0d:_SimpleEnumerator_Reset_m1341779532
NRj:__ZNSt3__214__split_bufferINS_12basic_stringIcNS_11char_traitsIcEENS_9allocatorIcEEEERNS4_IS6_EEEC2EjjS8_
r4e:_MACAlgorithm_Core_m2390605245
b1i:_InternalEnumerator_1_System_Collections_IEnumerator_get_Current_m30488070_gshared
f$b:__ZN10GameObject12CleanupClassEv
KZi:_InternalEnumerator_1_System_Collections_IEnumerator_Reset_m2624612805_AdjustorThunk
msg:__Z77RuntimeInvoker_Byte_t3683104436_RuntimeObject_Int32_t2071877448_RuntimeObjectPFvvEPK10MethodInfoPvPS4_
LOi:_DllImportAttribute__ctor_m1165454237
pBa:__ZN9GfxDevice25SetShaderPropertiesSharedERK19ShaderPropertySheet
Xqj:_IndexedSet_1_GetEnumerator_m3646001838_gshared
Vug:__Z96RuntimeInvoker_Int32_t2071877448_RuntimeObject_Int32_t2071877448_Int32_t2071877448_RuntimeObjectPFvvEPK10MethodInfoPvPS4_
yEb:__ZN10MonoScript17MainThreadCleanupEv
tOg:__Z39RuntimeInvoker_KeyValuePair_2_t38854645PFvvEPK10MethodInfoPvPS4_
DHa:__ZN18AsyncUploadManager19AsyncResourceUploadER9GfxDeviceii9TextureID
HFi:_VertexHelper_AddUIVertexTriangleStream_m4009409241
a5i:_Comparer_1__ctor_m844571340_gshared
u4b:__ZL25InitializeDefaultMaterialv
Tjd:__Z53Register_UnityEngine_CanvasRenderer_get_materialCountv
Ujg:_WaitHandle_Dispose_m441403862
NQa:__ZN19FileAccessorHandlerD2Ev
K5i:_Comparer_1__ctor_m2941434245_gshared
gNi:_VertexHelper_AddVert_m3290455716
i5h:__ZL56SHA256Managed_t2029745292_CustomAttributesCacheGeneratorP21CustomAttributesCache
e$h:__ZL126GenericTypeParameterBuilder_t1370236603_CustomAttributesCacheGenerator_GenericTypeParameterBuilder_MakeGenericType_m2955814622P21CustomAttributesCache
Xxa:__ZN17PersistentManager12UnloadStreamERKN4core12basic_stringIcNS0_20StringStorageDefaultIcEEEEb
WLc:__Z43ParticleSystemRenderer_RenderMultipleMeshesIL21SpriteMaskInteraction2EEvRK15RenderNodeQueueRK18RenderMultipleData17ShaderChannelMask
cdg:_DESTransform__ctor_m4096028381
VPj:_il2cpp_unity_liveness_calculation_from_statics
eEe:_Dictionary_2_Do_CopyTo_TisDictionaryEntry_t3048875398_TisDictionaryEntry_t3048875398_m983412647_gshared
yx:__ZNK26AnimatorControllerPlayable11DerivesFromE17ScriptingClassPtr
ujg:_Scheduler_get_Instance_m1989471839
yYf:_WebProxy_GetProxy_m1249556681
FYf:_WebRequest_System_Runtime_Serialization_ISerializable_GetObjectData_m3377822910
Srb:__ZN8Renderer8TransferI17RemapPPtrTransferEEvRT_
kVg:__Z76RuntimeInvoker_Boolean_t3825574718_UIVertex_t1204258818_UIVertex_t1204258818PFvvEPK10MethodInfoPvPS4_
Fuf:_Collection_1_Contains_m1299140035_gshared
Avk:_glBlitFramebuffer__wrapper
nye:_Array_InternalArray__ICollection_Add_TisUICharInfo_t3056636800_m968274080_gshared
fsj:_ObjectPool_1__ctor_m1532275833_gshared
sEa:__ZN13GfxDeviceGLES19SetSinglePassStereoE16SinglePassStereo
bVg:__Z72RuntimeInvoker_Boolean_t3825574718_Color32_t874517518_Color32_t874517518PFvvEPK10MethodInfoPvPS4_
upf:_Queue_1_System_Collections_ICollection_get_IsSynchronized_m3521628381_gshared
uxj:__ZL24UnresolvedVirtualCall_71P12Il2CppObjectS0_S0_iS0_S0_S0_PK10MethodInfo
DVh:__ZL64IntPtr_t_CustomAttributesCacheGenerator_IntPtr__ctor_m3803259710P21CustomAttributesCache
Dlf:_List_1_GetIndex_m3262928832_gshared
tPi:_SafeHandle_DangerousRelease_m2167699172
i8a:__Z24LookRotationToQuaternionRK8Vector3fS1_P11Quaternionf
g8a:__ZN16ReflectionProbes9GetCameraEv
Uth:_AnimatorControllerPlayable_ResolveHash_m3629783965_AdjustorThunk
GXb:__ZL18IsGpuProgramUsable20ShaderGpuProgramTypePK6Shader
tMc:__ZN22ParticleSystemRenderer8TransferI14SafeBinaryReadEEvRT_
G8e:_ArgumentException__ctor_m2105824819
tid:__ZN2UI6Canvas17SetSortingLayerIDEi
VMd:_BaseMeshEffect_get_graphic_m3358796463
b8j:__ZN6il2cpp2vm11MethodStack23CleanupForCurrentThreadEv
TBj:_Predicate_1_Invoke_m695569038_gshared
jaf:_Enumerator_VerifyState_m825848279_AdjustorThunk
Blb:__ZN20TierGraphicsSettings8TransferI24GenerateTypeTreeTransferEEvRT_
iJj:__ZN15dense_hashtableINSt3__24pairIK10KeyWrapperIN6il2cpp5utils13dynamic_arrayIPK10Il2CppTypeLj4EEEEPFvvEEESA_NS3_8metadata19Il2CppSignatureHashEN14dense_hash_mapISA_SD_SG_NSA_14EqualsComparerINSF_22Il2CppSignatureCompareEEENS0_9allocatorISE_EEE9SelectKeyESK_SM_E16reset_thresholdsEv
Usg:__Z77RuntimeInvoker_Int32_t2071877448_RuntimeObject_RuntimeObject_SByte_t454417549PFvvEPK10MethodInfoPvPS4_
Aoh:_UnityAnalyticsHandler_t3238795095_marshal_pinvoke_back
CIb:__ZN14SafeBinaryRead21TransferSTLStyleArrayI13dynamic_arrayI4AABBLj4EEEEvRT_17TransferMetaFlags
goa:__ZN18UnityPropertySheet8TransferI19StreamedBinaryWriteILb0EEEEvRT_
qQf:_TlsServerCertificate_checkServerIdentity_m3836435780
Vba:__ZNSt3__26__treeINS_12__value_typeIiN11TypeManager18TypeCallbackStructEEENS_19__map_value_compareIiS4_NS_4lessIiEELb1EEENS_9allocatorIS4_EEE7destroyEPNS_11__tree_nodeIS4_PvEE
e6e:_PKCS12_Decrypt_m2353135969
YEh:_PersistentCallGroup_Initialize_m3908067069
k4g:_MonoEvent_ToString_m386956596
dti:__ZL70RuntimePlatform_t1869584967_CustomAttributesCacheGenerator_FlashPlayerP21CustomAttributesCache
NCe:_Array_Sort_TisRuntimeObject_m3309514378_gshared
pKd:_PointerEventData_get_pointerPress_m880101744
Lka:__ZL19GetCameraTargetRectRK6Camerabb
AIh:_Transform_1_BeginInvoke_m1786442111_gshared
jni:__ZL137AnimatorControllerPlayable_t1744083903_CustomAttributesCacheGenerator_AnimatorControllerPlayable_PlayInFixedTime_m135407725____fixedTime2P21CustomAttributesCache
QFc:__ZN14ParticleSystem8Update1bER24ParticleSystemUpdateDatafNS_11UpdateFlagsEi
$8a:__ZN13dynamic_arrayIN10GameObject13ComponentPairELj4EE6insertEPS1_RKS1_
yqf:_Collection_1_get_Count_m3834276648_gshared
sgb:__ZN21UnityDefaultAllocatorI17LowLevelAllocatorE10DeallocateEPv
IZ:__GLOBAL__sub_I_runtime_camera2_lump_cpp
Yr:__ZN15PackedIntVector8TransferI14SafeBinaryReadEEvRT_
J2g:_FieldInfo_get_IsLiteral_m267898096
Cki:__ZL105RectTransform_t3349966182_CustomAttributesCacheGenerator_RectTransform_INTERNAL_set_sizeDelta_m1402803191P21CustomAttributesCache
qTf:_SslStreamBase_EndNegotiateHandshake_m1732321201
YIh:_Transform_1_BeginInvoke_m1167293475_gshared
sK:__ZN13AudioListener8DoUpdateEv
CUh:__ZL71SByte_t454417549_CustomAttributesCacheGenerator_SByte_Parse_m1620039654P21CustomAttributesCache
tce:__Z13bankers_roundd
IAb:__ZN14SafeBinaryRead8TransferI5RectTIfEEEvRT_PKc17TransferMetaFlags
Ci:_emscripten_glGenFramebuffers
z9d:_Hashtable_CopyTo_m2778915805
Qba:__ZN17BaseObjectManager16StaticInitializeEPv
eZg:_ConstructorBuilder_get_IsCompilerContext_m2796899803
Sei:__ZL97Component_t3819376471_CustomAttributesCacheGenerator_Component_GetComponentsInChildren_m843288020P21CustomAttributesCache
Yve:_Array_IndexOf_TisUIVertex_t1204258818_m613887160_gshared
MBb:__ZN18StreamedBinaryReadILb0EE19TransferSTLStyleMapINSt3__28multimapIN4core12basic_stringIcNS4_20StringStorageDefaultIcEEEE4PPtrI6ObjectENS2_4lessIS8_EE13stl_allocatorINS2_4pairIKS8_SB_EEL18MemLabelIdentifier51ELi16EEEEEEvRT_17TransferMetaFlags
SPd:_FloatTween_GetDuration_m1757342579_AdjustorThunk
Uce:_DateTime_CoreParse_m2014268103
fjf:_List_1__ctor_m3698273726_gshared
cwh:_Application_InvokeOnBeforeRender_m799598445
whb:__ZN9Behaviour23VirtualRedirectTransferER17RemapPPtrTransfer
Fld:__ZN21UnityAnalyticsManager23VirtualRedirectTransferER19StreamedBinaryWriteILb0EE
duc:__Z18Transfer_BlittableI9JSONWriteLb0EyEvRK29SerializationCommandArgumentsR31RuntimeSerializationCommandInfo
Rka:__ZN13RenderTexture15ThreadedCleanupEv
hsd:__ZNK20UnityWebRequestProtoI19TransportJavaScript16AtomicRefCounter14RedirectHelper14ResponseHelper15DownloadHandler13UploadHandler12HeaderHelper14AsyncOperationE19GetDownloadProgressEv
Yue:_Array_BinarySearch_TisRuntimeObject_m3361740551_gshared
nob:__ZN12CubemapArray23VirtualRedirectTransferER14SafeBinaryRead
Zt:__ZN21AnimationClipPlayable16ProcessHumanPassEPK35AnimationPlayableEvaluationConstantPK32AnimationPlayableEvaluationInputP33AnimationPlayableEvaluationOutput
$Ef:_ReadOnlyCollection_1_System_Collections_IList_Add_m616574295_gshared
yMe:_Int32_ProcessTrailingWhitespace_m2812079777
gua:__ZN18ProceduralMaterial9ReloadAllEbb
Vjc:__Z43RectTransform_CUSTOM_INTERNAL_set_sizeDeltaP12Il2CppObjectRK13Vector2fIcall
tYf:_WebProxy__ctor_m3679722173
IYi:_InternalEnumerator_1_Dispose_m2743309309_AdjustorThunk
k4j:__ZN15dense_hashtableINSt3__24pairIK10KeyWrapperINS1_IPKcS4_EEEiEES6_24NamespaceAndNamePairHashN14dense_hash_mapIS6_iS9_NS6_14EqualsComparerI26NamespaceAndNamePairEqualsEENS0_9allocatorIS8_EEE9SelectKeyESD_SF_E6insertERKS8_
Xja:__ZN24GenerateTypeTreeTransfer18BeginArrayTransferEPKcS1_Ri17TransferMetaFlags
JHa:__Z16DecompressCrunchPKhRjR13TextureFormatiiii18MemLabelIdentifier
Rnf:_List_1__ctor_m2082969060_gshared
um:___syscall51
ym:___syscall54
W4j:__ZNSt3__26__treeINS_12__value_typeIP24Il2CppReflectionAssemblyPvEENS_19__map_value_compareIS3_S5_NS_4lessIS3_EELb1EEENS_9allocatorIS5_EEE12__find_equalIS3_EERPNS_16__tree_node_baseIS4_EESH_RKT_
zpj:_UnityAction_2_Invoke_m1994351568_gshared
Eoh:_UnityAnalyticsHandler_Dispose_m1048126775
tNb:__Z18Transfer_BlittableI19StreamedBinaryWriteILb0EELb1EjEvRK29SerializationCommandArgumentsR31RuntimeSerializationCommandInfo
eD:__ZNK8Animator20IsAnyRendererVisibleEv
dyj:__ZL25UnresolvedVirtualCall_108P12Il2CppObjectS0_28StreamingContext_t1417235061PK10MethodInfo
Jbd:_cff_builder_add_point1
e5j:__ZN6il2cpp2vm5Image21GetCachedResourceDataEPK11Il2CppImageRKNSt3__212basic_stringIcNS5_11char_traitsIcEENS5_9allocatorIcEEEE
GUd:_HorizontalOrVerticalLayoutGroup_set_childControlWidth_m4209477792
$Cg:__Z54RuntimeInvoker_TimeSpan_t3430258949_Double_t4078015681PFvvEPK10MethodInfoPvPS4_
aye:_Array_InternalArray__ICollection_Add_TisUInt32_t2149682021_m2629016323_gshared
_Fb:__Z18Transfer_BlittableI14SafeBinaryReadLb0E10ColorRGBAfEvRK29SerializationCommandArgumentsR31RuntimeSerializationCommandInfo
lLc:__ZN21InheritVelocityModuleD2Ev
Aa:invoke_iiiiiiiiii
CGe:_Object_Instantiate_TisRuntimeObject_m447919519_gshared
QR:__ZNK7Texture10GetVRUsageEv
Gze:_Array_InternalArray__Insert_TisKeyValuePair_2_t888819835_m975554221_gshared
qzg:__Z59RuntimeInvoker_RuntimeObject_Int64_t909078037_RuntimeObjectPFvvEPK10MethodInfoPvPS4_
yta:__ZN18LoadSceneOperation19IntegrateTimeSlicedEi
Fjg:_Scheduler_SchedulerThread_m2209572785
j$e:_SortKeyBuffer_GetResultAndReset_m2516956577
ceb:__ZN10FileSystem19SetCurrentDirectoryERKN4core12basic_stringIcNS0_20StringStorageDefaultIcEEEE
gsj:_ObjectPool_1_get_countAll_m4217365918_gshared
Y4:__ZN16ScriptingManager24NotifyScriptCacheReleaseEi
gdi:__ZL85UriParser_t1012511323_CustomAttributesCacheGenerator_UriParser_OnRegister_m4010407891P21CustomAttributesCache
T_h:__ZL63UnmanagedMemoryStream_t822875729_CustomAttributesCacheGeneratorP21CustomAttributesCache
tec:__Z47Register_UnityEngine_Coroutine_ReleaseCoroutinev
_K:__ZN15AudioReverbZone13SetFMODValuesEv
TBh:_Component_GetComponentInChildren_m3925629424
x1:__ZL19StaticDestroyShaderPv
oe:_glRenderbufferStorageMultisample
d6f:_SoapTypeAttribute_get_XmlTypeName_m2546866572
Ey:__ZN23AnimationPlayableOutput17SetTargetAnimatorEP8Animator
MAf:_ReadOnlyCollection_1_System_Collections_IList_get_IsFixedSize_m158012227_gshared
imj:_X509Chain__ctor_m1113875360
PIb:__Z35Transfer_Blittable_SingleValueFieldI14SafeBinaryReadfEvRT_R17GeneralMonoObjectRK23StaticTransferFieldInfo
LQf:_TlsServerHello_processProtocol_m1241336522
wbi:__ZL79ModulusRing_t80355992_CustomAttributesCacheGenerator_ModulusRing_Pow_m661630322P21CustomAttributesCache
Sre:_Array_InternalArray__ICollection_Remove_TisKeyValuePair_2_t888819835_m1287715465_gshared
WWi:_InternalEnumerator_1_System_Collections_IEnumerator_Reset_m324760031_AdjustorThunk
vSi:_ContextAttribute_IsContextOK_m3281216012
OTe:_PathTooLongException__ctor_m3212099251
RBk:_pthread_cond_broadcast__wrapper
dIc:__Z25EvaluateRandomGradientHDRIL12GradientMode0ELS0_0EEN4math8floatNx4ERK14MinMaxGradientRKNS1_7_float4ES8_
T9f:_ObjectManager_RaiseDeserializationEvent_m1611173032
srh:_AnimatorControllerPlayable_INTERNAL_CALL_CreateHandleInternal_m1836196929
fs:__ZN17PackedFloatVector8TransferI18StreamedBinaryReadILb0EEEEvRT_
ngi:__ZL88Screen_t786852042_CustomAttributesCacheGenerator_Screen_t786852042____width_PropertyInfoP21CustomAttributesCache
Vob:__ZN7Cubemap23VirtualRedirectTransferER17RemapPPtrTransfer
hhc:__Z37Register_UnityEngine_Screen_get_widthv
ARd:_DropdownItem_get_image_m2752143412
jxj:__ZL24UnresolvedVirtualCall_60P12Il2CppObjectaPK10MethodInfo
V7b:__ZN22BlockMemoryCacheWriter11GetPathNameEv
$Sd:_Graphic_Rebuild_m2617722358
A1h:__ZL86SafeHandle_t2733794115_CustomAttributesCacheGenerator_SafeHandle_SetHandle_m1980208835P21CustomAttributesCache
zie:_DateTime_ToString_m3108726445_AdjustorThunk
yV:__ZN19CloudServiceHandlerD2Ev
nFe:_Array_InternalArray__get_Item_TisTableRange_t2011406615_m602485977_gshared
gYd:_InputField_Append_m2623574152
z8e:_ApplicationException__ctor_m1120437222
Q4g:_MonoMethod__ctor_m4091684020
wp:stackAlloc
Oec:__Z44Camera_CUSTOM_INTERNAL_CALL_ScreenPointToRayP12Il2CppObjectRK8Vector3fR3Ray
wRa:__ZN25SingleBlockMemoryFileData4LockEPPv
qSa:__ZN12HandlerChain5TouchER13FileEntryData
e1g:_MethodBuilder_GetHashCode_m1713271764
CPg:__Z50RuntimeInvoker_Boolean_t3825574718_Link_t865133271PFvvEPK10MethodInfoPvPS4_
Fqf:_Collection_1_IsSynchronized_m1319022347_gshared
s_e:_MSCompatUnicodeTable_GetResource_m3816716847
Yfc:__Z32RectOffset_Get_Custom_PropBottomP12Il2CppObject
l$d:_Array_CreateInstance_m15016505
Bii:__ZL103DataUtility_t4181890362_CustomAttributesCacheGenerator_DataUtility_INTERNAL_CALL_GetPadding_m1621366113P21CustomAttributesCache
aIb:__ZNSt3__26vectorI17AnimationCurveTplIfE13stl_allocatorIS2_L18MemLabelIdentifier1ELi16EEE6assignINS_11__wrap_iterIPS2_EEEENS_9enable_ifIXaasr21__is_forward_iteratorIT_EE5valuesr16is_constructibleIS2_NS_15iterator_traitsISC_E9referenceEEE5valueEvE4typeESC_SC_
Mnk:_stat
jXi:_InternalEnumerator_1_MoveNext_m3486952605_gshared
tvd:_RijndaelTransform_Decrypt128_m1282993908
Czk:_glUniform2fv__wrapper
dze:_Array_InternalArray__ICollection_CopyTo_TisUInt16_t986882611_m3228377237_gshared
Pdf:_List_1_Add_m4157722533_gshared
iAi:__ZL68Navigation_t1571958496_CustomAttributesCacheGenerator_m_SelectOnDownP21CustomAttributesCache
ezh:_Bounds_op_Inequality_m2315096783
fRc:__ZN15b2DistanceJoint23InitVelocityConstraintsERK12b2SolverData
J0i:_InternalEnumerator_1_System_Collections_IEnumerator_get_Current_m3065287496_gshared
xza:__ZNSt3__218__insertion_sort_3IRNS_4lessIN22BuiltinResourceManager8ResourceEEEPS3_EEvT0_S7_T_
nCh:_Component_BroadcastMessage_m1308086896
Nud:_RC2_set_KeySize_m2015782960
ma:invoke_iiiiiiiiiiii
qpf:_Queue_1_GetEnumerator_m2842671368_gshared
mwf:_Collection_1_SetItem_m3715941382_gshared
CJe:_NumberFormatInfo_get_CurrencyGroupSeparator_m2480433019
U5e:_StrongName_get_PublicKey_m3777577320
Ldi:__ZL120AssetBundleCreateRequest_t1038783543_CustomAttributesCacheGenerator_AssetBundleCreateRequest_get_assetBundle_m2931245245P21CustomAttributesCache
sOi:_RuntimeCompatibilityAttribute__ctor_m1331212510
Xse:_PlayableHandle_IsPlayableOfType_TisAnimationLayerMixerPlayable_t3057952312_m964258557_gshared
Ugc:__Z43Register_UnityEngine_GameObject_SendMessagev
qkj:_X509CertificateCollection__ctor_m858704242
e8:__ZNSt3__26__treeINS_12__value_typeIN4core12basic_stringIcNS2_20StringStorageDefaultIcEEEES6_EENS_19__map_value_compareIS6_S7_NS_4lessIS6_EELb1EEE13stl_allocatorIS7_L18MemLabelIdentifier12ELi16EEE7destroyEPNS_11__tree_nodeIS7_PvEE
PEj:__ZN6il2cpp2vm17SetupFieldsLockedEP11Il2CppClassRKNS_2os12FastAutoLockE
tO:__ZN11AudioSourceD0Ev
CAh:_CanvasRenderer_set_hasPopInstruction_m1388844875
uff:_List_1_System_Collections_ICollection_CopyTo_m1530390632_gshared
Txf:_Collection_1_System_Collections_IEnumerable_GetEnumerator_m1452790461_gshared
uYi:_InternalEnumerator_1_System_Collections_IEnumerator_Reset_m3194282029_AdjustorThunk
pAc:__ZN27TrailModulePropertyBindings13SetFloatValueER14ParticleSystemif
Deb:__ZN16MemoryFileSystem4NameEv
Hhf:__ZN21InterfaceFuncInvoker0I18Color32_t874517518E6InvokeEjP11Il2CppClassP12Il2CppObject
IHd:_BaseRaycaster_OnEnable_m3641767070
Knf:_List_1_ToArray_m2810936944_gshared
TWe:_MissingMemberException_get_Message_m2763732423
vIf:_PrimeGeneratorBase_get_PrimalityTest_m308005118
mWh:__ZL71Enum_t2459695545_CustomAttributesCacheGenerator_Enum_Format_m2294492821P21CustomAttributesCache
hdh:_GUIStyle_Internal_CalcSize_m1309259680
Coc:__ZNK8GUIStyle8CalcSizeER10GUIContent
aff:_List_1_CheckIndex_m2328469916_gshared
PCg:__Z75RuntimeInvoker_RuntimeObject_RuntimeObject_Decimal_t724701077_RuntimeObjectPFvvEPK10MethodInfoPvPS4_
pFc:__ZN11NoiseModule13AwakeFromLoadEv
nof:_List_1_AddRange_m3345533268_gshared
h3c:_UNITY_FT_New_Size
UH:__Z96Register_UnityEngine_Animations_AnimatorControllerPlayable_INTERNAL_CALL_PlayInFixedTimeInternalv
zIc:__Z9UpdateTplIL27ParticleSystemCurveEvalMode4EEvRK11MinMaxCurveS3_S3_R23ParticleSystemParticlesjjRKN4math8float3x3ERKNS6_7_float4E
Mof:_List_1_get_Item_m3157283227_gshared
bve:__ZN21InterfaceFuncInvoker2Ii38CustomAttributeNamedArgument_t94157543S0_E6InvokeEjP11Il2CppClassP12Il2CppObjectS0_S0_
Woj:_InvokableCall_4_Invoke_m1555001411_gshared
Zfe:_Convert_ToString_m2915777777
Zyc:__ZN35ClampVelocityModulePropertyBindings13SetFloatValueER14ParticleSystemif
Ioa:__ZNSt3__27__sort4IRPFbRKNS_4pairIN9ShaderLab16FastPropertyNameEN18UnityPropertySheet11UnityTexEnvEEES8_EPS6_EEjT0_SD_SD_SD_T_
Yad:_cf2_hintmap_build
wda:__ZN15dense_hashtableINSt3__24pairIKN4core12basic_stringIcNS2_20StringStorageDefaultIcEEEE10vector_setI4PPtrI11SpriteAtlasENS0_4lessISB_EE13stl_allocatorISB_L18MemLabelIdentifier79ELi16EEEEES6_20StringHash32FunctionIS6_EN14dense_hash_mapIS6_SH_SK_NS0_8equal_toIS6_EESE_ISI_LSF_79ELi16EEE9SelectKeyESN_SO_E5clearEv
M8c:_Line_Up
OYe:_MonoType_GetGenericTypeDefinition_m2363776160
gpf:_Queue_1__ctor_m1845245813_gshared
SOf:_Context_set_SentConnectionEnd_m2641458842
ve:_emscripten_glBufferSubData
w2d:_Buffer_BlockCopyInternal_m2627156229
VJb:__Z18Transfer_BlittableI17RemapPPtrTransferLb1EyEvRK29SerializationCommandArgumentsR31RuntimeSerializationCommandInfo
QUd:_Image_set_overrideSprite_m3362535904
rHd:_ExecuteEvents_get_pointerExitHandler_m3250605428
Ppa:__ZN6prcoreL12RemapGenericI15TexFormatRGB88817TexFormatARGB8888EEvPKNS_9InnerInfoE
Xp:__Z17CalculateGlobalRS23TransformAccessReadOnly
sOg:__Z70RuntimeInvoker_DictionaryEntry_t3048875398_RuntimeObject_RuntimeObjectPFvvEPK10MethodInfoPvPS4_
p9f:__ZN21InterfaceFuncInvoker1IP12Il2CppObject28StreamingContext_t1417235061E6InvokeEjP11Il2CppClassS1_S2_
zzh:_Camera_ScreenPointToRay_m614889538
U0e:_Kernel_multiByteDivide_m735279869
aPh:_Dictionary_2_ToTValue_m542772656_gshared
sqd:__ZN23UnityPurchasingSettings10InitializeER6Object
daa:__ZN33InstancedMeshIntermediateRenderer13StaticDestroyEPv
djg:_Thread_GetNewManagedId_internal_m3211695465
f8g:_SkinChangedDelegate_Invoke_m2801964040
IGe:_ScriptableObject_CreateInstance_TisRuntimeObject_m926060499_gshared
qHa:__ZN17GenericDynamicVBO17DrawChunkInternalERK21DynamicVBOChunkHandle17ShaderChannelMaskS3_P17VertexDeclarationP16DrawBuffersRangeij
Fsd:__ZN13RuntimeStaticINSt3__26vectorIN5physx25PxVehicleWheelQueryResultENS0_9allocatorIS3_EEEELb0EE16StaticInitializeEPv
XSb:__ZN22MemoryCacherReadBlocks14LockCacheBlockEjPPhS1_
x1d:_Boolean_System_IConvertible_ToChar_m2637404801_AdjustorThunk
ITg:__Z55RuntimeInvoker_UICharInfo_t3056636800_Int32_t2071877448PFvvEPK10MethodInfoPvPS4_
bBd:_SecurityContext_Capture_m2535194991
jng:_UInt16_System_IConvertible_ToSByte_m3044765342_AdjustorThunk
VZg:_DerivedType_IsArrayImpl_m684825803
AUh:__ZL47Byte_t3683104436_CustomAttributesCacheGeneratorP21CustomAttributesCache
LBg:__Z66RuntimeInvoker_Void_t1841601450_Int64_t909078037_Int32_t2071877448PFvvEPK10MethodInfoPvPS4_
g2c:__ZN20TextRenderingPrivate8FontImpl16CacheFontForTextEPtiifjPK13dynamic_arrayINS_16TextFormatChangeELj4EE
oRg:__Z52RuntimeInvoker_Int32_t2071877448_Vector3_t2243707580PFvvEPK10MethodInfoPvPS4_
ZBe:_Array_qsort_TisUIVertex_t1204258818_TisUIVertex_t1204258818_m512606409_gshared
Hud:__Z21ArrayElementTypeCheckP11Il2CppArrayPv
Vyk:_emscripten_glTexSubImage2D__wrapper
_Vf:_NameValueCollection_AsSingleString_m10599052
Fpk:__ZNSt3__212basic_stringIcNS_11char_traitsIcEENS_9allocatorIcEEE6appendEjc
PZe:_Object_InternalGetHashCode_m1371384246
yFi:_Navigation_get_defaultNavigation_m2185194207
o$c:__ZN16PhysicsManager2D20WorldContactFilter2D13ShouldCollideEP9b2FixtureS2_
sEh:_ArgumentCache_get_stringArgument_m3051619173
lNe:_Int32_System_IConvertible_ToSByte_m1449623243_AdjustorThunk
T7e:_AccessViolationException__ctor_m1270251537
Zkd:__Z42Register_UnityEngine_Canvas_get_rootCanvasv
Bmj:_X509ExtensionCollection_IndexOf_m3972100651
eHb:__Z14resize_trimmedINSt3__26vectorI8MonoPPtr13stl_allocatorIS2_L18MemLabelIdentifier1ELi16EEEEEvRT_j
cf:_TTF_RenderText_Solid
dog:_UInt32_System_IConvertible_ToInt64_m3091851828
XWe:_MissingMethodException__ctor_m3898429715
s7f:_RemotingConfiguration_RegisterClientProviderTemplate_m514821425
WGh:_Enumerator_System_Collections_IEnumerator_Reset_m3085583937_gshared
d5e:_RSAManaged_ExportParameters_m2873993187
Ube:_Convert__cctor_m926133987
Cpf:_Enumerator__ctor_m2816143215_AdjustorThunk
Mqd:__ZN11UnityEngine7Connect16PersistentValuesC2Ev
l$f:_X509Chain_FindParent_m404663796
VWe:_MissingMemberException__ctor_m2164043278
_Cj:__ZL7log2_32j
Vtf:_Collection_1_CopyTo_m2282972507_gshared
_Md:_BaseVertexEffect__ctor_m358261091
S1f:_Interpreter_GetGroupInfo_m312421921
sKa:__Z15IsIEEE754Format14GraphicsFormat
hKb:__Z19TransferField_ArrayI17RemapPPtrTransfer27Converter_UnityEngineObjectEvRK23StaticTransferFieldInfoR31RuntimeSerializationCommandInfoRT0_
bb:invoke_iifiii
G1a:__ZN19ShaderPropertySheet24SetTextureFromTextureRefERK23FastTexturePropertyNamePK10TextureRef
I4h:__ZL53HMACSHA384_t3026079344_CustomAttributesCacheGeneratorP21CustomAttributesCache
Umb:__ZN14RenderSettings8TransferI18StreamedBinaryReadILb0EEEEvRT_
CCa:__ZN13GfxDeviceGLES15UploadTexture2DE9TextureID16TextureDimensionPKhiii14GraphicsFormati18TextureUploadFlags16TextureUsageMode
fPe:_IntPtr_System_Runtime_Serialization_ISerializable_GetObjectData_m21554269_AdjustorThunk
JCd:_Single_GetHashCode_m3102305584_AdjustorThunk
Dqi:__ZL77GUISkin_t1436893342_CustomAttributesCacheGenerator_m_horizontalScrollbarThumbP21CustomAttributesCache
XDe:_Array_swap_TisVector3_t2243707580_m3036634038_gshared
RM:__ZN4FMOD6System9createDSPEP20FMOD_DSP_DESCRIPTIONPPNS_3DSPE
Efh:_Material_HasProperty_m3175512802
gy:__ZN7mecanim9animation26DestroyControllerWorkspaceEPNS0_19ControllerWorkspaceERNS_6memory9AllocatorE
dcj:_UriParser_set_SchemeName_m3624672465
fJ:__ZN4FMOD8ChannelI11EndCallbackEv
Cyd:_ToBase64Transform_TransformBlock_m2201454137
qoc:__ZN8GUIStyle14SetDefaultFontEPN13TextRendering4FontE
BCc:__ZN11ForceModule8TransferI24GenerateTypeTreeTransferEEvRT_
J6i:_PatternCompiler_EmitCount_m3609178511
xsb:__ZN15QualitySettings23VirtualRedirectTransferER24GenerateTypeTreeTransfer
zBj:_U3CCreateWhereIteratorU3Ec__Iterator1D_1_System_Collections_Generic_IEnumerableU3CTSourceU3E_GetEnumerator_m2682676065_gshared
sGe:_Component_GetComponent_TisRuntimeObject_m4109961936_gshared
cdh:_GUIStyle_Internal_GetCursorStringIndex_m1491806746
mwi:__ZL89PointerEventData_t1599784723_CustomAttributesCacheGenerator_U3CpositionU3Ek__BackingFieldP21CustomAttributesCache
AQj:__ZN6il2cpp2os10FileHandleC2Ev
hBg:__Z48RuntimeInvoker_SByte_t454417549_SByte_t454417549PFvvEPK10MethodInfoPvPS4_
Cvg:__Z65RuntimeInvoker_Void_t1841601450_SByte_t454417549_SByte_t454417549PFvvEPK10MethodInfoPvPS4_
HUg:__Z54RuntimeInvoker_KeyValuePair_2_t888819835_RuntimeObjectPFvvEPK10MethodInfoPvPS4_
EUg:__Z65RuntimeInvoker_DictionaryEntry_t3048875398_IntPtr_t_RuntimeObjectPFvvEPK10MethodInfoPvPS4_
Uic:__Z59Register_UnityEngine_MonoBehaviour_Internal_CancelInvokeAllv
n6h:__ZL84Encoding_t663144255_CustomAttributesCacheGenerator_Encoding_GetByteCount_m4104502544P21CustomAttributesCache
ZId:__ZN23InterfaceActionInvoker1IP25AxisEventData_t1524870173E6InvokeEjP11Il2CppClassP12Il2CppObjectS1_
t6f:_ObjRef_set_TypeInfo_m1661789743
zHj:__ZN30dense_hashtable_const_iteratorINSt3__24pairIK10KeyWrapperIPK19Il2CppGenericMethodEPK26Il2CppGenericMethodIndicesEES6_N6il2cpp8metadata23Il2CppGenericMethodHashEN14dense_hash_mapIS6_SA_SE_NS6_14EqualsComparerINSD_26Il2CppGenericMethodCompareEEENS0_9allocatorISB_EEE9SelectKeyESI_SK_EppEv
Kah:_GUISkin_get_box_m533626169
TUf:_HybridDictionary_Add_m1037587952
Lfh:_Mathf_Cos_m238853451
L2c:_UNITY_FT_Request_Metrics
fka:__ZN7Texture8TransferI18StreamedBinaryReadILb0EEEEvRT_
I2j:__ZN6il2cpp6icalls8mscorlib6System10Reflection10MonoMethod29get_IsGenericMethodDefinitionEP22Il2CppReflectionMethod
o$j:__ZN6il2cpp2vm6Thread21AllocThreadStaticDataEi
y9i:__ZN23InterfaceActionInvoker4IiibP19LinkRef_t2090853131E6InvokeEjP11Il2CppClassP12Il2CppObjectiibS1_
Wce:_DateTime_YearMonthDayFormats_m4204607055
AOd:_ColorBlock_set_disabledColor_m3502887543_AdjustorThunk
xbk:__ZN30dense_hashtable_const_iteratorINSt3__24pairIK10KeyWrapperIPK19Il2CppGenericMethodEP10MethodInfoEES6_N6il2cpp8metadata23Il2CppGenericMethodHashEN14dense_hash_mapIS6_S9_SD_NS6_14EqualsComparerINSC_26Il2CppGenericMethodCompareEEENS0_9allocatorISA_EEE9SelectKeyESH_SJ_EppEv
wS:__Z13RegisterClassI13AudioListenerEvv
eTg:__Z48RuntimeInvoker_Link_t865133271_Int32_t2071877448PFvvEPK10MethodInfoPvPS4_
Tsj:_Aes__ctor_m4020215067
LF:__ZN23AnimationOffsetPlayable11GetPositionEv
wli:__ZL125AudioClipPlayable_t192218916_CustomAttributesCacheGenerator_AudioClipPlayable_INTERNAL_CALL_SetPauseDelayInternal_m4175269806P21CustomAttributesCache
otc:__Z18Transfer_BlittableI9JSONWriteLb0E8Vector3fEvRK29SerializationCommandArgumentsR31RuntimeSerializationCommandInfo
G8:__ZN13RuntimeStaticI17UniqueIDGeneratorLb0EE13StaticDestroyEPv
bg:_emscripten_glUniform4i
HNc:__ZNSt3__227__insertion_sort_incompleteIRN10vector_mapIi22ParticleModulePropertyNS_4lessIiEENS_9allocatorINS_4pairIiS2_EEEEE13value_compareEPS7_EEbT0_SD_T_
P4h:__ZL46MD5_t1507972490_CustomAttributesCacheGeneratorP21CustomAttributesCache
cMc:__ZN22ParticleSystemRenderer5ResetEv
ZSd:_Graphic_OnDisable_m2360886868
lsj:_ObjectPool_1_Release_m1615270002_gshared
of:_emscripten_glUniform4f
Gj:___unlock
rek:_GC_default_oom_fn
LH:__Z105Register_UnityEngine_Animations_AnimatorControllerPlayable_INTERNAL_CALL_GetAnimatorClipInfoCountInternalv
UIi:_ScrollRect_InternalCalculateOffset_m3083065267
__i:_InternalEnumerator_1_System_Collections_IEnumerator_Reset_m1561424184_AdjustorThunk
R7d:_Comparer_Compare_m4132969818
eP:__ZN20SoundChannelInstance19setReverbPropertiesEP29FMOD_REVERB_CHANNELPROPERTIES
JYd:_U3CCaretBlinkU3Ec__Iterator0_System_Collections_Generic_IEnumeratorU3CobjectU3E_get_Current_m3541562536
v3i:_InternalEnumerator_1__ctor_m2808001655_AdjustorThunk
e0i:_InternalEnumerator_1_System_Collections_IEnumerator_Reset_m2571770313_AdjustorThunk
Q2g:_FieldInfo_get_UMarshal_m1934544188
gF:__ZNK26AnimatorControllerPlayable14IsInTransitionEi
UQh:_DefaultComparer_Equals_m2171836276_gshared
Fca:__ZN13RuntimeStaticI18SpriteAtlasManagerLb0EE13StaticDestroyEPv
f1j:__ZN6il2cpp2vm9Exception18GetFormatExceptionEPKc
L2h:__ZL55IMessageSink_t2189618969_CustomAttributesCacheGeneratorP21CustomAttributesCache
imc:__Z40Register_UnityEngine_Transform_IsChildOfv
Jch:_GUIStyle_Draw_m1435796321
J5d:_ArrayList_Sort_m923359189
nMi:_Text_CalculateLayoutInputVertical_m1732119136
Nfc:__Z45Register_UnityEngine_Display_GetSystemExtImplv
ev:__ZN7mecanim14ValueArrayLoopILb1EEEvRKNS_10ValueArrayES3_RKNS_14ValueArrayMaskERS1_f
qPa:__ZN9GfxDevice31DrawIndexedNullGeometryIndirectE16GfxPrimitiveTypeP9GfxBuffer15ComputeBufferIDj
Wu:__ZN7mecanim9animation23TransformValuesFromClipEiiiRKNS_10ValueArrayERKNS0_10ClipOutputERKNS0_12ClipBindingsERS1_RNS_14ValueArrayMaskEb
Uyh:_Bounds_set_center_m2069004927_AdjustorThunk
l7e:_X509Certificate_GetSubjectName_m2120755276
wqc:__Z46GUIStyle_CUSTOM_Internal_DrawWithTextSelectionP12Il2CppObjectR43MonoInternal_DrawWithTextSelectionArguments
XCj:__ZL17log2withScale_128yyi
fii:__ZL58ResourceRequest_t2560315377_CustomAttributesCacheGeneratorP21CustomAttributesCache
dhd:__ZNSt3__218__insertion_sort_3IRNS_6__lessIN2UI14DepthSortEntryES3_EEPS3_EEvT0_S7_T_
I4g:_MonoField_CheckGeneric_m1527550038
jaa:__ZN13RuntimeStaticI15DirectorManagerLb0EE16StaticInitializeEPv
Rwc:__ZN8JSONRead8TransferI23ManagedObjectTransfererEEvRT_PKc17TransferMetaFlagsb
ejg:_Thread_get_ManagedThreadId_m1995754972
aHd:_BaseInput_get_touchCount_m998724785
Jzb:__ZN11TimeManager6UpdateEv
jmj:_X509Chain_get_Status_m2726750609
AYd:_InputField_get_preferredWidth_m3185355225
t8g:_GUIUtility_get_pixelsPerPoint_m2667928361
Vwf:_Collection_1_RemoveItem_m1406181352_gshared
Xig:_Thread_SetState_m3198426726
b6d:_ArrayListWrapper_Contains_m1158465965
KDe:_Array_swap_TisColor32_t874517518_m2203309732_gshared
pIf:_BigInteger_op_LessThan_m3825358479
Tnk:_fflush
Jua:__ZN17LightProbeContext4InitERK16LightmapSettingsRK14RenderSettings
L1d:_Convert_ToInt32_m55151042
Ylk:__GLOBAL__sub_I_Error_cpp
ILc:__ZNK29ParticleSystemPropertyBinding12GetPPtrValueERKN11UnityEngine9Animation10BoundCurveE
W8i:_Alternation_GetWidth_m4218808325
ava:__ZN9Texture3DD2Ev
moa:__ZN10ColorRGBAf8TransferI19StreamedBinaryWriteILb0EEEEvRT_
$4c:_ft_bitmap_glyph_bbox
SGe:_Component_GetComponentsInParent_TisRuntimeObject_m2092455797_gshared
fWf:_TypeConverterAttribute__ctor_m4061167050
dpf:_Enumerator_MoveNext_m3315718998_gshared
j7g:_Font_add_textureRebuilt_m1282639736
cCc:__ZN15SerializeTraitsIN9SubModule14SubEmitterDataEE8TransferI14SafeBinaryReadEEvRS1_RT_
VOh:_Dictionary_2_ContainsValue_m2760581195_gshared
mIc:__Z18MagnitudeUpdateTplIL27ParticleSystemCurveEvalMode2EEvRK11MinMaxCurveR23ParticleSystemParticlesjjRKN4math7_float4E
agk:_GC_reclaim_uninit
W5a:__Z34ProcessIndexListIsNodeVisibleStep2RK22SceneCullingParametersPK9SceneNodePK4AABBR9IndexList
wEb:__ZN10MonoScriptD2Ev
eqa:__ZN6prcoreL12RemapGenericI17TexFormatARGB888817TexFormatBGRA8888EEvPKNS_9InnerInfoE
$Ki:_Slider_OnRectTransformDimensionsChange_m4109401172
zqg:_Version_CheckedSet_m76493673
pYf:_WebHeaderCollection_Get_m3391944907
phc:__Z39Input_CUSTOM_INTERNAL_get_mousePositionP8Vector3f
N7c:_tt_cmap13_char_next
K7f:_ServerIdentity__ctor_m1576469955
dVa:__ZN9ShaderLab4Pass16SetupPassOptionsEv
Mqj:_UnityEvent_4__ctor_m3102731553_gshared
ph:_JS_Sound_ReleaseInstance
Usi:__ZL72IL2CPPStructAlignmentAttribute_t130316838_CustomAttributesCacheGeneratorP21CustomAttributesCache
DBa:__ZN13GfxDeviceGLES19DrawBuffersIndirectEP9GfxBufferPK18VertexStreamSourceiP17VertexDeclaration17ShaderChannelMask16GfxPrimitiveType15ComputeBufferIDj
nph:_AnimationClipPlayable__ctor_m1126286616
Jkf:_List_1_Shift_m439051997_gshared
Scj:_Renderer_get_sortingLayerID_m2403577271
gQd:_DefaultControls_CreateScrollbar_m770089625
bPi:_InAttribute__ctor_m1401060713
PAc:__ZL25CalculateCurveRangesValueRKN4math7_float2ERK17AnimationCurveTplIfE
Exk:_emscripten_glPixelStorei__wrapper
BEg:__Z98RuntimeInvoker_Void_t1841601450_Int32_t2071877448_Int32_t2071877448_SByte_t454417549_RuntimeObjectPFvvEPK10MethodInfoPvPS4_
Uje:_Decimal_System_IConvertible_ToDecimal_m1541432424_AdjustorThunk
jSb:__Z29Transfer_Blittable_ArrayFieldI18StreamedBinaryReadILb0EEaEvRT_R9ArrayInfoRK23StaticTransferFieldInfo
hkc:__Z21Resources_CUSTOM_LoadP12Il2CppStringP12Il2CppObject
Mm:FUNCTION_TABLE_diddi
_Id:_ExecuteEvents_Execute_m2863348178
mkc:__Z26Material_CUSTOM_SetIntImplP12Il2CppObjectii
gMe:_Int16_System_IConvertible_ToSingle_m3277935657_AdjustorThunk
BNj:__ZNSt3__26vectorIPK10MethodInfoNS_9allocatorIS3_EEE21__push_back_slow_pathIRKS3_EEvOT_
lvh:_AnimatorControllerPlayable_HasState_m3003093532_AdjustorThunk
Lgd:__ZNK2UI14CanvasRenderer22GetTypeVirtualInternalEv
XSi:_InternalRemotingServices__cctor_m3821625125
jgc:__Z42Register_UnityEngine_RectOffset_get_bottomv
$fg:_StringBuilder_Insert_m3322917127
_Ph:_DefaultComparer_Equals_m724229128_gshared
dkf:_List_1__cctor_m1337542316_gshared
LHh:_Enumerator_VerifyCurrent_m1702320752_AdjustorThunk
xUi:_ArrayReadOnlyList_1_Clear_m2539474626_gshared
B4f:__ZN21InterfaceFuncInvoker0IP24ObjectU5BU5D_t3614634134E6InvokeEjP11Il2CppClassP12Il2CppObject
ppj:_UnityAction_1_EndInvoke_m2603848420_gshared
zee:_Convert_ToDouble_m3520060872
$Hc:__Z25EvaluateRandomGradientHDRIL12GradientMode1ELS0_0EEN4math8floatNx4ERK14MinMaxGradientRKNS1_7_float4ES8_
Ywk:_emscripten_glUniform1f__wrapper
Crk:dynCall_di
iSf:_SslCipherSuite_ComputeServerRecordMAC_m1876572367
S1c:__ZN20TextRenderingPrivate19NativeTextGeneratorC2ERK11UTF16StringPNS_8FontImplE11ColorRGBA32ifRK8Vector2fbifiibffbbbP13dynamic_arrayIN2UI8UIVertexELj4EE
Xsc:__Z28RegisterModule_JSONSerializev
kig:_Interlocked_CompareExchange_m3227034792
jtd:_HashAlgorithm_get_Hash_m931854461
hQj:_il2cpp_monitor_enter
B4i:_DefaultComparer_Compare_m3564013922_gshared
iZb:__ZN2UI13RectTransform8TransferI14SafeBinaryReadEEvRT_
$tc:__Z35Transfer_Blittable_FixedBufferFieldI9JSONWriteaEvRK29SerializationCommandArgumentsR31RuntimeSerializationCommandInfo
ozc:__ZN34ColorBySpeedModulePropertyBindings13GetFloatValueERK14ParticleSystemi
H9b:__Z20IsHumanControllingUsv
qWa:__ZNK19RenderEventsContext21ExecuteCommandBuffersEijR17ShaderPassContextR15RenderNodeQueueP19ProfilerInformationi
xvf:_Collection_1_RemoveAt_m3454169520_gshared
jri:__ZL99GUIStyle_t1799908754_CustomAttributesCacheGenerator_GUIStyle_INTERNAL_get_contentOffset_m2667265678P21CustomAttributesCache
I_:__ZNK20DynamicHeapAllocatorI17LowLevelAllocatorE10GetPtrSizeEPKv
aib:__ZN10systeminfo21GetPersistentDataPathEv
TQd:_Dropdown_set_value_m2945561009
uBa:__ZN13GfxDeviceGLES17DestroyGpuProgramEPK10GpuProgram
uJe:_GregorianCalendar_GetMonth_m523739832
CFb:__Z44InitializeTransferFunctionScriptingTraitsForI18StreamedBinaryReadILb0EEEvR31TransferFunctionScriptingTraits
U1a:__ZNSt3__218__insertion_sort_3IR23CompareReflectionProbesP31RuntimeReflectionProbeBlendInfoEEvT0_S5_T_
rKb:__ZN12NativeBufferI27Converter_SimpleNativeClassI8GradientEE15SetupForWritingER9ArrayInfo
Sca:__ZNSt3__213__stable_sortIRNS_4lessIN4core12basic_stringIcNS2_20StringStorageDefaultIcEEEEEENS_11__wrap_iterIPS6_EEEEvT0_SC_T_NS_15iterator_traitsISC_E15difference_typeEPNSF_10value_typeEi
mBf:_ReadOnlyCollection_1_System_Collections_ICollection_get_IsSynchronized_m2987885125_gshared
x7g:_GameObject_AddComponent_m3757565614
Ida:__ZN12_GLOBAL__N_113StaticDestroyEPv
aHj:__ZN30dense_hashtable_const_iteratorINSt3__24pairIK10KeyWrapperIPKcEP11Il2CppClassEES5_N6il2cpp5utils11StringUtils12StringHasherIS4_EEN14dense_hash_mapIS5_S8_SE_NS5_14EqualsComparerINSB_13VmStringUtils21CaseSensitiveComparerEEENS0_9allocatorIS9_EEE9SelectKeyESJ_SL_EppEv
FLe:_Guid_ToString_m51661589
ync:__ZNK8GUIStyle4DrawER8GUIStateRK5RectTIfER10GUIContentbbbb
LMh:_Dictionary_2__ctor_m1512192236_gshared
GLi:_Text_set_font_m1095513810
LBk:_glUnmapBuffer__wrapper
Ihe:_DateTime_System_IConvertible_ToUInt32_m1363211018_AdjustorThunk
TVd:_InputField_get_cachedInputTextGenerator_m881618486
dAh:_Canvas_get_rootCanvas_m1790974328
lic:__Z32Mesh_CUSTOM_ExtractArrayFromListP12Il2CppObject
KXg:_Binder_get_DefaultBinder_m965620943
wwi:__ZL87PointerEventData_t1599784723_CustomAttributesCacheGenerator_U3CbuttonU3Ek__BackingFieldP21CustomAttributesCache
uxc:__ZN8JSONRead21TransferSTLStyleArrayINSt3__26vectorI8Gradient13stl_allocatorIS3_L18MemLabelIdentifier1ELi16EEEEEEvRT_17TransferMetaFlags
wPf:_SecurityParameters_Clear_m3409219757
eAb:__ZNSt3__218__insertion_sort_3IRNS_6__lessINS_4pairIPKN5Unity4TypeE7Hash128EES8_EEPS8_EEvT0_SC_T_
p7i:_PatternCompiler_EmitAlternationEnd_m889639343
CMc:__Z9UpdateTplIL22MinMaxGradientEvalMode0EL12GradientMode0ELS1_1EEvRK23ParticleSystemParticlesP11ColorRGBA32RK14MinMaxGradientRK23OptimizedMinMaxGradientRK8Vector2f
TLb:__ZN10RectOffset8TransferI24GenerateTypeTreeTransferEEvRT_
l0d:_SimpleEnumerator_get_Current_m482975946
Pac:__Z18GetResourceManagerv
xok:_srand
EUj:__ZNK15dense_hashtableINSt3__24pairIK10KeyWrapperINS1_IPK10MethodInfoP11Il2CppClassEEEjEES9_17ReflectionMapHashIS8_EN14dense_hash_mapIS9_jSD_NS9_14EqualsComparerINS0_8equal_toIS8_EEEENS0_9allocatorISB_EEE9SelectKeyESI_SK_E10test_emptyERK30dense_hashtable_const_iteratorISB_S9_SD_SM_SI_SK_E
VXe:_MonoTypeInfo__ctor_m1398838196
Sgd:__ZN2UI13CanvasManager19RemoveDirtyRendererEPNS_6CanvasEPNS_14CanvasRendererE
jmh:_Rect_get_position_m24550734
IMi:_Toggle_Rebuild_m929023818
yIj:__ZN15dense_hashtableI10KeyWrapperIPK17Il2CppGenericInstES4_N6il2cpp8metadata21Il2CppGenericInstHashEN14dense_hash_setIS4_S7_NS4_14EqualsComparerINS6_24Il2CppGenericInstCompareEEENSt3__29allocatorIS4_EEE8IdentityESB_SE_E12resize_deltaEjj
Jga:__Z15GetIApplicationv
oyh:_AudioClip_InvokePCMSetPositionCallback_Internal_m2304858844
hFc:__ZN14MinMaxGradient5ResetE26ParticleSystemGradientMode
Ond:__ZN11UnityEngine15PlatformWrapper25GetGraphicsRendererStringEv
OXd:_InputField_KeyPressed_m3066588581
Wfj:_Time_get_unscaledTime_m862335845
Imi:__ZL129AnimatorControllerPlayable_t1744083903_CustomAttributesCacheGenerator_AnimatorControllerPlayable_CrossFadeInFixedTime_m3006052409P21CustomAttributesCache
eKi:_Selectable_DoStateTransition_m539253088
Lxd:_SHA512_Create_m439875055
cZ:__ZN11UnityEngine15CloudWebService17WebFileDownloaderINS0_20WebRequestRestClientENS0_23WebRequestRestHeaderMapEED2Ev
ac:invoke_vi
Dxd:_SHA384Managed_update_m2629600295
CVc:__ZNSt3__26vectorINS0_IN10ClipperLib8IntPointENS_9allocatorIS2_EEEENS3_IS5_EEE7reserveEj
kQa:__ZN15dense_hashtableINSt3__24pairIKN4core12basic_stringIcNS2_20StringStorageDefaultIcEEEEP20ArchiveStorageReaderEES6_20StringHash32FunctionIS6_EN14dense_hash_mapIS6_S9_SC_NS0_8equal_toIS6_EE13stl_allocatorISA_L18MemLabelIdentifier54ELi16EEE9SelectKeyESF_SI_ED2Ev
fzc:__ZN14ParticleSystem17RemoveFromManagerEv
dGc:__ZNK14RotationModule16UpdateProceduralERK19ParticleSystemStateR23ParticleSystemParticlesRKN4math7_float4E
_b:invoke_vd
yb:invoke_vf
f2i:_InternalEnumerator_1__ctor_m32322958_AdjustorThunk
D6:__ZNK10GameObject8IsActiveEv
gZe:_NumberFormatter__cctor_m1641464619
VEc:__ZN21InheritVelocityModule5ResetEv
Nbg:_SByte_System_IConvertible_ToUInt32_m4256495110
EJd:_PointerEventData_set_eligibleForClick_m2036057844
hKa:__ZN18GfxFramebufferGLES23SetupDefaultFramebufferEPP17RenderSurfaceBaseS2_N2gl6HandleILNS3_10ObjectTypeE9EEE
$nk:_mbsinit
rch:_GUIStyle_get_Internal_clipOffset_m4237737448
yvi:__ZL70EventSystem_t3466835263_CustomAttributesCacheGenerator_m_FirstSelectedP21CustomAttributesCache
qea:__ZN13ScreenManager18RequestOrientationE17ScreenOrientation
mFj:__ZN6il2cpp2vm5Class12SetupMethodsEP11Il2CppClass
tdc:__Z39DeleteLastPathNameComponentWithAnySlashRKN4core12basic_stringIcNS_20StringStorageDefaultIcEEEE
Anc:__ZN10GUIManager14InitGUIManagerEv
I7h:__ZL62ApplicationException_t474868623_CustomAttributesCacheGeneratorP21CustomAttributesCache
vzi:__ZL68InputField_t1631627530_CustomAttributesCacheGenerator_m_KeyboardTypeP21CustomAttributesCache
kNi:_VerticalLayoutGroup_CalculateLayoutInputHorizontal_m497637066
bNd:_Button_get_onClick_m1595880935
Grj:_ListPool_1_Release_m3716853512_gshared
huh:_AnimatorControllerPlayable_CrossFadeInFixedTimeInternal_m1452579496
gAg:__Z134RuntimeInvoker_Int32_t2071877448_RuntimeObject_Int32_t2071877448_Int32_t2071877448_RuntimeObject_Int32_t2071877448_Int32U26_t455636984PFvvEPK10MethodInfoPvPS4_
Hcj:_RectTransformUtility_PixelAdjustPoint_m560908615
R3f:_MethodCall__ctor_m4106494862
iwg:__Z167RuntimeInvoker_Void_t1841601450_SByte_t454417549_SByte_t454417549_SByte_t454417549_SByte_t454417549_SByte_t454417549_SByte_t454417549_SByte_t454417549_SByte_t454417549PFvvEPK10MethodInfoPvPS4_
eXg:_Module_IsResource_m663979284
Mqc:__Z37Register_UnityEngine_GUIStyle_Cleanupv
Pa:invoke_iiifii
Dkh:_PlayableOutputHandle_CompareVersion_m3789892846
Aej:_StackTraceUtility_ExtractStringFromExceptionInternal_m2568950546
M4b:__ZN8GUILayer12AddToManagerEv
Kgi:__ZL109TouchScreenKeyboard_t601950206_CustomAttributesCacheGenerator_TouchScreenKeyboard_Open_m3410222954____secure4P21CustomAttributesCache
UNj:__ZN6il2cpp6icalls8mscorlib6System8MonoType13IsPointerImplEP20Il2CppReflectionType
jee:_Convert_ToDecimal_m2284596541
bth:_AnimatorControllerPlayable_GetLayerIndex_m747049736
Zi:_emscripten_glFramebufferRenderbuffer
Obi:__ZL64CipherSuiteCollection_t2431504453_CustomAttributesCacheGeneratorP21CustomAttributesCache
BQg:__Z105RuntimeInvoker_Int32_t2071877448_RuntimeObject_UILineInfo_t3621277874_Int32_t2071877448_Int32_t2071877448PFvvEPK10MethodInfoPvPS4_
zQf:_TlsServerCertificateRequest_ProcessAsSsl3_m3017921864
zOe:_Int64_GetHashCode_m4047499913
a9a:__ZN9Transform30EnsureTransformHierarchyExistsEv
FPj:_il2cpp_field_get_flags
lT:__ZN11AudioModule26SetDefaultMicrophoneDriverEPv
nqg:_UnitySerializationHolder_GetRealObject_m286267090
J0d:_Attribute_IsDefined_m216577166
N4d:_Char_ToUpper_m109978609
gG:__Z94Register_UnityEngine_Animations_AnimationLayerMixerPlayable_INTERNAL_CALL_CreateHandleInternalv
CZi:_InternalEnumerator_1_get_Current_m1089848479_gshared
yme:_Double_System_IConvertible_ToInt64_m3798425616
nLd:_StandaloneInputModule_get_repeatDelay_m3025279
Og:___cxa_find_matching_catch_4
pbc:__ZN13MonoBehaviour13StopCoroutineEPKc
Zbb:__ZNSt3__26vectorINS_4pairIN4core12basic_stringIcNS2_20StringStorageDefaultIcEEEEPK17MessageIdentifierEENS_9allocatorISA_EEE12__move_rangeEPSA_SE_SE_
nMc:__ZThn32_N22ParticleSystemRendererD1Ev
a_a:__ZN14qsort_internal17MedianOfThreeSwapIP17RODataReplacement19ROSorterReplacementEEvT_S4_S4_T0_
bFc:__ZN15CollisionModule5ResetEv
oMg:__Z60RuntimeInvoker_FramePressState_t1414739712_Int32_t2071877448PFvvEPK10MethodInfoPvPS4_
ksf:_Collection_1_System_Collections_IList_Insert_m3303840316_gshared
dEj:__ZNK15dense_hashtableINSt3__24pairIK10KeyWrapperIPK22Il2CppGenericParameterEP11Il2CppClassEES6_N6il2cpp5utils11PointerHashIS4_EEN14dense_hash_mapIS6_S9_SE_NS6_14EqualsComparerINS0_8equal_toIS5_EEEENS0_9allocatorISA_EEE9SelectKeyESJ_SL_E3endEv
pdc:__ZN17TransformInternal36OnScaleChangedCalculateTransformTypeE15TransformAccess
jQa:__ZN15dense_hashtableINSt3__24pairIKN4core12basic_stringIcNS2_20StringStorageDefaultIcEEEEP20ArchiveStorageReaderEES6_20StringHash32FunctionIS6_EN14dense_hash_mapIS6_S9_SC_NS0_8equal_toIS6_EE13stl_allocatorISA_L18MemLabelIdentifier54ELi16EEE9SelectKeyESF_SI_E4swapERSL_
f7d:_SynchronizedArrayListWrapper_InsertRange_m709359548
ISa:__ZN17ArchiveFileSystem10ToAbsoluteEPKc
jIf:_BigInteger_op_Modulus_m13450242
Ilb:__ZN4PPtrI8MaterialE8TransferI18StreamedBinaryReadILb0EEEEvRT_
$ee:_Convert_ToInt32_m2988544165
qCe:_Array_Resize_TisColor32_t874517518_m2219502085_gshared
Nz:__ZN7mecanim6CRCKeyENS_7eStringE
aUf:_SslStreamBase_get_CanWrite_m2069502593
d_b:__ZL12SetPrefValueRKN4core12basic_stringIcNS_20StringStorageDefaultIcEEEERK9PrefValue
$Tb:__ZL30ReconstructParamNamesFromTableIN9ShaderLab20SerializedSubProgram15MatrixParameterEEvRK14dense_hash_mapIiN4core17string_with_labelILi1EEE18SInt32HashFunctionNSt3__28equal_toIiEE13stl_allocatorINS8_4pairIKiS6_EEL18MemLabelIdentifier1ELi16EEERNS8_6vectorIT_NS8_9allocatorISL_EEEE
w0:__ZN19ShaderPropertySheet20ReservePropertyCountEj
ick:__ZN6il2cpp5utils11StringUtils6PrintfEPKcz
k_j:__ZNSt3__26vectorIN6il2cpp8metadata18GenericArrayMethodENS_9allocatorIS3_EEE7reserveEj
Voa:__ZN15NameToObjectMapI6ShaderNSt3__23mapI4PPtrIS0_EN4core12basic_stringIcNS5_20StringStorageDefaultIcEEEENS1_4lessIS4_EENS1_9allocatorINS1_4pairIKS4_S9_EEEEEENS1_8multimapIS9_S4_NSA_IS9_EENSC_INSD_IKS9_S4_EEEEEEE4FindERSK_
THh:_ShimEnumerator_Reset_m98005789_gshared
owa:__ZN24GenerateTypeTreeTransfer21TransferResourceImageE19ActiveResourceImagePKcR13StreamingInfoPvjiPKN5Unity4TypeE
Xhh:_Object_INTERNAL_CALL_Internal_InstantiateSingle_m3932420250
_Fc:__ZN13InitialModule18GenerateProceduralERK27ParticleSystemReadOnlyStateR23ParticleSystemParticlesRK10Matrix4x4fRK8Vector3fRK24ParticleSystemEmitReplayRj
mKf:_PKCS1_Compare_m552424558
IIf:_ASN1__ctor_m1045937444
DDf:_ReadOnlyCollection_1_System_Collections_IList_set_Item_m1377990618_gshared
kEc:__ZN11ColorModule8TransferI19StreamedBinaryWriteILb0EEEEvRT_
E0g:_ILGenerator_make_room_m373147874
APh:_Dictionary_2_Init_m1045257495_gshared
fBk:_emscripten_glLinkProgram__wrapper
okh:_PlayableHandle_SetDurationInternal_m3359857977
e2d:_Boolean_CompareTo_m3691698947_AdjustorThunk
iwe:_Array_InternalArray__IndexOf_TisKeyValuePair_2_t888819835_m2660446234_gshared
E4e:_PKCS1_Verify_v15_m2571212635
Cmb:__ZNSt3__212__deque_baseI18ReflectionProbeJobNS_9allocatorIS1_EEED2Ev
jz:__ZN11UnityEngine9Animation27DestroyAnimationSetBindingsEPNS0_20AnimationSetBindingsERN7mecanim6memory9AllocatorE
fUb:__ZN15dense_hashtableINSt3__24pairIKiN4core17string_with_labelILi1EEEEEi18SInt32HashFunctionN14dense_hash_mapIiS5_S7_NS0_8equal_toIiEE13stl_allocatorIS6_L18MemLabelIdentifier1ELi16EEE9SelectKeyESA_SD_E13set_empty_keyERKS6_
bE:__ZN8Animator12CleanupClassEv
bGd:_DecoderReplacementFallbackBuffer__ctor_m1305504326
sxc:__Z13TransferFieldI8JSONReadLb0E27Converter_SimpleNativeClassI10RectOffsetEEvRK23StaticTransferFieldInfoR31RuntimeSerializationCommandInfoRT1_
YDd:_String_IndexOf_m570401060
CVd:_Image_CalculateLayoutInputVertical_m1340533162
ine:_Enum_System_IConvertible_ToDateTime_m2924690746
tRd:_Dropdown_CreateBlocker_m4109366440
etd:_HashAlgorithm_System_IDisposable_Dispose_m2106335965
f5j:__GLOBAL__sub_I_GenericMetadata_cpp
aZe:_NotImplementedException__ctor_m1305569814
xlh:_RangeAttribute__ctor_m1657271662
ami:__ZL147AnimationLayerMixerPlayable_t3057952312_CustomAttributesCacheGenerator_AnimationLayerMixerPlayable_INTERNAL_CALL_IsLayerAdditiveInternal_m364677421P21CustomAttributesCache
lqi:__ZL67GUISettings_t622856320_CustomAttributesCacheGenerator_m_CursorColorP21CustomAttributesCache
Zmc:__ZNK8GUIStyle4DrawER8GUIStateRK5RectTIfER10GUIContentib
gNj:__ZN6il2cpp6icalls8mscorlib6System8MonoType18GetFields_internalEP20Il2CppReflectionTypeiS5_
v5a:__Z24CalculateSpotLightBoundsffRK10Matrix4x4fR15SpotLightBounds
v_e:_TailoringInfo__ctor_m2248501932
Xia:__ZNK13RenderTexture21GetShadowSamplingModeEv
tV:__ZN23CloudWebServicesManager23VirtualRedirectTransferER14SafeBinaryRead
Pvg:__Z150RuntimeInvoker_Int32_t2071877448_RuntimeObject_Int32_t2071877448_Int32_t2071877448_RuntimeObject_Int32_t2071877448_Int32_t2071877448_Int32_t2071877448PFvvEPK10MethodInfoPvPS4_
D6d:_FixedSizeArrayListWrapper_InsertRange_m2690348965
OIc:__ZNK11NoiseModule14CalculateNoiseILi3ELb1ELb0EEEvR23ParticleSystemParticlesRK27ParticleSystemReadOnlyStatejjRKN4math7_float4E
MDb:__Z19ShouldTransferFieldR32SerializationCommandQueueBuilder17ScriptingClassPtriR18TransferField_InfoRK20CoreScriptingClasses
b2g:_FieldInfo_get_IsStatic_m1411173225
bTe:_MemoryStream_Read_m2289595005
WN:__ZN5audio5mixer22UpdateAudioMixerMemoryERKNS0_18AudioMixerConstantERNS0_16AudioMixerMemoryEfPN4FMOD6SystemEf
F0c:__ZL21InitializeCachedStripPv
Hwd:_SignatureDescription_set_DigestAlgorithm_m3219799565
ooh:_CustomEventData_Add_m4139356558
V$j:__ZN6il2cpp6icalls8mscorlib6System9Threading6Thread23GetCachedCurrentCultureEP12Il2CppThread
Yui:__ZL94PlayerEditorConnectionEvents_t2252784345_CustomAttributesCacheGenerator_messageTypeSubscribersP21CustomAttributesCache
zJi:_Selectable_get_allSelectables_m3045831006
b_a:__ZNK6Camera22GetWorldToCameraMatrixEv
t0d:_ArrayTypeMismatchException__ctor_m2892687300
T7j:__ZN6il2cpp2vm12GenericClass11IsValueTypeEP18Il2CppGenericClass
kvg:__Z49RuntimeInvoker_TypeCode_t2536926201_RuntimeObjectPFvvEPK10MethodInfoPvPS4_
$Cb:__ZN13MonoBehaviour7SetNameEPKc
dLf:_ContentInfo__ctor_m3579805263
OGj:__ZN15dense_hashtableINSt3__24pairIK10KeyWrapperIPKcEP11Il2CppClassEES5_N6il2cpp5utils11StringUtils12StringHasherIS4_EEN14dense_hash_mapIS5_S8_SE_NS5_14EqualsComparerINSB_13VmStringUtils21CaseSensitiveComparerEEENS0_9allocatorIS9_EEE9SelectKeyESJ_SL_E15set_deleted_keyERKS9_
MXc:__ZN25b2PolygonAndCircleContact7DestroyEP9b2ContactP16b2BlockAllocator
HIi:_ScrollRect_get_verticalNormalizedPosition_m1701804869
Wzi:__ZL138U3CMouseDragOutsideRectU3Ec__Iterator1_t2599668326_CustomAttributesCacheGenerator_U3CMouseDragOutsideRectU3Ec__Iterator1__ctor_m1439320044P21CustomAttributesCache
Nta:__ZN18AwakeFromLoadQueue5ClearEv
fKh:_Enumerator_get_Current_m2986380627_AdjustorThunk
i4a:__ZNSt3__27__sort5IR15ReflProbeSorterPP15ReflectionProbeEEjT0_S6_S6_S6_S6_T_
Caa:__ZN8Playable10DisconnectEPS_i
TWi:_InternalEnumerator_1_get_Current_m1526874475_AdjustorThunk
Bk:_glGenTransformFeedbacks
xya:__ZN13LoadOperationD2Ev
k3e:_KeyPairPersistence__ctor_m1817312194
qAc:__ZN29TriggerModulePropertyBindings13AddPropertiesER10vector_mapIi22ParticleModulePropertyNSt3__24lessIiEENS2_9allocatorINS2_4pairIiS1_EEEEE
nre:_Array_InternalArray__ICollection_Contains_TisMark_t2724874473_m1640201705_gshared
DPi:_ActivatedClientTypeEntry_get_ContextAttributes_m53051138
Zra:__Z21PlayerStartFirstSceneb
t_g:_TypeBuilder_get_AssemblyQualifiedName_m2097258567
Joa:__ZNSt3__27__sort5IRPFbRKNS_4pairIN9ShaderLab16FastPropertyNameEN18UnityPropertySheet11UnityTexEnvEEES8_EPS6_EEjT0_SD_SD_SD_SD_T_
auh:_AnimatorControllerPlayable_GetParameterCount_m1050153685_AdjustorThunk
RFa:__ZNK7ApiGLES18GetExtensionStringEv
zMa:__ZN31TransformFeedbackSkinPoseBufferD0Ev
Zwk:_emscripten_glVertexAttrib1f__wrapper
yGi:_RaycastAllCallback__ctor_m3281594834
RRa:__ZNK12HandlerChain4SizeERK13FileEntryData
wQh:_DefaultComparer_Equals_m1281232537_gshared
WXh:__ZL99RuntimeFieldHandle_t2331729674_CustomAttributesCacheGenerator_RuntimeFieldHandle_Equals_m1202966418P21CustomAttributesCache
up:FUNCTION_TABLE_iiiiiiiii
$Wd:_InputField_set_asteriskChar_m619206227
Zcg:_DES_IsSemiWeakKey_m3967392585
GVc:__Z22GetPhysicsGroundBody2Dv
VAj:_Comparison_1__ctor_m2159122699_gshared
mMe:_Int16_System_IConvertible_ToUInt32_m883204517_AdjustorThunk
Ggj:_Transform_get_localRotation_m4001487205
E5g:_MonoProperty_get_PropertyType_m1921201152
NPd:_FloatTween_TweenValue_m3881535116_AdjustorThunk
pbi:__ZL81BigInteger_t925946153_CustomAttributesCacheGenerator_BigInteger_SetBit_m576108355P21CustomAttributesCache
Sta:__Z15UnloadGameScenev
GBk:_glCheckFramebufferStatus__wrapper
vAg:__Z43RuntimeInvoker_Boolean_t3825574718_IntPtr_tPFvvEPK10MethodInfoPvPS4_
pui:__ZL59WriteOnlyAttribute_t14323075_CustomAttributesCacheGeneratorP21CustomAttributesCache
nXj:__ZN15dense_hashtableINSt3__24pairIK10KeyWrapperIPK14Il2CppAssemblyEPK22Il2CppMonoAssemblyNameEES6_N6il2cpp5utils11PointerHashIS4_EEN14dense_hash_mapIS6_SA_SF_NS6_14EqualsComparerINS0_8equal_toIS5_EEEENS0_9allocatorISB_EEE9SelectKeyESK_SM_E5clearEv
PD:__ZN16MecanimAnimationD0Ev
oHf:_BigInteger_get_Rng_m2525288368
Eah:_GUIStyleState_GetBackgroundInternal_m439046630
K0f:_X509ExtensionEnumerator_Reset_m3200687545
S7d:_CaseInsensitiveHashCodeProvider__ctor_m3775398833
S4i:_Comparer_1_System_Collections_IComparer_Compare_m674728644_gshared
Ogi:__ZL80Input_t1785128008_CustomAttributesCacheGenerator_Input_GetButtonDown_m2792523731P21CustomAttributesCache
bhc:__Z36Renderer_Get_Custom_PropSortingOrderP12Il2CppObject
HTj:__ZNK15dense_hashtableINSt3__24pairIK10KeyWrapperIPK10Il2CppTypeEjEES6_N6il2cpp8metadata14Il2CppTypeHashEN14dense_hash_mapIS6_jSB_NS6_14EqualsComparerINSA_26Il2CppTypeEqualityComparerEEENS0_9allocatorIS8_EEE9SelectKeyESF_SH_E13find_positionERS7_
Mia:__ZN7Texture5ResetEv
EPc:__ZNK14b2CapsuleShape7RayCastEP15b2RayCastOutputRK14b2RayCastInputRK11b2Transformi
Roi:__ZL82Canvas_t209405766_CustomAttributesCacheGenerator_Canvas_get_renderMode_m1816014618P21CustomAttributesCache
CKb:__Z18Transfer_BlittableI24GenerateTypeTreeTransferLb1EhEvRK29SerializationCommandArgumentsR31RuntimeSerializationCommandInfo
Lwb:__ZN10VertexData10DeallocateEv
S_c:__ZN10Collider2D16TransformChangedEi
jRj:__ZNSt3__214__split_bufferIiRNS_9allocatorIiEEEC2EjjS3_
Ecc:__ZNK16TypeTreeIterator10ByteOffsetEv
ESd:_Graphic_get_rectTransform_m2697395074
C9:__ZnwjRKSt9nothrow_t
CC:__ZN8Animator11ClearObjectEv
nCb:__ZNSt3__26vectorIi13stl_allocatorIiL18MemLabelIdentifier12ELi16EEE8__appendEj
aHg:__Z55RuntimeInvoker_Boolean_t3825574718_Playable_t1896841784PFvvEPK10MethodInfoPvPS4_
NZf:_X500DistinguishedName_Decode_m3070515374
ana:__ZN14SafeBinaryRead19TransferSTLStyleMapINSt3__23mapI39DeprecatedFastPropertyNameSerializationN18UnityPropertySheet11UnityTexEnvENS1_4lessIS3_EENS1_9allocatorINS1_4pairIKS3_S5_EEEEEEEEvRT_17TransferMetaFlags
Zic:__Z45Register_UnityEngine_MonoBehaviour_IsInvokingv
wXf:_IPv6Address_set_ScopeId_m1442934355
sVc:__ZNSt3__27__sort4IRPFbPN10ClipperLib13IntersectNodeES3_EPS3_EEjT0_S8_S8_S8_T_
JYh:__ZL72PKCS12_t1362584794_CustomAttributesCacheGenerator_U3CU3Ef__switchU24mapBP21CustomAttributesCache
U9f:_ObjectManager_RaiseOnDeserializedEvent_m512850179
Zoi:__ZL83Canvas_t209405766_CustomAttributesCacheGenerator_Canvas_get_renderOrder_m2874842494P21CustomAttributesCache
xjc:__Z81Register_UnityEngine_Playables_PlayableHandle_INTERNAL_CALL_SetInputCountInternalv
Zui:__ZL87PlayerEditorConnectionEvents_t2252784345_CustomAttributesCacheGenerator_connectionEventP21CustomAttributesCache
Aei:__ZL86Camera_t189460977_CustomAttributesCacheGenerator_Camera_get_allCamerasCount_m989474043P21CustomAttributesCache
zbc:__Z35UnregisterSerializationCacheBuilderPFv17ScriptingClassPtrR23CachedSerializationDataRbE
Ala:__Z30GetBuiltinVectorParamArraySize24BuiltinShaderVectorParam
RGc:__ZN13InitialModule18SetInheritedParamsERK11ColorRGBA32RK8Vector3fS5_S5_
OSj:__ZNSt3__218uninitialized_copyIPNS_4pairIK10KeyWrapperINS1_IPK14Il2CppAssemblyP11Il2CppClassEEEjEESC_EET0_T_SE_SD_
g_e:_CodePointIndexer__ctor_m797342079
wzi:__ZL64InputField_t1631627530_CustomAttributesCacheGenerator_m_LineTypeP21CustomAttributesCache
EO:__ZN11AudioSource6UpdateEv
N4h:__ZL61KeyedHashAlgorithm_t1374150027_CustomAttributesCacheGeneratorP21CustomAttributesCache
Jnj:_Predicate_1__ctor_m3243601712_gshared
_wi:__ZL103PointerEventData_t1599784723_CustomAttributesCacheGenerator_PointerEventData_set_clickCount_m2095939005P21CustomAttributesCache
e7a:__ZN21RendererUpdateManager11AddRendererER8Renderer
x$b:__Z13RegisterClassI15ResourceManagerEvv
kag:_SerializationEntry_t3485203212_marshal_pinvoke_back
YJg:__Z78RuntimeInvoker_Void_t1841601450_RuntimeObject_RuntimeObject_RectU26_t844847526PFvvEPK10MethodInfoPvPS4_
eGb:__Z35Transfer_Blittable_FixedBufferFieldI14SafeBinaryReadsEvRK29SerializationCommandArgumentsR31RuntimeSerializationCommandInfo
Pvb:__ZN14SafeBinaryRead21TransferSTLStyleArrayI13dynamic_arrayIfLj4EEEEvRT_17TransferMetaFlags
m7h:__ZL79Thread_t241561612_CustomAttributesCacheGenerator_Thread_GetHashCode_m2038641494P21CustomAttributesCache
jck:__ZN6il2cpp5utils11StringUtils11Utf16ToUtf8EPKDs
dod:__ZN11UnityEngine15PlatformWrapper20IsRootedOrJailbrokenEv
PUa:__ZZ23InitPlayerLoopCallbacksvEN52PreLateUpdateScriptRunBehaviourLateUpdateRegistrator7ForwardEv
n_f:_X509Certificate2_GetNameInfo_m402390219
q5a:__Z33IntersectAABBPlaneBoundsOptimizedRK4AABBPKN4math7_float4Ei
q0d:_Swapper_BeginInvoke_m2652511022
Ymh:_RectOffset_t3387826427_marshal_pinvoke_back
zTg:__Z54RuntimeInvoker_UriScheme_t1876590943_Int32_t2071877448PFvvEPK10MethodInfoPvPS4_
w9a:__ZN19ScriptingInvocation6InvokeI28ScriptingSystemTypeObjectPtrEET_P21ScriptingExceptionPtrb
HBa:__ZN9GfxDevice19EndGeometryJobFrameEv
wKb:__ZN27Converter_SimpleNativeClassI17AnimationCurveTplIfEE17ScriptingToNativeER18ScriptingObjectPtrPS1_
Bkk:__ZN6il2cpp8metadata24Il2CppGenericInstCompare7CompareERK10KeyWrapperIPK17Il2CppGenericInstES8_
zOg:__Z36RuntimeInvoker_Enumerator_t132208513PFvvEPK10MethodInfoPvPS4_
wHj:__ZNK15dense_hashtableINSt3__24pairIK10KeyWrapperIPK19Il2CppGenericMethodEPK26Il2CppGenericMethodIndicesEES6_N6il2cpp8metadata23Il2CppGenericMethodHashEN14dense_hash_mapIS6_SA_SE_NS6_14EqualsComparerINSD_26Il2CppGenericMethodCompareEEENS0_9allocatorISB_EEE9SelectKeyESI_SK_E5beginEv
VSd:_Graphic_get_materialForRendering_m2600868951
jt:__ZN27AnimationLayerMixerPlayable21UpdateLayerParametersEv
SPf:_TlsClientSettings_get_ClientCertificate_m89435195
k4h:__ZL61AsymmetricAlgorithm_t784058677_CustomAttributesCacheGeneratorP21CustomAttributesCache
I0g:__ZN21InterfaceFuncInvoker1IiP12MemberInfo_tE6InvokeEjP11Il2CppClassP12Il2CppObjectS1_
quf:_Collection_1_System_Collections_IList_Contains_m3210868188_gshared
f9i:_AnchorInfo_get_IgnoreCase_m2406760852
wBc:__ZN21InheritVelocityModule8TransferI14SafeBinaryReadEEvRT_
$0b:__ZNK17AnimationCurveTplIfE8EvaluateEfPNS0_5CacheE
TTa:__Z31ManagerContextInitializeClassesv
jNj:__ZNSt3__213__vector_baseIP9FieldInfoNS_9allocatorIS2_EEED2Ev
dIe:_NumberFormatter_AppendIntegerString_m868842252
z5c:_ft_smooth_transform
AZh:__ZL53SortedList_t3004938869_CustomAttributesCacheGeneratorP21CustomAttributesCache
n3c:_UNITY_FT_List_Finalize
kkk:__ZN6il2cpp6icalls8mscorlib6System7Runtime8Remoting10Activation18ActivationServices34AllocateUninitializedClassInstanceEP20Il2CppReflectionType
e$a:__Z20LightAttenuateApproxRKfS0_
e4:__ZN9Scripting30SetCachedPtrOnScriptingWrapperE18ScriptingObjectPtrP6Object
yNb:__Z18Transfer_BlittableI19StreamedBinaryWriteILb0EELb0EdEvRK29SerializationCommandArgumentsR31RuntimeSerializationCommandInfo
Agb:__ZN17LowLevelAllocator6MallocEj
tFd:_ASCIIEncoding_GetBytes_m3649277167
w8g:_GUILayoutUtility_Internal_GetWindowRect_m1287880151
brh:_AnimationPlayableOutput_get_Null_m577023
pOh:_Dictionary_2__ctor_m2457723796_gshared
YRc:__ZN16b2PrismaticJoint4DumpEv
URi:_Context_GetProperty_m1664740450
kxa:__ZN18BlockRangeInternal16PopLastNodeIndexEP10BlockRangeji
Aqg:_Version__ctor_m2972638031
Naf:_Enumerator_System_Collections_IEnumerator_Reset_m886102771_AdjustorThunk
z1e:_Kernel_MultiplyByDword_m155008287
dvb:__ZN4MeshD0Ev
kzg:__Z121RuntimeInvoker_Void_t1841601450_Int64_t909078037_RuntimeObject_RuntimeObject_Int64_t909078037_RuntimeObject_RuntimeObjectPFvvEPK10MethodInfoPvPS4_
Qsd:__ZL42RequestRecreateEyeTexturesBeforeNextUpdatev
kLh:_ValueCollection_System_Collections_Generic_ICollectionU3CTValueU3E_get_IsReadOnly_m3005456072_gshared
XCf:_ReadOnlyCollection_1_System_Collections_ICollection_get_SyncRoot_m1577944046_gshared
Qka:__ZNK6Camera20IsCurrentlyRenderingEv
Vu:__ZN21AnimationClipPlayable23ProcessRootMotionNoClipEPK35AnimationPlayableEvaluationConstantPK32AnimationPlayableEvaluationInputP33AnimationPlayableEvaluationOutput
Cjd:__Z36CanvasRenderer_CUSTOM_SetPopMaterialP12Il2CppObjectS0_i
c5h:__ZL58RijndaelManaged_t1034060848_CustomAttributesCacheGeneratorP21CustomAttributesCache
guc:__Z18Transfer_BlittableI9JSONWriteLb0EdEvRK29SerializationCommandArgumentsR31RuntimeSerializationCommandInfo
uRc:__ZNK11b2GearJoint16GetReactionForceEf
fUe:_TextReader__ctor_m3276128267
Eef:_List_1_System_Collections_Generic_ICollectionU3CTU3E_get_IsReadOnly_m3598018290_gshared
jBf:_ReadOnlyCollection_1_System_Collections_IList_Insert_m3679749778_gshared
NMi:_Toggle_OnDidApplyAnimationProperties_m325835214
Qmk:_wctomb
rHg:__Z55RuntimeInvoker_Void_t1841601450_Matrix4x4U26_t266301477PFvvEPK10MethodInfoPvPS4_
Sec:__Z27Camera_CUSTOM_GetAllCamerasP11Il2CppArray
aDb:__ZNK13MonoBehaviour25GetNeedsPerObjectTypeTreeEv
MQb:__Z35Transfer_Blittable_FixedBufferFieldI18StreamedBinaryReadILb0EEiEvRK29SerializationCommandArgumentsR31RuntimeSerializationCommandInfo
HDc:__ZN11ForceModule8TransferI18StreamedBinaryReadILb0EEEEvRT_
Vbe:_Convert_InternalFromBase64String_m3682756716
jd:___cxa_rethrow
Gvc:__Z18Transfer_BlittableI8JSONReadLb1EhEvRK29SerializationCommandArgumentsR31RuntimeSerializationCommandInfo
tuh:_AnimatorControllerPlayable_CrossFadeInFixedTimeInternal_m3383124488
$Yc:__ZN18Overlap2DQueryBase13ReportFixtureEP9b2Fixture
$pi:__ZL86GUI_t4082743951_CustomAttributesCacheGenerator_U3CnextScrollStepTimeU3Ek__BackingFieldP21CustomAttributesCache
Uac:__ZN10systeminfo23SupportsLocationServiceEv
cKg:__Z48RuntimeInvoker_Void_t1841601450_Rect_t3681755626PFvvEPK10MethodInfoPvPS4_
D8i:_Regex_System_Runtime_Serialization_ISerializable_GetObjectData_m4035555909
wkg:_TimeSpan_Add_m3228293154
zQh:_DefaultComparer_Equals_m4098991076_gshared
W8a:__ZN13MonoBehaviour8SetClassE17ScriptingClassPtr18ScriptingObjectPtr
KKf:_RC4__cctor_m523650203
ASi:_CrossContextDelegate_Invoke_m2908136830
msj:_Locale_GetText_m3480617287
C8e:_ApplicationIdentity_ToString_m800036884
yea:__ZN20LocalFileSystemPosix4ReadER13FileEntryDatayyPvPy
H2a:__ZNSt3__211__sift_downIRN23ForwardShaderRenderLoop18RenderObjectSorterILb0EEEP21ForwardRenderPassDataEEvT0_S7_T_NS_15iterator_traitsIS7_E15difference_typeES7_
eWe:_UnmanagedMemoryStream_get_Position_m4093669769
U2h:__ZL83MethodDictionary_t1742974787_CustomAttributesCacheGenerator_U3CU3Ef__switchU24map21P21CustomAttributesCache
Gyg:__Z90RuntimeInvoker_Void_t1841601450_IntPtr_t_RuntimeObject_Int32_t2071877448_Int32_t2071877448PFvvEPK10MethodInfoPvPS4_
pDb:__ZN13MonoBehaviour5DoGUIENS_13GUILayoutTypeEii
WHf:_Kernel_Multiply_m1938858919
n_g:_DerivedType_IsDefined_m555719351
V5i:_Mark_get_IsDefined_m3332701456
Pfb:__ZNK12TLSAllocatorI14StackAllocatorE8ContainsEPKv
Lzb:__ZN11TimeManager8TransferI18StreamedBinaryReadILb0EEEEvRT_
GYb:__ZN15SerializeTraitsINSt3__23mapI4PPtrI6ShaderEN4core12basic_stringIcNS5_20StringStorageDefaultIcEEEENS0_4lessIS4_EENS0_9allocatorINS0_4pairIKS4_S9_EEEEEEE8TransferI24GenerateTypeTreeTransferEEvRSH_RT_
F4e:_EncryptedPrivateKeyInfo__ctor_m3964541963
idg:_DESTransform__cctor_m1179482644
pSh:_EqualityComparer_1_System_Collections_IEqualityComparer_GetHashCode_m1465362976_gshared
Thh:_Object_t1021602117_marshal_pinvoke_cleanup
rvb:__ZN14BlendShapeData8TransferI14SafeBinaryReadEEvRT_
Cfj:_TextGenerator_PopulateWithErrors_m467881283
XXi:_InternalEnumerator_1_MoveNext_m3476348493_gshared
tne:_Enum_Format_m2294492821
h8h:__ZL81Convert_t2607082565_CustomAttributesCacheGenerator_Convert_ToDateTime_m3810846875P21CustomAttributesCache
zob:__ZN7Texture25ReloadFromStorageIfNeededEPvb
itc:__Z35Transfer_Blittable_FixedBufferFieldI9JSONWritehEvRK29SerializationCommandArgumentsR31RuntimeSerializationCommandInfo
sWg:_OverflowException__ctor_m2564269836
bIh:_ShimEnumerator_get_Entry_m2332479818_gshared
EHd:_BaseRaycaster_get_priority_m247683215
oie:_DateTime_CheckDateTimeKind_m329345155_AdjustorThunk
Udd:_Update_Max
I$j:__ZN6il2cpp6icalls8mscorlib6SystemL15ThrowNoWideningEv
i1b:__ZNK23TransformChangeDispatch24GetChangeMaskForInterestENS_12InterestTypeE
Tdh:_GUIStyleState_t3801000545_marshal_pinvoke_cleanup
Llc:__Z45Transform_CUSTOM_INTERNAL_CALL_TransformPointP12Il2CppObjectRK8Vector3fRS1_
_tf:__ZN23InterfaceActionInvoker2Ii18Color32_t874517518E6InvokeEjP11Il2CppClassP12Il2CppObjectiS0_
sfb:__ZL10KeyHandleriPK23EmscriptenKeyboardEventPv
zna:__ZNSt3__26__treeINS_12__value_typeI39DeprecatedFastPropertyNameSerializationfEENS_19__map_value_compareIS2_S3_NS_4lessIS2_EELb1EEENS_9allocatorIS3_EEE7destroyEPNS_11__tree_nodeIS3_PvEE
wjc:__Z81Register_UnityEngine_Playables_PlayableHandle_INTERNAL_CALL_GetInputCountInternalv
q7c:_tt_cmap4_char_index
Gwh:_AsyncOperation_get_allowSceneActivation_m2825451182
Xkg:_TimeSpan_op_Addition_m3421801803
$Ra:__ZNK12HandlerChain8IsHiddenERK13FileEntryData
Qyi:__ZL50Graphic_t2426225576_CustomAttributesCacheGeneratorP21CustomAttributesCache
VOd:_ContentSizeFitter_set_verticalFit_m3978553199
MJb:__ZL26Transfer_SimpleNativeClassI17RemapPPtrTransfer10RectOffsetLb0EEvRK29SerializationCommandArgumentsR31RuntimeSerializationCommandInfo
Q3c:__Z14ValidateFormatR13dynamic_arrayIN20TextRenderingPrivate16TextFormatChangeELj4EE
rUg:__Z114RuntimeInvoker_Int32_t2071877448_CustomAttributeTypedArgument_t1498197914_CustomAttributeTypedArgument_t1498197914PFvvEPK10MethodInfoPvPS4_
qff:_List_1__ctor_m2672294496_gshared
wcj:_Vector2_op_Implicit_m1064335535
pua:__Z31GetLightProbeProxyVolumeManagerv
qhe:_DateTime_System_IConvertible_ToInt32_m2789391054_AdjustorThunk
aGg:__Z73RuntimeInvoker_Single_t2076509932_Vector3_t2243707580_Vector3_t2243707580PFvvEPK10MethodInfoPvPS4_
h2e:_ASN1Convert_FromInt32_m1541043489
HKd:_PointerInputModule_ProcessMove_m3200120346
Cce:_Convert_ToByte_m1008221737
LJf:_MD2Managed_MD2Transform_m3825201358
dvf:_Collection_1_System_Collections_IList_IndexOf_m3976312928_gshared
wAi:__ZL69Scrollbar_t3248359358_CustomAttributesCacheGenerator_m_OnValueChangedP21CustomAttributesCache
V8e:_KeyValuePair_2__ctor_m3201181706_gshared
_Uc:__ZN10ClipperLib14PointInPolygonERKNS_8IntPointEPNS_5OutPtE
L5f:_SoapFieldAttribute_get_XmlElementName_m4100905008
YQd:_Dropdown_AddOptions_m835420907
Bwi:__ZL107PointerEventData_t1599784723_CustomAttributesCacheGenerator_PointerEventData_get_rawPointerPress_m448871540P21CustomAttributesCache
Cla:__ZNK9ShaderLab20ShaderBlendStateDesc15ToGfxBlendStateEPK19ShaderPropertySheetS3_R13GfxBlendState
rZh:__ZL92Hashtable_t909839986_CustomAttributesCacheGenerator_Hashtable_t909839986____hcp_PropertyInfoP21CustomAttributesCache
iOd:_CanvasUpdateRegistry_IsRebuildingLayout_m1677873278
wXc:__ZN15dense_hashtableINSt3__24pairIKNS1_IPK10Collider2DS4_EE11Collision2DEES5_NS2_23ColliderPairHashFunctorEN14dense_hash_mapIS5_S7_S9_NS0_8equal_toIS5_EE13stl_allocatorIS8_L18MemLabelIdentifier65ELi16EEE9SelectKeyESC_SF_E9copy_fromERKSI_j
Oy:__ZN11UnityEngine9AnimationL22GenericBindingCallbackEPvS1_i
Cdd:_Compute_Point_Displacement
qYb:__ZN9ShaderLab9IntShaderC2Ev
$Nj:__ZN6il2cpp6icalls8mscorlib6SystemL9IsPrivateEPK9EventInfo
Xik:__ZN6il2cpp6icalls8mscorlib6System10Reflection4Emit11TypeBuilder20setup_internal_classEP27Il2CppReflectionTypeBuilderS7_
SXi:_InternalEnumerator_1_System_Collections_IEnumerator_Reset_m3237341717_AdjustorThunk
H9g:_RectOffset_set_left_m620681523
Iih:_Physics2D_Raycast_m2560154475
fVi:_ArrayReadOnlyList_1_IndexOf_m1809425308_gshared
xU:__Z58AudioPlayableOutput_CUSTOM_INTERNAL_CALL_InternalSetTargetR15HPlayableOutputP12Il2CppObject
NPj:_il2cpp_gc_disable
PG:__Z69AnimatorControllerPlayable_CUSTOM_INTERNAL_CALL_GetLayerIndexInternalR9HPlayableP12Il2CppString
qCc:__ZN27ParticleSystemReadOnlyState8TransferI24GenerateTypeTreeTransferEEvRT_
qJd:_ExecuteEvents_U3Cs_HandlerListPoolU3Em__0_m2903690915
I9d:_Hashtable_Clone_m165405752
$Rc:__ZN16b2PrismaticJoint24SolveVelocityConstraintsERK12b2SolverData
Y$h:__ZL61CallingConventions_t1097349142_CustomAttributesCacheGeneratorP21CustomAttributesCache
pCh:_Component_BroadcastMessage_m444672650
ynd:__ZN11UnityEngine15PlatformWrapper19GetPhysicalMemoryMBEv
Jxi:__ZL144U3CStartU3Ec__Iterator0_t3220237554_CustomAttributesCacheGenerator_U3CStartU3Ec__Iterator0_System_Collections_IEnumerator_get_Current_m290565900P21CustomAttributesCache
xfa:__Z15CreateDirectoryRKN4core12basic_stringIcNS_20StringStorageDefaultIcEEEE
Wua:__Z21CalculateGlobalMatrix23TransformAccessReadOnly
lYh:__ZL70InternalsVisibleToAttribute_t1037732567_CustomAttributesCacheGeneratorP21CustomAttributesCache
Qzb:__ZNK13BuildSettings22GetTypeVirtualInternalEv
KQe:_MonoIO_GetCurrentDirectory_m1509324201
Gxd:_SHA384Managed_adjustByteCounts_m410900820
Igg:_UTF32Encoding_GetHashCode_m4205784236
qOb:__Z35Transfer_Blittable_FixedBufferFieldI18StreamedBinaryReadILb1EEhEvRK29SerializationCommandArgumentsR31RuntimeSerializationCommandInfo
rde:_DateTime_ToUniversalTime_m1815024752
Txi:__ZL73U3COnFinishSubmitU3Ec__Iterator0_t99135383_CustomAttributesCacheGeneratorP21CustomAttributesCache
v$b:__Z13RegisterClassI14RenderSettingsEvv
ifj:_TextGenerator_Finalize_m4242493229
zhk:_GC_set_on_event
fVg:__Z80RuntimeInvoker_Boolean_t3825574718_Navigation_t1571958496_Navigation_t1571958496PFvvEPK10MethodInfoPvPS4_
Dqf:_Collection_1_ConvertItem_m3563206219_gshared
Ukg:_TimeSpan_Subtract_m3597791685_AdjustorThunk
Y3g:_MonoCMethod_get_Name_m764669486
gx:__ZN7mecanim12statemachine24CreateStateMachineOutputEPKNS0_20StateMachineConstantEjRNS_6memory9AllocatorE
Uyc:__ZN15CollisionModuleD0Ev
ZOj:_il2cpp_assembly_get_image
eCa:__ZNK9GfxDevice27GetActiveRenderSurfaceWidthEv
Dzg:__Z45RuntimeInvoker_SerializationEntry_t3485203212PFvvEPK10MethodInfoPvPS4_
Qnd:__ZN11UnityEngine15PlatformWrapper28GetCleanGraphicsFixedVersionEv
Zvg:__Z133RuntimeInvoker_Int32_t2071877448_RuntimeObject_RuntimeObject_Int32_t2071877448_Int32_t2071877448_RuntimeObject_ContextU26_t3131521781PFvvEPK10MethodInfoPvPS4_
reb:__ZN16MemoryFileSystem5WriteER13FileEntryDatayyPvPy
w:tempBigIntP
RRj:__ZN6il2cpp2vm4Type7GetTypeEPK10Il2CppType
K2f:_Interval_t2354235237_marshal_pinvoke_cleanup
Jmh:_Rect_Contains_m1334685291_AdjustorThunk
U1b:__ZN16SpriteRenderData28PrepareRenderingDataIfNeededEv
v0d:_AssemblyLoadEventHandler_Invoke_m108373765
Woe:_CCGregorianCalendar_dmy_from_fixed_m2992247462
GKd:_PointerInputModule_ShouldStartDrag_m4163638715
lyi:__ZL61Dropdown_t1985816271_CustomAttributesCacheGenerator_m_OptionsP21CustomAttributesCache
Pzc:__ZN14ParticleSystem18SetSimulationSpeedEf
zxj:__ZL24UnresolvedVirtualCall_76P12Il2CppObjectPK10MethodInfo
Uqa:__ZN6prcoreL17RemapGenericFloatI18TexFormatRGBAFloat17TexFormatRGBAHalfEEvPKNS_9InnerInfoE
Dli:__ZL131AudioMixerPlayable_t1831808911_CustomAttributesCacheGenerator_AudioMixerPlayable_INTERNAL_CALL_SetAutoNormalizeInternal_m2425179629P21CustomAttributesCache
NVa:__Z16FindCameraStacksRKNSt3__24listI4PPtrI6CameraENS_9allocatorIS3_EEEERNS_6vectorI11CameraStackNS4_ISA_EEEE
Pjj:_WebRequestUtils__cctor_m893658947
YLc:__Z43ParticleSystemRenderer_RenderMultipleMeshesIL21SpriteMaskInteraction0EEvRK15RenderNodeQueueRK18RenderMultipleData17ShaderChannelMask
qqb:__ZN10GISettings8TransferI14SafeBinaryReadEEvRT_
Gn:FUNCTION_TABLE_vifff
ODf:_ReadOnlyCollection_1_System_Collections_Generic_ICollectionU3CTU3E_Remove_m2957273994_gshared
dbb:__ZN19CustomRenderTexture12ClearGPUDataEv
yHd:_BaseInputModule_ShouldActivateModule_m2899747874
oUg:__Z86RuntimeInvoker_Int32_t2071877448_DateTimeOffset_t1362988906_DateTimeOffset_t1362988906PFvvEPK10MethodInfoPvPS4_
Wia:__ZN13RenderTexture13ApplySettingsEv
K6h:__ZL92UTF8Encoding_t111055448_CustomAttributesCacheGenerator_UTF8Encoding_GetByteCount_m2547312609P21CustomAttributesCache
tuk:_glVertexAttrib4f__wrapper
gf:_JS_Sound_SetListenerPosition
yn:FUNCTION_TABLE_fiffi
$H:__Z86Register_UnityEngine_Animations_AnimatorControllerPlayable_INTERNAL_CALL_SetBoolStringv
E1g:_ModuleBuilderTokenGenerator_GetToken_m3427457873
OJi:_Selectable_get_isPointerInside_m3162215687
Hve:_Array_FindIndex_TisRuntimeObject_m4149904176_gshared
Edf:_List_1_System_Collections_IList_Contains_m149594880_gshared
c4j:__ZNK15dense_hashtableINSt3__24pairIK10KeyWrapperINS1_IPKcS4_EEEiEES6_24NamespaceAndNamePairHashN14dense_hash_mapIS6_iS9_NS6_14EqualsComparerI26NamespaceAndNamePairEqualsEENS0_9allocatorIS8_EEE9SelectKeyESD_SF_E10test_emptyERK24dense_hashtable_iteratorIS8_S6_S9_SH_SD_SF_E
P8h:__ZL78Convert_t2607082565_CustomAttributesCacheGenerator_Convert_ToSByte_m2585959569P21CustomAttributesCache
zSg:__Z77RuntimeInvoker_Void_t1841601450_Int32_t2071877448_PlayableBinding_t2498078091PFvvEPK10MethodInfoPvPS4_
$pg:_UnauthorizedAccessException__ctor_m3480402128
w1e:_BigInteger_op_Modulus_m3788401748
OOa:__ZN9GfxDevice20SetRenderSurfaceNameEP17RenderSurfaceBasePKc
aTi:_ArgInfo_GetInOutArgs_m3184132151
_sa:__ZNK8Material16MarkDependenciesER27GarbageCollectorThreadState
i7h:__ZL85Thread_t241561612_CustomAttributesCacheGenerator_Thread_get_CurrentThread_m3667342817P21CustomAttributesCache
juc:__ZL17Transfer_GUIStyleI9JSONWriteLb0EEvRK29SerializationCommandArgumentsR31RuntimeSerializationCommandInfo
tZa:__Z28GetHaloVertexPositionsStereoP8Vector3fRKS_S2_f
Jra:__ZN6prcoreL27StretchGenericFloatBilinearI15TexFormatRGHalfEEvPKNS_9InnerInfoE
eui:__ZL85UnityEvent_1_t4075366602_CustomAttributesCacheGenerator_UnityEvent_1__ctor_m152711818P21CustomAttributesCache
Hni:__ZL137AnimatorControllerPlayable_t1744083903_CustomAttributesCacheGenerator_AnimatorControllerPlayable_INTERNAL_CALL_SetFloatString_m1681161548P21CustomAttributesCache
xaf:_Enumerator_MoveNext_m598197344_AdjustorThunk
xDc:__ZN19ParticleSystemState8TransferI18StreamedBinaryReadILb0EEEEvRT_
hyj:__ZL25UnresolvedVirtualCall_112P12Il2CppObjectsS0_aaaPK10MethodInfo
FDh:_DisplaysUpdatedDelegate_Invoke_m3646339243
Wej:_TextGenerationSettings_t2543476768_marshal_pinvoke_back
VUg:__Z36RuntimeInvoker_Enumerator_t442692252PFvvEPK10MethodInfoPvPS4_
MEd:_String_JoinUnchecked_m1880555587
Tla:__ZNK9ShaderLab7Program21GetMatchingSubProgramEPK6ShaderPKNS_4PassERK16ShaderKeywordSetjPS7_R19ShaderSnippetResult
Hze:_Array_InternalArray__Insert_TisKeyValuePair_2_t1174980068_m2464431954_gshared
Xdi:__ZL109AsyncOperation_t3814632279_CustomAttributesCacheGenerator_AsyncOperation_set_allowSceneActivation_m3988498951P21CustomAttributesCache
kkc:__Z49Register_UnityEngine_Resources_GetBuiltinResourcev
w9i:_BalancingGroup_set_Balance_m3452171919
C7c:_tt_cmap10_char_index
UQd:_Dropdown_Awake_m335654827
u9:__Z18GetITerrainManagerv
dPh:_Dictionary_2_U3CCopyToU3Em__0_m1479035402_gshared
z7d:_BitArray_set_Item_m3801461194
vLd:_StandaloneInputModule_get_cancelButton_m1563746440
rEj:__ZN15dense_hashtableINSt3__24pairIK10KeyWrapperIPK22Il2CppGenericParameterEP11Il2CppClassEES6_N6il2cpp5utils11PointerHashIS4_EEN14dense_hash_mapIS6_S9_SE_NS6_14EqualsComparerINS0_8equal_toIS5_EEEENS0_9allocatorISA_EEE9SelectKeyESJ_SL_E3endEv
vEd:_String_Remove_m3580114465
E4c:_UNITY_FT_Destroy_Class_cff_field_handlers
WWb:__ZN9ShaderLab22SerializedBindChannels8TransferI19StreamedBinaryWriteILb0EEEEvRT_
IWi:_InternalEnumerator_1_MoveNext_m1791963761_AdjustorThunk
jCg:__Z82RuntimeInvoker_Int32_t2071877448_RuntimeObject_Int32_t2071877448_Int16_t4041245914PFvvEPK10MethodInfoPvPS4_
Hoc:__ZN5IMGUI20MoveWindowFromLayoutER8GUIStateiRK5RectTIfE
MPi:_UrlAttribute_get_UrlValue_m3448699483
Ufi:__ZL83GameObject_t1756533147_CustomAttributesCacheGenerator_GameObject_set_tag_m717375123P21CustomAttributesCache
W9g:_Mathf_Max_m1875893177
Cpg:_UIntPtr__ctor_m2737768530
t3c:_UNITY_FT_Stream_ReadUShort
Syh:_Bounds_get_center_m129401026_AdjustorThunk
mXd:_InputField_OnEnable_m3797157569
ngc:__Z51Register_UnityEngine_GUILayer_INTERNAL_CALL_HitTestv
Smc:__Z50Register_UnityEngine_Object_FindSceneObjectsOfTypev
$ma:__ZNSt3__26__treeINS_12__value_typeIN4core12basic_stringIcNS2_20StringStorageDefaultIcEEEES6_EENS_19__map_value_compareIS6_S7_NS_4lessIS6_EELb1EEE13stl_allocatorIS7_L18MemLabelIdentifier1ELi16EEE7destroyEPNS_11__tree_nodeIS7_PvEE
DBj:_Nullable_1__ctor_m796575255_gshared
odk:__ZN6il2cpp2vm8Profiler7GCEventE13Il2CppGCEvent
Ahe:_DateTimeUtils_ToString_m3878360633
H$j:__ZN6il2cpp6icalls8mscorlib6SystemL16ThrowInvalidCastEPK11Il2CppClassS5_
VGa:__Z13IsDepthFormat14GraphicsFormat
NAb:__ZN12AspectRatios8TransferI24GenerateTypeTreeTransferEEvRT_
NLd:_StandaloneInputModule_ForceAutoSelect_m1167170508
nWi:_InternalEnumerator_1_MoveNext_m1636015243_gshared
h0c:__Z12FormatBufferPciPKcz
YLd:_TouchInputModule_Process_m1373751353
Yf:_emscripten_glUniform1fv
X0g:_MethodBuilder_Invoke_m1874904900
PId:_ExecuteEvents_Execute_m898902863
IL:__ZN4FMOD7Channel7setModeEj
_Zg:_DerivedType_InvokeMember_m4149586013
G6h:__ZL88UTF7Encoding_t741406939_CustomAttributesCacheGenerator_UTF7Encoding_GetBytes_m3015176946P21CustomAttributesCache
rth:_AnimatorControllerPlayable_GetNextAnimatorStateInfo_m1690618991
rUf:_TlsStream_SetLength_m1460039587
Ooc:__ZN11IMGUIModule12AddGUIScriptER8ListNodeI13MonoBehaviourE
vb:invoke_difi
SJd:_PointerEventData_set_rawPointerPress_m1484888025
d9:__ZL50StaticRegisterSceneLoadedCallback_LightmapSettingsPv
N6d:_SimpleEnumerator_Clone_m215554974
myg:__Z119RuntimeInvoker_Void_t1841601450_RuntimeObject_RuntimeObject_RuntimeObject_RuntimeObject_Int32_t2071877448_RuntimeObjectPFvvEPK10MethodInfoPvPS4_
j0a:__ZN29MotionVectorRenderLoopScratch15ThreadedCleanupEv
Wm:FUNCTION_TABLE_iiffi
XTd:_GridLayoutGroup_get_cellSize_m1061731753
w4j:__ZN15dense_hashtableINSt3__24pairIK10KeyWrapperINS1_IPKcS4_EEEiEES6_24NamespaceAndNamePairHashN14dense_hash_mapIS6_iS9_NS6_14EqualsComparerI26NamespaceAndNamePairEqualsEENS0_9allocatorIS8_EEE9SelectKeyESD_SF_E12expand_arrayEjN21dense_hash_map_traits17integral_constantIbLb0EEE
qSh:_EqualityComparer_1_System_Collections_IEqualityComparer_Equals_m300683774_gshared
CGa:__ZN21GLESGpuProgramApplier11ApplyVectorERKN20GpuProgramParameters14ValueParameterEPK8Vector4ft
U4a:__Z17PrepareSceneNodesP11CullResults
rjj:_Vector4_ToString_m2340321043_AdjustorThunk
Gra:__ZN6prcoreL27StretchGenericFloatBilinearI18TexFormatRGBAFloatEEvPKNS_9InnerInfoE
zaj:_Parser_IsIgnoreCase_m4155598997
Z2j:__ZN15dense_hashtableINSt3__24pairIK10KeyWrapperIP14Il2CppIUnknownEjEES5_N6il2cpp5utils11PointerHashIS3_EEN14dense_hash_mapIS5_jSB_NS5_14EqualsComparerINS0_8equal_toIS4_EEEENS0_9allocatorIS7_EEE9SelectKeyESG_SI_E12expand_arrayEjN21dense_hash_map_traits17integral_constantIbLb0EEE
R9c:_cff_size_done
vSh:_EqualityComparer_1_System_Collections_IEqualityComparer_Equals_m3376587337_gshared
QWa:__ZN22RenderingCommandBuffer13GetAndCheckRTE24BuiltinRenderTextureTypeRKN9ShaderLab16FastPropertyNameEPKcPP13RenderTexture
wbb:__ZN6Camera34UpdatePreviousViewProjectionMatrixEv
Wla:__ZN9ShaderLab11ShaderState25RemoveUnsupportedProgramsEPK6Shader
JXb:__ZL23AddGpuProgramParametersR20GpuProgramParametersRKNSt3__26vectorIN9ShaderLab20SerializedSubProgram15MatrixParameterENS1_9allocatorIS5_EEEERKNS2_INS4_15VectorParameterENS6_ISB_EEEEiP16PropertyNamesSet
udi:__ZL179U3CCreateWhereIteratorU3Ec__Iterator1D_1_t2523986802_CustomAttributesCacheGenerator_U3CCreateWhereIteratorU3Ec__Iterator1D_1_System_Collections_IEnumerator_get_Current_m1354814095P21CustomAttributesCache
Kmc:__Z44Register_UnityEngine_Object_DestroyImmediatev
QZh:__ZL57CompareOptions_t2829943955_CustomAttributesCacheGeneratorP21CustomAttributesCache
zfc:__Z47Register_UnityEngine_Component_BroadcastMessagev
cs:__ZN18StreamedBinaryReadILb0EE21TransferSTLStyleArrayI13dynamic_arrayI4PPtrI6ObjectELj4EEEEvRT_17TransferMetaFlags
K1h:__ZL62_ConstructorBuilder_t1236878896_CustomAttributesCacheGeneratorP21CustomAttributesCache
Qbc:__Z26scripting_class_has_parent17ScriptingClassPtrS_
eOe:_Int64_System_IConvertible_ToInt16_m2022633688_AdjustorThunk
f8:__ZN13RuntimeStaticI21AssetReferenceStorageLb0EE16StaticInitializeEPv
Nlk:__ZN6il2cpp8metadata25Il2CppGenericClassCompare7CompareEPK18Il2CppGenericClassS4_
oC:__ZNK8Animator20IsInMatchTargetStateEv
Lm:FUNCTION_TABLE_viiifiii
tpc:__Z36Register_UnityEngine_GUI_set_changedv
dPd:_ColorTween_get_startColor_m278546349_AdjustorThunk
Ieg:_Encoding_get_Unicode_m1382741113
qGj:__ZNK10KeyWrapperIPK11Il2CppClassE14EqualsComparerINSt3__28equal_toIS2_EEEclERKS3_SA_
YHc:__Z11EvaluateHDRIL12GradientMode1ELS0_1EEN4math8floatNx4ERK14MinMaxGradientRKNS1_7_float4ES8_
_Je:_NumberFormatInfo_get_PositiveSign_m3396333026
BVg:__Z37RuntimeInvoker_Enumerator_t1147558385PFvvEPK10MethodInfoPvPS4_
S4d:_Char_ToString_m1401375624_AdjustorThunk
qxe:_Array_InternalArray__ICollection_Add_TisTableRange_t2011406615_m147373358_gshared
Ide:_Convert_ToDateTime_m1251728572
sqh:_AnimationMixerPlayable_op_Explicit_m2834005805
