Mc:_glClearStencil
Zxe:_Array_InternalArray__ICollection_Add_TisMark_t2724874473_m1613484179_gshared
Xyi:__ZL80Graphic_t2426225576_CustomAttributesCacheGenerator_Graphic_OnFillVBO_m1723985607P21CustomAttributesCache
jbg:_RuntimeTypeHandle_GetObjectData_m3567098501
bak:__ZN6il2cpp2vm5Array13GetByteLengthEP11Il2CppArray
wGi:_Raycast3DCallback_BeginInvoke_m3028685017
Oug:__Z79RuntimeInvoker_RuntimeObject_Int64_t909078037_Int64_t909078037_Int64_t909078037PFvvEPK10MethodInfoPvPS4_
uTh:_EqualityComparer_1__cctor_m968537130_gshared
Jfj:_TextGenerator_get_lineCount_m4287181941
GAj:_Comparison_1_Invoke_m353639462_gshared
Qog:_UInt64_System_IConvertible_ToDecimal_m4205696037
PSd:_GraphicRegistry_RegisterGraphicForCanvas_m2284226562
uIa:__Z21SourceMipLevelForBlitiiii
kmb:__ZN31CanvasBatchIntermediateRenderer15AddAsRenderNodeER15RenderNodeQueueRK20DeprecatedSourceData
kbe:_Enumerator_get_Key_m2908810861
ash:_AnimatorControllerPlayable_SetBool_m1780824884_AdjustorThunk
OF:__ZN23AnimationOffsetPlayable11SetRotationE11Quaternionf
qs:__ZN11UnityEngine9Animation28GenericAnimationBindingCacheD2Ev
Eqh:_AnimationOffsetPlayable_op_Explicit_m363086289
Jcf:_List_1_System_Collections_IList_IndexOf_m39706221_gshared
rNh:_Dictionary_2_Remove_m1849931834_gshared
Pde:_Decimal_op_Implicit_m2971610317
lQd:_Graphic_UnregisterDirtyVerticesCallback_m1526739224
B8a:__Z18RestoreRenderStateR20CameraRenderOldStateR17ShaderPassContext
R6d:_SynchronizedArrayListWrapper_get_Item_m3309425850
SOb:__Z18Transfer_BlittableI18StreamedBinaryReadILb1EELb1E5RectTIfEEvRK29SerializationCommandArgumentsR31RuntimeSerializationCommandInfo
gLb:__Z18Transfer_BlittableI24GenerateTypeTreeTransferLb0E11ColorRGBA32EvRK29SerializationCommandArgumentsR31RuntimeSerializationCommandInfo
E4:__Z25scripting_class_from_name17ScriptingImagePtrPKcS1_
GYj:__ZN14dense_hash_mapI10KeyWrapperINSt3__24pairIPK12PropertyInfoP11Il2CppClassEEEj17ReflectionMapHashIS8_ENS9_14EqualsComparerINS1_8equal_toIS8_EEEENS1_9allocatorINS2_IKS9_jEEEEE15set_deleted_keyERSH_
aEb:__Z29scripting_class_enum_basetype17ScriptingClassPtr
pGg:__Z111RuntimeInvoker_Void_t1841601450_Vector4_t2243707581_Vector4_t2243707581_Vector4_t2243707581_Vector4_t2243707581PFvvEPK10MethodInfoPvPS4_
UWc:__ZN16PhysicsManager2D7RaycastERK3RayfiR12RaycastHit2D
z0g:_GenericTypeParameterBuilder_GetHashCode_m867619899
Vkg:_TimeSpan_ToString_m2947282901
NSh:_EqualityComparer_1__cctor_m3397254040_gshared
Nea:__ZNK20LocalFileSystemPosix6ParentERK13FileEntryDataRN4core12basic_stringIcNS3_20StringStorageDefaultIcEEEE
Dfj:_TextGenerator_get_verts_m3124035267
iij:_Vector2_get_one_m3174311904
rDe:_Array_Sort_TisVector2_t2243707579_m1307634946_gshared
$xa:__ZN17PersistentManager22CheckInstanceIDsLoadedEPii
oGa:__ZN7ApiGLES17CopyBufferSubDataEjjlll
Knb:__ZNK20ScriptPlayableOutput7GetTypeEv
CBj:_U3CCreateWhereIteratorU3Ec__Iterator1D_1_Reset_m1773515612_gshared
Y$a:__ZN25CameraStackRenderingState20GetOrCreateBuiltinRTE24BuiltinRenderTextureTypeii17DepthBufferFormat19RenderTextureFormatj22RenderTextureReadWrite14VRTextureUsagei
_sj:_AesManaged_CreateEncryptor_m1729287824
C4a:__ZN17PrePassRenderLoop14RenderBasePassEP13RenderTextureRK14LightingLayersR13dynamic_arrayI16RenderObjectDataLj4EERbR10MinMaxAABB
W3d:_Char_System_IConvertible_ToInt16_m2741348777_AdjustorThunk
Rnc:__ZN5IMGUI18RepaintModalWindowER8GUIState
Xzf:_ReadOnlyCollection_1_System_Collections_Generic_IListU3CTU3E_set_Item_m1547026160_gshared
bYh:__ZL61MarshalAsAttribute_t2900773360_CustomAttributesCacheGeneratorP21CustomAttributesCache
qtb:__Z23SetSpriteMeshIndexCountP14SharedMeshDataj
eia:__ZN7Texture13SetFilterModeEi
Qdc:__Z46Register_UnityEngine_Application_get_isPlayingv
Fbk:__ZN6il2cpp8metadata13GenericMethod9GetMethodEPK19Il2CppGenericMethod
Wq:__ZNSt3__26vectorIN4core12basic_stringIcNS1_20StringStorageDefaultIcEEEENS_9allocatorIS5_EEE7reserveEj
ige:_Convert_ToUInt16_m2130758075
OUj:__ZN15dense_hashtableINSt3__24pairIK10KeyWrapperINS1_IPK11Il2CppImageP11Il2CppClassEEEjEES9_17ReflectionMapHashIS8_EN14dense_hash_mapIS9_jSD_NS9_14EqualsComparerINS0_8equal_toIS8_EEEENS0_9allocatorISB_EEE9SelectKeyESI_SK_E3endEv
hIg:__Z132RuntimeInvoker_Void_t1841601450_RuntimeObject_AnimatorStateInfo_t2577870592_Int32_t2071877448_AnimatorControllerPlayable_t1744083903PFvvEPK10MethodInfoPvPS4_
VZf:_X509BasicConstraintsExtension_Encode_m3505127076
fBa:__ZN13GfxDeviceGLES11SetViewportERK5RectTIiE
jVd:_Image_get_pixelsPerUnit_m4104195799
TMi:_Toggle_InternalToggle_m2323729210
$je:_Decimal_System_IConvertible_ToInt64_m2504363272
c$d:_Array_GetValue_m3182152438
be:_emscripten_glDepthRange
jdg:_DESTransform_CipherFunct_m3559419566
Dpg:_UIntPtr_get_Size_m537421489
$ud:_Rijndael_Create_m113171669
P9g:_GUILayoutGroup_CalcWidth_m4107152934
uUb:__Z14resize_trimmedINSt3__26vectorIN9ShaderLab20SerializedSubProgram12UAVParameterENS0_9allocatorIS4_EEEEEvRT_j
c4f:_SerializationInfo_AddValue_m1781549036
iqh:_AnimationLayerMixerPlayable_SetLayerMaskFromAvatarMask_m2582039992_AdjustorThunk
JNf:_TlsServerKeyExchange_verifySignature_m3641534563
fLi:_Slider_FindSelectableOnLeft_m3136767885
UHa:__ZN4crndL20crnd_default_reallocEPvjPjbS0_
Tue:_Array_BinarySearch_TisInt32_t2071877448_m51233948_gshared
upk:__ZNSt3__212basic_stringIcNS_11char_traitsIcEENS_9allocatorIcEEEC2ERKS5_
O6f:_ProviderData_CopyFrom_m431414335
hub:__ZN18SpriteAtlasManager19AddRequestingSpriteE4PPtrI6SpriteE
Ggg:_UTF32Encoding_GetPreamble_m767706727
$kc:__Z33Texture_CUSTOM_Internal_GetHeightP12Il2CppObject
b6b:__Z20IsValidRealtimeLightRK15SharedLightData9LightTypej
AZd:_LayoutGroup_get_preferredHeight_m3901163825
A7a:__ZN23ScriptableRenderContextC2Ev
mdc:__Z22InverseTransformVector23TransformAccessReadOnlyRKN4math7_float3E
zde:_DateTime_AbsoluteDays_m3061694073
_dd:_UNITY_FT_Stream_GetChar
pPb:__Z18Transfer_BlittableI18StreamedBinaryReadILb1EELb1EdEvRK29SerializationCommandArgumentsR31RuntimeSerializationCommandInfo
pHh:_Enumerator_System_Collections_IEnumerator_get_Current_m229223308_gshared
jEb:__Z26BuildSerializationCacheFor17ScriptingClassPtrRb
CKa:__ZN7ApiGLES15BlitFramebufferEN2gl6HandleILNS0_10ObjectTypeE9EEENS0_15FramebufferReadES3_S3_iiiiiiiiNS0_15FramebufferTypeE
VDg:__Z112RuntimeInvoker_RuntimeObject_RuntimeObject_RuntimeObject_RuntimeObject_RuntimeObject_RuntimeObject_RuntimeObjectPFvvEPK10MethodInfoPvPS4_
TDh:_Event_Init_m3901382626
A6d:_FixedSizeArrayListWrapper_AddRange_m2071800418
$D:__ZN13ProduceHelperI8AnimatorLb0EE7ProduceE18MemLabelIdentifier18ObjectCreationMode
cga:__Z9InitInputv
yAg:__Z85RuntimeInvoker_Boolean_t3825574718_Int64_t909078037_Int64_t909078037_SByte_t454417549PFvvEPK10MethodInfoPvPS4_
wbf:_Enumerator_VerifyState_m2358705882_AdjustorThunk
eMb:__Z29Transfer_Blittable_ArrayFieldI24GenerateTypeTreeTransfer11ColorRGBA32EvRT_R9ArrayInfoRK23StaticTransferFieldInfo
vHi:_Selectable_Navigate_m915280351
Peb:__ZN16MemoryFileSystem6DeleteER13FileEntryDatab
Hij:_Vector3_get_normalized_m936072361
Dva:__ZL21BlitScaleStbImageImplRK14ImageReferenceRS_NS_10ColorSpaceE
oUf:_TlsStream_set_Position_m378064217
vIc:__Z9UpdateTplIL27ParticleSystemCurveEvalMode0EEvRK11MinMaxCurveS3_S3_R23ParticleSystemParticlesjjRKN4math8float3x3ERKNS6_7_float4E
wYc:__ZNSt3__26__sortIR31RayHitsByInverseDepthComparitorP12RaycastHit2DEEvT0_S5_T_
BHb:__Z29Transfer_Blittable_ArrayFieldI14SafeBinaryReadyEvRT_R9ArrayInfoRK23StaticTransferFieldInfo
RO:__ZN20SoundChannelInstance15setChannelGroupEPN4FMOD12ChannelGroupE
nFc:__ZN12LightsModule13AwakeFromLoadEP14ParticleSystemRK27ParticleSystemReadOnlyState
mAd:_Evidence_Equals_m2325859915
JXg:_Default__ctor_m172834064
Ac:invoke_vifffii
_Bh:_Component_GetComponents_m637589504
I8i:_Regex_IsMatch_m2159202025
fRa:__ZNK25MultiBlocksMemoryFileData5CloneEv
ihk:_GC_add_ext_descriptor
F3f:_RemotingServices_GetMethodBaseFromName_m3271095947
wrk:dynCall_iiiiiiiiiiii
sFd:_ASCIIEncoding_GetBytes_m3617160053
NMf:_CipherSuiteCollection_System_Collections_IList_RemoveAt_m143866082
ZE:__ZN26AnimatorControllerPlayable26ParameterControlledByCurveEi
KYb:__ZL26KeywordSetToStringDontSortRKNSt3__26vectorIN4core12basic_stringIcNS1_20StringStorageDefaultIcEEEENS_9allocatorIS5_EEEERS5_
ymd:__Z54Register_UnityEngine_Analytics_CustomEventData_AddCharv
Gqa:__ZN6prcoreL17RemapGenericFloatI16TexFormatRGFloat17TexFormatRGBAHalfEEvPKNS_9InnerInfoE
vJ:__ZN12AudioManager22CreateFMODSoundFromWWWEP10IWWWStream15FMOD_SOUND_TYPE17FMOD_SOUND_FORMATjjbbP10SampleClip
K3b:__ZNK32RendererMaterialAnimationBinding15GenerateBindingERKN4core12basic_stringIcNS0_20StringStorageDefaultIcEEEEbRN11UnityEngine9Animation14GenericBindingE
U3:__ZN8Remapper23GetOrGenerateInstanceIDERK26SerializedObjectIdentifier
IUe:_StreamWriter_Flush_m3426120024
bTa:__ZN17FileSystemHandler10AtomicMoveER13FileEntryDataS1_
ab:invoke_iiiiiifffiiifii
lSe:_MemoryStream__ctor_m1489366847
HAd:_SecurityElement_IsValidTag_m64902195
sHh:_Enumerator_System_Collections_IEnumerator_get_Current_m229223308_AdjustorThunk
A6g:_PropertyInfo_SetValue_m2961483868
c9g:_GUILayoutEntry_set_style_m70917293
oif:_List_1_System_Collections_IList_Contains_m4193366963_gshared
Kqj:_UnityEvent_3_FindMethod_Impl_m1889846153_gshared
fYg:_ConstructorInfo_Invoke_m2144827141
Dtb:__ZN6Sprite8TransferI24GenerateTypeTreeTransferEEvRT_
hmc:__Z48Register_UnityEngine_Transform_SetAsFirstSiblingv
o7g:_Font_get_fontSize_m1732593415
Gtb:__ZN7SubMesh8TransferI24GenerateTypeTreeTransferEEvRT_
D5g:_MonoProperty_get_CanWrite_m2124922514
eNj:__ZN6il2cpp6icalls8mscorlib6SystemL16CheckMemberMatchI9FieldInfoNS_5utils10functional6FilterINSt3__212basic_stringIcNS8_11char_traitsIcEENS8_9allocatorIcEEEENS5_13VmStringUtils23CaseInsensitiveComparerEEEEEbPKT_PK11Il2CppClassSN_iRKT0_
wok:_poll
ZRe:_Stream_BeginRead_m1985960185
Rbh:_GUIStyle_GetFontInternalDuringLoadingThread_m229734483
s1b:__ZN13ProduceHelperI14Texture2DArrayLb0EE7ProduceE18MemLabelIdentifier18ObjectCreationMode
bKf:_MD4Managed_GG_m1462438360
fic:__Z46Mesh_CUSTOM_PrintErrorCantAccessMeshForIndicesP12Il2CppObject
jjc:__Z53PlayableHandle_CUSTOM_INTERNAL_CALL_GetPlayableTypeOfR9HPlayable
ddc:__ZN9Transform23SetSiblingIndexInternalEib
H$e:_SimpleCollator_LastIndexOfOrdinal_m45234497
NPe:_BinaryReader_CheckBuffer_m1059275266
tBa:__ZN13GfxDeviceGLES17DestroySubProgramEPN9ShaderLab10SubProgramE
gu:__ZN7mecanim5human12HumanPoseSubERNS0_9HumanPoseERKS1_S4_
PJf:_MD4_Create_m2582504069
G5j:__ZN6il2cpp8metadata15GenericMetadata15GetGenericClassEiPK17Il2CppGenericInst
H1d:_Boolean_System_IConvertible_ToInt16_m977801621
pGb:__Z18Transfer_BlittableI14SafeBinaryReadLb0E10Matrix4x4fEvRK29SerializationCommandArgumentsR31RuntimeSerializationCommandInfo
SUa:__Z24GetFixedBehaviourManagerv
iZa:__ZN12FlareManager9UpdateJobEP25FlareManagerUpdateJobData
JMj:__ZN6il2cpp2vm10ThreadPool4WaitEP17Il2CppAsyncResultPPv
Hmk:_vfprintf
VZa:__ZN20DynamicPropertySheetD0Ev
ocb:__ZN14SafeBinaryRead17RegisterConverterEPKcS1_PFbPvRS_E
o_:__ZN35RegisterRuntimeInitializeAndCleanup8RegisterEPFvPvES2_iS0_
EFf:_ReadOnlyCollection_1_System_Collections_IList_Clear_m2600246370_gshared
Z2e:_DSAManaged_NormalizeArray_m2287089393
D2i:_InternalEnumerator_1_System_Collections_IEnumerator_get_Current_m2389982234_AdjustorThunk
WUa:__ZN8Material26ResetAllCachedMaterialDataEP6Shader
jed:_UNITY_TT_Get_MM_Var
cDj:__ZN6il2cpp6icalls8mscorlib6System7Decimal13decimal2Int64EP19il2cpp_decimal_reprPx
ba:invoke_diddi
pJd:_ExecuteEvents__cctor_m288775360
Ufd:__ZNK2UI6Canvas13GetRenderModeEv
Eee:_Double_TryParseStringConstant_m2585405703
JFb:__Z18Transfer_BlittableI14SafeBinaryReadLb0EiEvRK29SerializationCommandArgumentsR31RuntimeSerializationCommandInfo
xLj:__ZN6il2cpp2vm13MetadataCache30GetPropertyDefinitionFromIndexEi
DNi:_ResourceEnumerator__ctor_m1679839941
kvd:_RijndaelTransform_Clear_m1652144089
BQe:_MonoIO_GetException_m2577367044
wpd:__ZN22BaseUnityConnectClient17InitializeSessionERKN4core12basic_stringIcNS0_20StringStorageDefaultIcEEEES6_N19CloudServiceHandler13InitModeFlagsE
TJh:_Enumerator_MoveNext_m1404007384_gshared
sZe:_NumberFormatter_get_IsZero_m1325357749
Mxk:_emscripten_glDeleteBuffers__wrapper
lKg:__Z121RuntimeInvoker_Void_t1841601450_Single_t2076509932_Single_t2076509932_Single_t2076509932_Single_t2076509932_RuntimeObjectPFvvEPK10MethodInfoPvPS4_
Pne:_Enum_ToObject_m322320225
qbc:__ZN13MonoBehaviour34StopCoroutineFromEnumeratorManagedE18ScriptingObjectPtr
Tyd:_X509Certificate__ctor_m3860837120
zqh:_AnimationOffsetPlayable_CreateHandle_m1204489623
u7g:_GameObject_Internal_CreateGameObject_m3428198595
dOg:__Z109RuntimeInvoker_RuntimeObject_Ray_t2469606224_Single_t2076509932_Int32_t2071877448_RuntimeObject_RuntimeObjectPFvvEPK10MethodInfoPvPS4_
Kzh:_Camera_RaycastTry2D_m755036866
zFf:_ReadOnlyCollection_1_System_Collections_Generic_IListU3CTU3E_set_Item_m3663361643_gshared
mE:__ZN7mecanim9animation14AvatarConstant15InitializeClassEv
ePc:__ZN11UnityEngine9Analytics18SceneLoadTimeEvent12SetSceneLoadERKN4core12basic_stringIcNS2_20StringStorageDefaultIcEEEEiyyyy
LCb:__ZN30RuntimeInitializeOnLoadManager8TransferI18StreamedBinaryReadILb0EEEEvRT_
J_g:_TypeBuilder_not_supported_m3178173643
o6c:_UNITY_tt_face_load_pclt
_bc:__ZL34GetComponentsImplementationRecurseILb1ELi0ELi2EEbR10GameObjectbRK17CompareParametersRK39GetComponentsImplementation_ReturnValue
SUc:__ZN10ClipperLib7Clipper24InsertLocalMinimaIntoAELEx
Jjk:__ZN6il2cpp6icalls8mscorlib6System9Threading5Mutex20CreateMutex_internalEbP12Il2CppStringPb
AEc:__ZN16CustomDataModule8TransferI19StreamedBinaryWriteILb0EEEEvRT_
h6d:_ArrayListWrapper_Remove_m1105489978
jZa:__ZNK6Camera18WorldToScreenPointERK8Vector3fPb
fld:__ZN14UnityAnalyticsD0Ev
$9d:_HashKeys_CopyTo_m3566668422
qAa:__Z18IsCompressedFormat14GraphicsFormat
c4d:_Convert_ToSByte_m2665932200
i3:__ZNSt3__227__insertion_sort_incompleteIRPFbRKN18AwakeFromLoadQueue4ItemES4_EPS2_EEbT0_S9_T_
EZg:_ILGenerator_label_fixup_m1325994348
BJj:__ZN14dense_hash_mapI10KeyWrapperIN6il2cpp5utils13dynamic_arrayIPK10Il2CppTypeLj4EEEEPFvvENS1_8metadata19Il2CppSignatureHashENS8_14EqualsComparerINSB_22Il2CppSignatureCompareEEENSt3__29allocatorINSG_4pairIKS8_SA_EEEEE15set_deleted_keyERSJ_
AFi:_Navigation_Equals_m4214630671_AdjustorThunk
LCf:_ReadOnlyCollection_1_System_Collections_Generic_IListU3CTU3E_set_Item_m257196015_gshared
R2g:_FieldInfo_GetPseudoCustomAttributes_m2500972355
Fqb:__ZN26EnlightenSystemInformation8TransferI14SafeBinaryReadEEvRT_
NEc:__ZN13InitialModule5ResetEv
zFe:_Array_InternalArray__get_Item_TisLink_t2723257478_m2281261655_gshared
lxh:_AudioClipPlayable_INTERNAL_CALL_GetIsPlayingInternal_m4246314919
gxb:__ZN12MeshRendererD0Ev
a9d:_Hashtable__ctor_m2702360557
Lh:_utime
BIf:_PrimalityTest_Invoke_m4058801829
Cn:FUNCTION_TABLE_viiiiif
w7f:_RemotingConfiguration_SetCustomErrorsMode_m1844153208
Hn:FUNCTION_TABLE_viiiiii
rFe:_Array_InternalArray__get_Item_TisChar_t3454481338_m3646615547_gshared
XC:__ZN7mecanim9animation22DestroyAvatarWorkspaceEPNS0_15AvatarWorkspaceERNS_6memory9AllocatorE
Lsk:dynCall_viddi
udj:_ScriptableObject_CreateInstance_m3271154163
i9i:_AnchorInfo_get_IsPosition_m3791659233
Dwe:_Array_InternalArray__IndexOf_TisResourceCacheItem_t333236149_m761772858_gshared
Mnc:__ZNSt3__210__list_impIN10GUIManager12SortedScriptE11memory_poolIS2_EE5clearEv
Inb:__ZN14PlayableOutput17SetSourcePlayableEP8Playable
N7f:_TrackingServices__cctor_m3639412334
pqc:__Z32GUIStyle_Set_Custom_PropRichTextP12Il2CppObjecth
pC:__ZN7mecanim9animation29MotionOutputGetDeltaTransformEPKNS0_12MotionOutputE
i$b:__Z13RegisterClassI16GraphicsSettingsEvv
dPc:__ZN27PerformanceReportingManager21OnSceneTimingCallbackERK15SceneLoadTimingRKN4core12basic_stringIcNS3_20StringStorageDefaultIcEEEE
IE:__ZN8Animator14OnAddComponentEPN5Unity9ComponentE
tof:_List_1_CheckMatch_m1184924052_gshared
Clc:__Z43Transform_CUSTOM_INTERNAL_get_localRotationP12Il2CppObjectP11Quaternionf
Tvk:_glGetShaderInfoLog__wrapper
ni:_emscripten_glGetTexParameteriv
YKf:_RSAManaged_ImportParameters_m3060955884
dQi:_ChannelData_CopyFrom_m4049054607
o$b:__Z13RegisterClassI4MeshEvv
gnb:__ZN8PlayableD0Ev
rU:__Z84Register_UnityEngine_Audio_AudioMixerPlayable_INTERNAL_CALL_SetAutoNormalizeInternalv
MK:__ZN12AudioManager8TransferI19StreamedBinaryWriteILb0EEEEvRT_
ESe:_WriteDelegate_Invoke_m2103848735
fQb:__ZN18StreamedBinaryReadILb1EE21TransferSTLStyleArrayI13dynamic_arrayI11ColorRGBA32Lj4EEEEvRT_17TransferMetaFlags
bCc:__ZN13dynamic_arrayIN9SubModule14SubEmitterDataELj4EE18resize_initializedEjRKS1_12ResizePolicy
orj:_U3CStartU3Ec__Iterator0_Reset_m2580847683_gshared
XQb:__Z18Transfer_BlittableI18StreamedBinaryReadILb0EELb0E8Vector2fEvRK29SerializationCommandArgumentsR31RuntimeSerializationCommandInfo
e7f:_RemotingConfiguration_get_ProcessId_m3870172209
nWc:__ZN16CircleCollider2D10SmartResetEv
FKe:_SortKey_ToString_m2406913228
dfa:__ZN22LocalFileSystemHandler9MakeLocalER13FileEntryDatab
ndk:__ZN6il2cpp2vm8Profiler10AllocationEP12Il2CppObjectP11Il2CppClass
Kde:_Convert_ToDateTime_m1020507389
J3c:__ZNSt3__23mapIN20TextRenderingPrivate7FontRefENS1_6OSFontENS_4lessIS2_EENS_9allocatorINS_4pairIKS2_S3_EEEEEixERS8_
Qca:__Z13FormatOrderedPKcz
zQe:_Path_IsPathRooted_m1347207448
Z8f:_ObjectManager_RegisterObjectInternal_m879109503
Eqe:_Array_get_swapper_TisVector4_t2243707581_m97441823_gshared
bya:__ZNSt3__26__sortIRNS_4lessIiEEPiEEvT0_S5_T_
V0c:__ZN14SafeBinaryRead21TransferSTLStyleArrayI10vector_mapINSt3__24pairIttEEfN20TextRenderingPrivate8FontImpl14KerningCompareENS2_9allocatorINS3_IS4_fEEEEEEEvRT_17TransferMetaFlags
L$b:__Z13RegisterClassI15QualitySettingsEvv
Wbk:__ZN6il2cpp2vm6String21InitializeEmptyStringEP11Il2CppClass
r4a:__ZN25DeferredRenderLoopScratchD0Ev
uw:__ZN27AnimationLayerMixerPlayable14SetInputWeightEif
cu:__ZN7mecanim9animation17EvaluateHumanPoseERKNS0_18ClipMuscleConstantERKNS0_15ClipMuscleInputEPKfRKNS0_12MotionOutputERNS_5human9HumanPoseE
A$c:__ZN14dense_hash_mapINSt3__24pairIPK10Collider2DS4_EE11Collision2DNS2_23ColliderPairHashFunctorENS0_8equal_toIS5_EE13stl_allocatorINS1_IKS5_S6_EEL18MemLabelIdentifier65ELi16EEE15set_deleted_keyERSB_
cUb:__ZN15dense_hashtableINSt3__24pairIKiN4core17string_with_labelILi1EEEEEi18SInt32HashFunctionN14dense_hash_mapIiS5_S7_NS0_8equal_toIiEE13stl_allocatorIS6_L18MemLabelIdentifier1ELi16EEE9SelectKeyESA_SD_E9copy_fromERKSG_j
Fka:__ZN6Camera11ResetAspectEv
zmg:_Type_get_IsGenericType_m3396841573
XZf:_X509BasicConstraintsExtension_get_HasPathLengthConstraint_m3788532759
hmb:__ZNK17InstancedPropInfo22FillInstancePropertiesER19ShaderPropertySheetjPK17BatchInstanceDatajRK15RenderNodeQueue
ema:__ZN22CreateGpuProgramOutputD2Ev
I1h:__ZL58_AssemblyBuilder_t418776366_CustomAttributesCacheGeneratorP21CustomAttributesCache
u2j:__ZN6il2cpp6icalls8mscorlib6System2IO6MonoIO9SetLengthE12Il2CppIntPtrxPi
xS:__ZN13ProduceHelperI13AudioListenerLb0EE7ProduceE18MemLabelIdentifier18ObjectCreationMode
oHe:_DateTimeFormatInfo_GetInstance_m3133223810
VHf:_ModulusRing_BarrettReduction_m2802101099
IRa:__ZN12HandlerChain4OpenER13FileEntryData14FilePermission16FileAutoBehavior
jUj:__ZN15dense_hashtableINSt3__24pairIK10KeyWrapperINS1_IPK10MethodInfoP11Il2CppClassEEEjEES9_17ReflectionMapHashIS8_EN14dense_hash_mapIS9_jSD_NS9_14EqualsComparerINS0_8equal_toIS8_EEEENS0_9allocatorISB_EEE9SelectKeyESI_SK_E6insertERKSB_
mPc:__ZN27PerformanceReportingManager29OnSceneLoadedAfterAwakeStaticEPS_iR18AwakeFromLoadQueueN19RuntimeSceneManager11LoadingModeE
Fsa:__ZN18AssetBundleManager55CollectPreloadObjectsFromAssetBundleLoadAssetOperationsER13dynamic_arrayIiLj4EE
Y5:__ZN14FileCacherReadD2Ev
uxa:__ZN13RendererScene23UpdatePreviousFrameDataEii
Owd:_RSAPKCS1SignatureDeformatter_VerifySignature_m1825067195
syj:__ZL25UnresolvedVirtualCall_123P12Il2CppObjectffPK10MethodInfo
Dfc:__Z50Register_UnityEngine_CullingGroup_FinalizerFailurev
P9e:_KeyValuePair_2_ToString_m2613351884_gshared
nsa:__ZN27UnloadUnusedAssetsOperationD0Ev
ukb:__ZN6Camera15ThreadedCleanupEv
byi:__ZL69ColorBlock_t2652774230_CustomAttributesCacheGenerator_m_DisabledColorP21CustomAttributesCache
CGi:_Scrollbar__ctor_m2244981801
q2j:__ZN6il2cpp6icalls8mscorlib6System2IO6MonoIO9GetLengthE12Il2CppIntPtrPi
qxd:_SHA256Managed_HashCore_m4111458495
aqe:_CultureInfo_get_CompareInfo_m3085280862
PYh:__ZL55Dictionary_2_t2276497324_CustomAttributesCacheGeneratorP21CustomAttributesCache
_9f:_ObjectManager_RecordDelayedFixup_m1895730844
OI:__ZN9AudioClip23VirtualRedirectTransferER18StreamedBinaryReadILb0EE
nOf:_ClientSessionInfo_CheckDisposed_m1394638186
_bg:_SByte_Parse_m2544167007
xCd:_Single_CompareTo_m2081476257
m0e:_BigInteger__ctor_m2945783161
ZPf:_TlsClientHello_Update_m1723542631
KLe:_IndexOutOfRangeException__ctor_m3497760912
Mj:_glCopyTexSubImage2D
Y6f:_RealProxy_InternalGetTransparentProxy_m3415358600
OHc:__ZNK21RotationBySpeedModule6UpdateERK27ParticleSystemReadOnlyStateRK19ParticleSystemStateR23ParticleSystemParticlesRKN4math7_float4Ejj
_da:__ZN18ScreenManagerWebGL13SetShowCursorEb
ldk:__ZN6il2cpp6icalls8mscorlib6System7Convert24InternalFromBase64StringEP12Il2CppStringb
tyd:_SymmetricAlgorithm_CreateDecryptor_m4240570785
pMi:_Text_get_preferredWidth_m3352156860
Eid:__ZN2UI13CanvasManager14GetRenderOrderEPKNS_6CanvasE
nGb:__Z18Transfer_BlittableI14SafeBinaryReadLb0E5RectTIfEEvRK29SerializationCommandArgumentsR31RuntimeSerializationCommandInfo
PDf:_ReadOnlyCollection_1_System_Collections_Generic_IListU3CTU3E_RemoveAt_m878653284_gshared
uHe:_DateTimeFormatInfo_GetFormat_m3676195179
JGa:__ZN14GfxContextGLES14GetFramebufferEv
rpa:__ZN6prcoreL21CreateRemapAnyBlitterE13TextureFormatS0_
T9b:__ZN17AnimationCurveTplIfE16StripInvalidKeysEv
Axe:_Array_InternalArray__ICollection_Add_TisKeyValuePair_2_t3716250094_m2381539361_gshared
x7e:_X509Extension_WriteLine_m2850991173
xhd:__ZNK2UI6Canvas17GetSortingLayerIDEv
QZb:__ZL12HashLen0to16PKcj
uYc:__ZN14Raycast2DQuery8RunQueryEb
G5b:__Z13RegisterClassI17GlobalGameManagerEvv
Y6a:__ZN8Renderer24SetupNewRendererForSceneEv
cse:_Array_InternalArray__ICollection_Remove_TisInt64_t909078037_m2653583130_gshared
Qhg:_Thread_get_ExecutionContext_m922067206
dwc:__Z35Transfer_Blittable_FixedBufferFieldI8JSONReadtEvRK29SerializationCommandArgumentsR31RuntimeSerializationCommandInfo
H6b:__ZN14PlayableOutput6HandleEv
_sb:__ZNK6Sprite22GetTypeVirtualInternalEv
Bn:FUNCTION_TABLE_iiiiiiiiiiiiii
cEg:__Z100RuntimeInvoker_Void_t1841601450_SByte_t454417549_SByte_t454417549_Int32_t2071877448_SByte_t454417549PFvvEPK10MethodInfoPvPS4_
gCj:_Enemy__ctor_m2474411757
e7c:_UNITY_tt_get_cmap_info
yab:__ZN16ReflectionProbes8ScheduleEN18ReflectionProbeJob7JobTypeEP15ReflectionProbei
cxf:_Collection_1_IsFixedSize_m3675221982_gshared
dKc:__Z19CalculateVertexDataI11ColorRGBA32EvRK14StrideIteratorI8Vector3fES5_RKS1_IT_EbPK16MeshTriangleDataRKN4math5_int4ESG_P12SkinMeshInfoRNSD_8floatNx3ESK_RNSD_4pix4E
zcf:_Enumerator_MoveNext_m3293920409_AdjustorThunk
ufa:__Z18IsDirectoryCreatedRKN4core12basic_stringIcNS_20StringStorageDefaultIcEEEE
hSg:__Z68RuntimeInvoker_Void_t1841601450_Int32_t2071877448_Double_t4078015681PFvvEPK10MethodInfoPvPS4_
Dgd:__ZN2UI13CanvasManagerD2Ev
zNc:__ZZN14ParticleSystem15InitializeClassEvEN52PreLateUpdateParticleSystemBeginUpdateAllRegistrator7ForwardEv
fZf:_X509KeyUsageExtension_ToString_m1992050580
o3c:_UNITY_FT_GlyphLoader_Done
v9i:_BalancingGroup__ctor_m2474435406
OPi:_ConstructionCall__ctor_m1143766850
Vdh:_GUIStyleState_Init_m2434147050
c5i:_Comparer_1_System_Collections_IComparer_Compare_m3203078743_gshared
aZc:__ZN19OverlapPointQuery2D14InitializeAABBER6b2AABB
Rjh:_PlayableHandle_IsValid_m1005197654_AdjustorThunk
U7c:_tt_cmap14_char_var_index
r9c:_psh_globals_new
sSe:_FileStream_Seek_m950719389
Wde:_Decimal_stripStyles_m294582157
dvh:_AnimatorControllerPlayable_Play_m614561002
AAa:__ZN9GfxDevice20SetMaxBufferedFramesEi
Uif:_List_1_RemoveAll_m4125997475_gshared
hwg:__Z98RuntimeInvoker_Void_t1841601450_Int32_t2071877448_Int32_t2071877448_RuntimeObject_SByte_t454417549PFvvEPK10MethodInfoPvPS4_
pTc:__ZN10Collider2D19WakeAllBodyContactsEv
Mrk:dynCall_vdd
aid:__ZN2UIL17UnloadAllCanvasesEv
Jdb:__Z23ConvertIntegerToTypePtrIsEbPvR14SafeBinaryRead
R1h:__ZL54_MethodBase_t1935530873_CustomAttributesCacheGeneratorP21CustomAttributesCache
PRc:__ZN12b2MouseJoint11ShiftOriginERK6b2Vec2
Oyg:__Z96RuntimeInvoker_Void_t1841601450_SByte_t454417549_RuntimeObject_SByte_t454417549_SByte_t454417549PFvvEPK10MethodInfoPvPS4_
E6d:_FixedSizeArrayListWrapper_Remove_m1359458911
zpa:__ZN6prcoreL29inner_stretch_rgb565_bilinearEPKNS_9InnerInfoE
Raj:_Uri__ctor_m3927533881
jGc:__Z13UpdateSizeTplIL27ParticleSystemCurveEvalMode3EEvRK11MinMaxCurveR23ParticleSystemParticlesbjj
pkd:__Z33Canvas_Get_Custom_PropWorldCameraP12Il2CppObject
DLi:_Text_get_mainTexture_m813502234
qlk:__ZN6il2cpp8metadata19Il2CppSignatureHash4HashERKNS_5utils13dynamic_arrayIPK10Il2CppTypeLj4EEE
y3a:__ZNK14RenderSettings19GetFlatAmbientColorEv
Hva:__ZN6prcoreL10inner_flipILj4EEEvPhS1_j
kAb:__ZN18StreamedBinaryReadILb0EE21TransferSTLStyleArrayI10vector_mapIPKN5Unity4TypeE7Hash128NSt3__24lessIS6_EENS8_9allocatorINS8_4pairIS6_S7_EEEEEEEvRT_17TransferMetaFlags
sy:__ZNK27StateMachineBehaviourPlayer15IsSenderEnabledEv
woh:_CustomEventData_Add_m1028036439
nsh:_AnimatorControllerPlayable_SetInteger_m881630854
xFh:_Enumerator_VerifyState_m2118679243_gshared
VVd:_InputField_get_shouldHideMobileInput_m3694613599
bmc:__Z40Register_UnityEngine_Transform_SetParentv
XCg:__Z56RuntimeInvoker_TimeSpan_t3430258949_TimeSpan_t3430258949PFvvEPK10MethodInfoPvPS4_
Tub:__ZN14Texture2DArray17UploadToGfxDeviceEv
jDf:_ReadOnlyCollection_1_System_Collections_Generic_IListU3CTU3E_Insert_m4216310986_gshared
tzf:_ReadOnlyCollection_1_System_Collections_Generic_IListU3CTU3E_set_Item_m1532495847_gshared
rM:__Z14FMODMemoryFreePvjPKc
wVd:_Image_AddQuad_m1600600902
Kad:_cf2_glyphpath_moveTo
Jie:_DateTimeOffset__ctor_m1796624924
S9g:_GUILayoutUtility_get_spaceStyle_m1918520192
KHd:_BaseRaycaster_OnDisable_m1716508791
$u:__ZN7mecanim23TransformValueArrayLoopEiiiRKN4math4trsXES3_RNS_10ValueArrayEf
goc:__ZN5IMGUI14GUIWindowStateD2Ev
qhk:_GC_is_heap_ptr
d0j:__GLOBAL__sub_I_Assembly_cpp
DB:__ZN7mecanim5human10RetargetToEPKNS0_5HumanEPKNS0_9HumanPoseES6_RKN4math4trsXEPS4_PNS_8skeleton13SkeletonPoseTIS8_EESF_
Uu:__ZN7mecanim9animation8SeekClipERKNS0_12StreamedClipERNS0_18StreamedClipMemoryEf
qm:_emscripten_glIsTexture
Yfh:_Mathf_Clamp_m3542052159
k6d:_ArrayListWrapper_CopyTo_m793444109
Xk:_emscripten_glHint
Ydd:_ft_var_readpackeddeltas
aie:_DateTime_AddMilliseconds_m1813199744_AdjustorThunk
Gjc:__Z65PlayableOutputHandle_CUSTOM_INTERNAL_CALL_GetPlayableOutputTypeOfR15HPlayableOutput
qyh:_DelegatePInvokeWrapper_PCMReaderCallback_t3007145346
v0f:_X509ChainStatus_t4278378721_marshal_pinvoke
OKf:_RSAManaged__ctor_m1680944437
tm:_SDL_UpperBlit
Zch:_GUIStyle_op_Implicit_m781448948
e4a:__Z35GetTextureDecodeValuesWithIntensity16TextureUsageMode17TextureColorSpace10ColorSpacef
o3d:_Byte_GetHashCode_m2885528842_AdjustorThunk
zYj:__ZN15dense_hashtableINSt3__24pairIK10KeyWrapperINS1_IPK9EventInfoP11Il2CppClassEEEjEES9_17ReflectionMapHashIS8_EN14dense_hash_mapIS9_jSD_NS9_14EqualsComparerINS0_8equal_toIS8_EEEENS0_9allocatorISB_EEE9SelectKeyESI_SK_E15set_deleted_keyERKSB_
zMh:_Dictionary_2_OnDeserialization_m2092139626_gshared
KRc:__ZNK12b2MouseJoint10GetAnchorAEv
c7j:__ZNK6il2cpp2os6Socket12GetLastErrorEv
DDb:__ZN14SafeBinaryRead20OverrideRootTypeNameEPKc
a6:__ZN14FileCacherRead16UnlockCacheBlockEj
B6e:_X509Certificate_GetUnsignedBigInteger_m3491353542
h1c:__ZNSt3__26vectorIN4core12basic_stringIcNS1_20StringStorageDefaultIcEEEE13stl_allocatorIS5_L18MemLabelIdentifier34ELi16EEE6assignINS_11__wrap_iterIPS5_EEEENS_9enable_ifIXaasr21__is_forward_iteratorIT_EE5valuesr16is_constructibleIS5_NS_15iterator_traitsISF_E9referenceEEE5valueEvE4typeESF_SF_
E_c:__ZN13ProduceHelperI16CircleCollider2DLb0EE7ProduceE18MemLabelIdentifier18ObjectCreationMode
Irk:dynCall_iifii
Yc:_emscripten_glUniform1f
mTf:_SslStreamBase_get_MightNeedHandshake_m3432170694
P3c:__Z20ParseImageParametersR11UTF16StringRiRN20TextRenderingPrivate16TextFormatChangeE
bd:_emscripten_glUniform1i
vDb:__ZN13MonoBehaviour9CallAwakeEv
K7:__Z33UnregisterDeviceEventCallbackImplPFv23UnityGfxDeviceEventTypeE
Z9g:__Z14bankers_roundff
EVb:__ZN9ShaderLab16SerializedTagMapaSERKS0_
cW:__ZN11UnityEngine15CloudWebService16SessionContainer20RestoreSessionHeaderERKN4core12basic_stringIcNS2_20StringStorageDefaultIcEEEES8_RNS0_13SessionHeaderE
xie:_DateTime_ToString_m1117481977
r0g:_GenericTypeParameterBuilder_GetGenericArguments_m277381309
LC:__ZN11UnityEngine9Animation27CreateAvatarBindingConstantER9TransformPKN7mecanim9animation14AvatarConstantERNS3_6memory9AllocatorE
iCb:__ZN14SafeBinaryRead21TransferSTLStyleArrayINSt3__26vectorIN30RuntimeInitializeOnLoadManager9ClassInfoE13stl_allocatorIS4_L18MemLabelIdentifier12ELi16EEEEEEvRT_17TransferMetaFlags
mqg:_UnitySerializationHolder_GetObjectData_m2280028722
Oog:_UInt64_System_IConvertible_ToDateTime_m2412118561
Gcc:__ZN9BlobWriteC2ER13dynamic_arrayIhLj16EE24TransferInstructionFlags19BuildTargetPlatform
r4:__ZN14MessageHandler3GetEv
pbh:_GUISkin_set_verticalScrollbarThumb_m2647835739
lHa:__ZN10DynamicVBO9DrawChunkERK21DynamicVBOChunkHandle17ShaderChannelMaskS3_P17VertexDeclarationPKNS_10DrawParamsEi
pd:_emscripten_glAttachShader
aCf:_ReadOnlyCollection_1__ctor_m1539890895_gshared
zAa:__ZN9GfxDevice13SetActiveTierE12GraphicsTier
jbf:_Enumerator_System_Collections_IEnumerator_get_Current_m3079057684_AdjustorThunk
Uyb:__ZNSt3__26vectorIN4core12basic_stringIcNS1_20StringStorageDefaultIcEEEENS_9allocatorIS5_EEE6assignIPS5_EENS_9enable_ifIXaasr21__is_forward_iteratorIT_EE5valuesr16is_constructibleIS5_NS_15iterator_traitsISC_E9referenceEEE5valueEvE4typeESC_SC_
r3e:_KeyPairPersistence_get_UserPath_m3433052783
nVh:__ZL58Decimal_t724701077_CustomAttributesCacheGenerator_MinusOneP21CustomAttributesCache
YFb:__Z18Transfer_BlittableI14SafeBinaryReadLb0E11QuaternionfEvRK29SerializationCommandArgumentsR31RuntimeSerializationCommandInfo
xRb:__Z18Transfer_BlittableI18StreamedBinaryReadILb0EELb1E12PropertyNameEvRK29SerializationCommandArgumentsR31RuntimeSerializationCommandInfo
Z_:_tlsf_walk_heap
$5e:_PKCS12_Decode_m731190390
u$i:_InternalEnumerator_1_get_Current_m1550231132_gshared
iYd:_InputField_ForceLabelUpdate_m1432314039
qb:invoke_vif
rb:invoke_vid
Lpk:__ZNSt3__212basic_stringIcNS_11char_traitsIcEENS_9allocatorIcEEE6insertEjPKc
a6h:__ZL67UnverifiableCodeAttribute_t765455733_CustomAttributesCacheGeneratorP21CustomAttributesCache
tb:invoke_vii
AXi:_InternalEnumerator_1_get_Current_m3444791149_gshared
Wfb:__ZN12TLSAllocatorI14StackAllocatorE16ThreadInitializeEP13BaseAllocator
I5d:_ArrayList_Sort_m2778059513
nUd:_LayoutGroup_SetChildAlongAxis_m2732017156
wjd:__Z41CanvasRenderer_CUSTOM_DisableRectClippingP12Il2CppObject
FJf:_MD2_Create_m539024737
Qek:_GC_allochblk
eFg:__Z112RuntimeInvoker_Void_t1841601450_RuntimeObject_Int32_t2071877448_Int32_t2071877448_RuntimeObject_SByte_t454417549PFvvEPK10MethodInfoPvPS4_
vRa:__ZN25SingleBlockMemoryFileDataD0Ev
Uhb:__ZNSt3__26vectorI14ConstantStringNS_9allocatorIS1_EEE6assignINS_11__wrap_iterIPS1_EEEENS_9enable_ifIXaasr21__is_forward_iteratorIT_EE5valuesr16is_constructibleIS1_NS_15iterator_traitsISA_E9referenceEEE5valueEvE4typeESA_SA_
ZV:__ZN11UnityEngine15CloudWebService16SessionContainer21ConvertFromFolderTimeERKN4core12basic_stringIcNS2_20StringStorageDefaultIcEEEEPjPt
sHb:__ZNSt3__26vectorI8GUIStyle13stl_allocatorIS1_L18MemLabelIdentifier1ELi16EEE7reserveEj
$$j:__ZN6il2cpp6icalls8mscorlib6System9Threading6Thread27GetSerializedCurrentCultureEP12Il2CppThread
Mwe:_Array_InternalArray__IndexOf_TisUInt32_t2149682021_m3231515987_gshared
l1b:__Z31CalculateHierarchyTransformType23TransformAccessReadOnly
E$b:__Z13RegisterClassI11TimeManagerEvv
hM:__ZN4FMOD8ChannelI11setPositionEjj
Fxg:__Z136RuntimeInvoker_IntPtr_t_RuntimeObject_Int32_t2071877448_Int32_t2071877448_Int32_t2071877448_Int32_t2071877448_MonoIOErrorU26_t1029615899PFvvEPK10MethodInfoPvPS4_
jCh:_Component_SendMessage_m913946877
Rba:__ZN17BaseObjectManager13StaticDestroyEPv
_ej:_TextGenerationSettings_CompareVector2_m592645251
kje:_DBNull_System_IConvertible_ToChar_m3344298044
eLg:__Z65RuntimeInvoker_Boolean_t3825574718_RuntimeObject_Int64_t909078037PFvvEPK10MethodInfoPvPS4_
m7e:_X509Certificate_GetObjectData_m3888130484
EBb:__ZNSt3__26vectorIN15ResourceManager10DependencyE13stl_allocatorIS2_L18MemLabelIdentifier51ELi16EEEC2INS_11__wrap_iterIPS2_EEEET_SB_RKS5_PNS_9enable_ifIXaasr21__is_forward_iteratorISB_EE5valuesr16is_constructibleIS2_NS_15iterator_traitsISB_E9referenceEEE5valueEvE4typeE
T5i:_LinkStack_Push_m2660199875
bL:__ZN4FMOD6Reverb13setPropertiesEPK22FMOD_REVERB_PROPERTIES
Tnh:_CustomEventData_AddChar_m1103619816
D_a:__ZN9DepthPass13PrepareSubsetEjRK10RenderNodeifRK17ShaderReplaceData
Leh:_Input_get_compositionString_m636835668
Ikj:_X509CertificateCollection_Add_m4008705157
w8b:__Z35SetMeshComponentFromArrayFromScriptR4Mesh30InternalScriptingShaderChannel34InternalScriptingVertexChannelTypei17ScriptingArrayPtri
Aac:__Z18ExtractTagThrowingR11ICallString
kuf:_Collection_1_IsFixedSize_m1816795498_gshared
Pq:__ZN4core20StringStorageDefaultIcE6assignEPKcj
G6j:__ZN15dense_hashtableINSt3__24pairIK10KeyWrapperIP12Il2CppObjectEN6il2cpp2gc9CachedCCWEEES5_NS7_5utils11PointerHashIS3_EEN14dense_hash_mapIS5_S9_SD_NS5_14EqualsComparerINS0_8equal_toIS4_EEEENS0_9allocatorISA_EEE9SelectKeyESI_SK_E3endEv
lCb:__Z14resize_trimmedINSt3__26vectorIi13stl_allocatorIiL18MemLabelIdentifier12ELi16EEEEEvRT_j
UKd:_MouseButtonEventData_ReleasedThisFrame_m482758300
rZj:__ZN15dense_hashtableINSt3__24pairIK10KeyWrapperINS1_IP11Il2CppClassjEEES4_EES6_N6il2cpp8metadata14ArrayClassHashEN14dense_hash_mapIS6_S4_SB_NS6_14EqualsComparerINSA_17ArrayClassCompareEEENS0_9allocatorIS8_EEE9SelectKeyESF_SH_E9copy_fromERKSK_j
J6d:_ReadOnlyArrayListWrapper_set_Item_m2199017141
m8a:__ZN6Camera6SetFarEf
Dkj:_DeriveBytes_DeriveIV_m3343375195
K4c:_UNITY_FT_Init_Class_ft_bitmap_glyph_class
awd:_RNGCryptoServiceProvider_GetBytes_m167497991
hqa:__ZN6prcoreL12RemapGenericI17TexFormatABGR888817TexFormatARGB8888EEvPKNS_9InnerInfoE
pib:__ZN11GameManager17MainThreadCleanupEv
bld:__Z50Register_UnityEngine_UISystemProfilerApi_EndSamplev
r_g:_TypeBuilder_get_Assembly_m492491492
xFc:__ZN14ParticleSystem10ResetSeedsEv
Lcd:_UNITY_tt_slot_init
CUa:__ZZ23InitPlayerLoopCallbacksvEN41PostLateUpdateUpdateResolutionRegistrator7ForwardEv
_td:_HMACSHA512__cctor_m1167457383
OSb:__Z25scripting_array_class_get17ScriptingClassPtrj
quc:__ZL22Transfer_ManagedObjectI9JSONWriteLb1EEvRK29SerializationCommandArgumentsR31RuntimeSerializationCommandInfo
wI:__ZNK10SampleClip22GetTypeVirtualInternalEv
WBa:__ZN9GfxDevice20DestroyRenderSurfaceER12ObjectHandleI17RenderSurface_TagP17RenderSurfaceBaseE
Gca:__ZN18SpriteAtlasManagerC2Ev
Q1b:__ZL24PrepareSpriteRenderNodesILb1EEvR35RenderNodeQueuePrepareThreadContext
kPa:__ZN9GfxDevice22UpdateComputeResourcesEjPK9TextureIDPK16TextureDimensionPKijPKjjPK15ComputeBufferIDS7_PK20ComputeBufferCounterjSC_S2_S5_S9_SF_
o5b:__ZN12_GLOBAL__N_15qAsinEff
cEe:_Dictionary_2_Do_ICollectionCopyTo_TisKeyValuePair_2_t3749587448_m2536766696_gshared
Xfb:__ZN12TLSAllocatorI14StackAllocatorE13ThreadCleanupEv
yHg:__Z154RuntimeInvoker_RaycastHit2D_t4063908774_Vector2_t2243707579_Vector2_t2243707579_Single_t2076509932_Int32_t2071877448_Single_t2076509932_Single_t2076509932PFvvEPK10MethodInfoPvPS4_
Ove:_Array_IndexOf_TisRuntimeObject_m1815604637_gshared
Wck:__ZThn4_N6il2cpp2vm13ComObjectBase16MarshalInterfaceEP13Il2CppIStreamRK10Il2CppGuidPvjS7_j
Gvb:__ZN4Mesh27SwizzleVertexColorsIfNeededEb
Dgb:__Z27FindActiveTransformWithPathPKc
pAh:_CanvasGroup_get_alpha_m1304564441
G7e:_SecurityParser_OnEndElement_m2909940377
z0a:__ZNK6Camera7GetNearEv
$Ja:__ZN7ApiGLES11UnmapBufferEjN2gl12BufferTargetE
fdk:__ZN6il2cpp5utilsL24Utf32CharToSurrogatePairEjRA2_Ds
vpb:__Z25GetNextAllowedTextureSizeib13TextureFormat
afa:__ZN20LocalFileSystemWebGL4CopyER13FileEntryDataS1_
Njf:_List_1_CheckIndex_m4231572822_gshared
yY:__ZN19CloudServiceHandler6RetainEv
OAd:_StrongName_Equals_m67226644
Ijb:__ZN12BaseRenderer20FlattenToRenderQueueER15RenderNodeQueueRK20DeprecatedSourceData
dWe:_UnmanagedMemoryStream_get_Length_m587008850
Osa:__Z34scripting_liveness_calculation_endPv
K8j:__ZN6il2cpp2os6ThreadC2Ev
DBd:_SecurityFrame_InitFromRuntimeFrame_m45195821
lCj:_EnemyCollision_OnTriggerEnter2D_m3774661107
j$f:_X509Chain_IsSignedWith_m292245392
pu:__ZN21AnimationClipPlayable22ProcessAnimationNoClipEPK35AnimationPlayableEvaluationConstantPK32AnimationPlayableEvaluationInputP33AnimationPlayableEvaluationOutput
Zre:_Array_InternalArray__ICollection_Remove_TisDateTime_t693205669_m1275668216_gshared
Ued:__ZNK19TextRenderingModule8TMGenGetERK11UTF16StringPN13TextRendering4FontE10TextAnchor13TextAlignmentfffbb11ColorRGBA32fii
Nvc:__Z18Transfer_BlittableI8JSONReadLb0E8Vector3fEvRK29SerializationCommandArgumentsR31RuntimeSerializationCommandInfo
hQi:_ChannelServices__cctor_m3534779830
U_j:__ZN6il2cpp2vm6Thread6DetachEP12Il2CppThread
B8c:_Render_Single_Pass
Oee:_Convert_ToInt16_m416789348
mGd:_EncoderExceptionFallback_Equals_m762170768
tuj:_EqualityComparer_1__cctor_m2666196678_gshared
nGh:_Enumerator_get_CurrentValue_m3147984131_AdjustorThunk
C8g:_GUIStyle_Init_m3872198731
RC:__ZN7mecanim8skeleton30SkeletonBuildReverseIndexArrayEPiPKiPKNS0_8SkeletonES6_
enc:__Z19GetGUIBlendMaterialv
GJg:__Z69RuntimeInvoker_Boolean_t3825574718_TextGenerationSettings_t2543476768PFvvEPK10MethodInfoPvPS4_
w9j:__ZN6il2cpp2os10ThreadImpl5SleepEjb
emd:__ZN11UnityEngine9Analytics15UserCustomEvent3AddEPKcb
bVf:_ListDictionary_FindEntry_m432748847
Dxk:_glBindSampler__wrapper
Zoj:_UnityAction_1_Invoke_m3523417209_gshared
Vf:_emscripten_set_mouseup_callback
dej:_SpaceAttribute__ctor_m1444406696
jea:__ZNK18ScreenManagerWebGL8GetWidthEv
Zrk:dynCall_iiifii
WTd:_GridLayoutGroup_set_startAxis_m1635162426
tI:__ZN10SampleClipD2Ev
PSi:_SynchronizationAttribute_EnterContext_m2984912761
mqe:_CultureInfo_construct_internal_locale_from_name_m971766383
pye:_Array_InternalArray__ICollection_Add_TisUIVertex_t1204258818_m3869382594_gshared
iY:__ZN11UnityEngine15CloudWebService20WebRequestRestClientC2Ev
fcd:_cff_cmap_unicode_init
Ene:_Enum_ToObject_m2460371738
j1e:_PrimalityTests_Test_m1088386156
dpc:__Z36Event_CUSTOM_Internal_SetNativeEvent13Il2Cpp_IntPtr
kok:_readlink
bWj:__ZN15dense_hashtableINSt3__24pairIK10KeyWrapperINS1_IPK9EventInfoP11Il2CppClassEEEjEES9_17ReflectionMapHashIS8_EN14dense_hash_mapIS9_jSD_NS9_14EqualsComparerINS0_8equal_toIS8_EEEENS0_9allocatorISB_EEE9SelectKeyESI_SK_E12resize_deltaEjj
CCe:_Array_Resize_TisVector3_t2243707580_m893658391_gshared
LXi:_InternalEnumerator_1_System_Collections_IEnumerator_get_Current_m4259662004_AdjustorThunk
eGe:_Array_InternalArray__get_Item_TisKeyframe_t1449471340_m1003508933_gshared
VGc:__ZN14ParticleSystem38UpdateModulesPostSimulationIncrementalER24ParticleSystemUpdateDataR23ParticleSystemParticlesjRKf
djk:__ZN6il2cpp8metadata14Il2CppTypeHash4HashEPK10Il2CppType
XAg:__Z50RuntimeInvoker_Double_t4078015681_Int64_t909078037PFvvEPK10MethodInfoPvPS4_
V5e:_StrongName_get_PublicKeyToken_m1968460885
Kyb:__ZNK6Sprite9GetBoundsE8Vector2fbb
sWa:__ZNK19RenderEventsContext21CleanupCommandBuffersEv
gFa:__ZN11ContextGLES6CreateEi
JPe:_BinaryReader_Dispose_m4249456877
Tde:_Double_ToString_m1085043609
nSb:__Z19TransferField_ArrayI18StreamedBinaryReadILb0EE27Converter_SimpleNativeClassI17AnimationCurveTplIfEEEvRK23StaticTransferFieldInfoR31RuntimeSerializationCommandInfoRT0_
hMf:_CipherSuite_createEncryptionCipher_m1926075645
Ifb:__ZN14StackAllocator16FrameMaintenanceEb
pTd:_Graphic_Raycast_m3582517890
hib:__Z18ReadStringFromFilePN4core17string_with_labelILi1EEERKNS_12basic_stringIcNS_20StringStorageDefaultIcEEEE
O0:__ZNK10GameObject20QueryComponentByTypeEPKN5Unity4TypeE
ocf:_Enumerator_MoveNext_m1367380970_AdjustorThunk
H1g:_OpCode_GetHashCode_m2974727122
iMf:_CipherSuite_createDecryptionCipher_m1118350455
Y6i:_PatternCompiler_EmitReference_m1381860071
yH:__Z78AnimatorControllerPlayable_CUSTOM_INTERNAL_CALL_IsParameterControlledByCurveIDR9HPlayablei
ume:_Double_System_IConvertible_ToInt16_m4200640326
HHg:__Z84RuntimeInvoker_RuntimeObject_RayU26_t3651946800_Single_t2076509932_Int32_t2071877448PFvvEPK10MethodInfoPvPS4_
Cwa:__ZN11TextureData5ResetEv
Pgc:__Z53Register_UnityEngine_GameObject_get_activeInHierarchyv
k2:__ZL30InitializeCoreScriptingClassesv
axf:_Collection_1_CheckWritable_m3938993573_gshared
Qg:_glBlitFramebuffer
r1e:_BigInteger_GeneratePseudoPrime_m2606361440
RIb:__Z35Transfer_Blittable_SingleValueFieldI14SafeBinaryReadhEvRT_R17GeneralMonoObjectRK23StaticTransferFieldInfo
Aqd:__ZN22BaseUnityConnectClientC2ERN11UnityEngine7Connect20BasePersistentValuesE
E5f:_RemotingServices_GetRealProxy_m620317996
T_a:__ZN13dynamic_arrayI11CulledLightLj4EE6insertEPS0_PKS0_S4_
hob:__ZNK12CubemapArray22GetTypeVirtualInternalEv
dCj:_Predicate_1_Invoke_m2060780095_gshared
oLj:__ZN6il2cpp2vm13MetadataCache23GetInterfaceOffsetIndexEi
ao:FUNCTION_TABLE_vif
bo:FUNCTION_TABLE_vid
eo:FUNCTION_TABLE_vii
ata:__Z40scripting_liveness_calculation_from_root18ScriptingObjectPtrPv
XKc:__ZN13InitialModuleD2Ev
kla:__ZN7Texture23VirtualRedirectTransferER24GenerateTypeTreeTransfer
t2c:_UNITY_FT_Set_Transform
yUi:_ArrayReadOnlyList_1_Contains_m1266627404_gshared
EEg:__Z101RuntimeInvoker_OpFlags_t378191910_SByte_t454417549_SByte_t454417549_SByte_t454417549_SByte_t454417549PFvvEPK10MethodInfoPvPS4_
ixk:_glDeleteFramebuffers__wrapper
OUd:_Image_get_overrideSprite_m706080347
IHf:_BigInteger_ModInverse_m1881894572
wOj:__ZN6il2cpp2vm7Runtime17GetDelegateInvokeEP11Il2CppClass
Qoh:_AnimationEvent__ctor_m3458990599
Jgf:_List_1_AddEnumerable_m3541747636_gshared
Hqb:__ZN28EnlightenRendererInformation8TransferI14SafeBinaryReadEEvRT_
iDg:__Z88RuntimeInvoker_RuntimeObject_RuntimeObject_Int32_t2071877448_RuntimeObject_RuntimeObjectPFvvEPK10MethodInfoPvPS4_
W0h:__ZL69DefaultDependencyAttribute_t3858269114_CustomAttributesCacheGeneratorP21CustomAttributesCache
bQa:__ZNK15Lz4Decompressor16DecompressMemoryEPKvPjPvS2_
X6c:_UNITY_tt_face_build_cmaps
Ilh:_Ray_ToString_m2019179238
l_c:__ZN11Rigidbody2D8TransferI24GenerateTypeTreeTransferEEvRT_
Cbj:_Uri_GetOpaqueWiseSchemeDelimiter_m3686606461
Lje:_Decimal_System_IConvertible_ToType_m3828527724_AdjustorThunk
i6c:_UNITY_tt_face_load_os2
xJf:_HMAC_get_Key_m2528863640
Oxf:_Collection_1_IsSynchronized_m1366278230_gshared
rG:__Z90Register_UnityEngine_Animations_AnimationOffsetPlayable_INTERNAL_CALL_CreateHandleInternalv
sIb:__Z29Transfer_Blittable_ArrayFieldI14SafeBinaryRead8Vector4fEvRT_R9ArrayInfoRK23StaticTransferFieldInfo
sqe:_Array_get_swapper_TisInt32_t2071877448_m2837069166_gshared
fUj:__ZN6il2cpp2gc19AppendOnlyGCHashMapINSt3__24pairIPK10MethodInfoP11Il2CppClassEEP22Il2CppReflectionMethod17ReflectionMapHashIS9_ENS2_8equal_toIS9_EEE3AddERKS9_SB_
cnh:_RectTransform_INTERNAL_get_rect_m1177342209
mKd:_PointerEventData_IsScrolling_m1971908975
tUa:__ZZ23InitPlayerLoopCallbacksvEN51PostLateUpdateUpdateCustomRenderTexturesRegistrator7ForwardEv
Xje:_Decimal_System_IConvertible_ToInt16_m3159038792
Nu:__ZN7mecanim9animation12EvaluateClipEPKNS0_4ClipEPKNS0_9ClipInputEPNS0_10ClipMemoryEPNS0_10ClipOutputE
V4g:_MonoMethodInfo_GetReturnType_m2864247130
J6a:__ZN13RenderManager29SetCurrentCameraAndStackStateEP6CameraP25CameraStackRenderingState
G_j:__ZN15dense_hashtableINSt3__24pairIK10KeyWrapperINS1_IP11Il2CppClassjEEES4_EES6_N6il2cpp8metadata14ArrayClassHashEN14dense_hash_mapIS6_S4_SB_NS6_14EqualsComparerINSA_17ArrayClassCompareEEENS0_9allocatorIS8_EEE9SelectKeyESF_SH_E12resize_deltaEjj
ci:_JS_WebRequest_Release
WQe:_DirectoryNotFoundException__ctor_m2242202556
xW:__ZN11UnityEngine15CloudWebService14DataErrorEventD0Ev
ZEd:_String_CreateString_m2448464375
Q0f:_X509SubjectKeyIdentifierExtension__ctor_m2959112706
oGh:_Enumerator_Reset_m1147555085_AdjustorThunk
K2g:_FieldInfo_get_IsNotSerialized_m2322769148
PEc:__ZN14EmissionModule5ResetEv
xhj:_Vector3_get_zero_m1527993324
Q5j:__ZN6il2cpp8metadata15GenericMetadata7InflateEPK19Il2CppGenericMethodPK20Il2CppGenericContext
BVa:__ZN19ShaderPropertySheet16SetArrayPropertyEN9ShaderLab16FastPropertyNameENS_12PropertyTypeEPKvj
O4g:_MonoGenericCMethod_get_ReflectedType_m2689239043
Pxf:_Collection_1_IsFixedSize_m499196375_gshared
ePd:_ColorTween_set_startColor_m3546206870_AdjustorThunk
sgd:__ZN2UI11CanvasGroup23VirtualRedirectTransferER19StreamedBinaryWriteILb0EE
y_i:_InternalEnumerator_1_get_Current_m4083613828_gshared
ooc:__ZN8GUIState8EndOnGUIEv
ogg:_UnicodeEncoding_GetString_m542738941
f2j:__ZN6il2cpp6icalls8mscorlib6System2IO6MonoIO16get_ConsoleErrorEv
Scd:_UNITY_TT_Get_VMetrics
vQe:_Path_InsecureGetFullPath_m2635272425
Hhe:_DateTime_System_IConvertible_ToUInt32_m1363211018
Wag:_RuntimeMethodHandle__ctor_m1162528746
nYh:__ZL65DebuggerHiddenAttribute_t638884887_CustomAttributesCacheGeneratorP21CustomAttributesCache
tte:_SetPropertyUtility_SetStruct_TisSingle_t2076509932_m3849235084_gshared
HHa:__ZN7Texture21GetMasterTextureLimitEv
q9a:__Z12CanAddScriptR10GameObject17ScriptingClassPtrPS1_S2_
aZj:__ZN6il2cpp2vm10Reflection12HasAttributeEP12Il2CppObjectP11Il2CppClass
Zxc:__ZN8JSONRead21TransferSTLStyleArrayI13dynamic_arrayI4AABBLj4EEEEvRT_18MemLabelIdentifier17TransferMetaFlags
X0:__ZN9ShaderLabL25StaticInitializeShaderLabEPv
U:Math_max
iPj:_il2cpp_class_get_methods
yQe:_Path_CanonicalizePath_m383914732
vFh:_Enumerator_System_Collections_IEnumerator_get_Current_m1631145297_gshared
N5d:_ArrayList_Synchronized_m2395071980
S8j:__ZN6il2cpp2os6Thread16GetCurrentThreadEv
J5b:__ZN10GameObject13ComponentPair15SetComponentPtrEPN5Unity9ComponentE
ZVe:_UnexceptionalStreamWriter_Write_m3206913035
p$b:__Z13RegisterClassI10MeshFilterEvv
iF:__ZNK26AnimatorControllerPlayable24GetAnimatorClipInfoCountEib
njb:__ZN10TagManager8TransferI19StreamedBinaryWriteILb0EEEEvRT_
bFb:__ZN11PreloadData23VirtualRedirectTransferER18StreamedBinaryReadILb0EE
Vz:__Z17dynamic_pptr_castIP10MonoScript6ObjectET_RK4PPtrIT0_E
wth:_AnimatorControllerPlayable_GetAnimatorTransitionInfo_m2080024628_AdjustorThunk
mdg:_DESTransform_ProcessBlock_m2826669227
pMe:_Int16_CompareTo_m3493496879
$jj:_GeneralNames_get_IPAddresses_m1712556836
Zuh:_AnimatorControllerPlayable_Play_m3296663958_AdjustorThunk
Ysb:__ZN6Sprite17MainThreadCleanupEv
xN:__ZN10AudioMixer14UpdateMuteSoloEv
K0j:__ZN6il2cpp2vm9Exception27RaiseNullReferenceExceptionEv
bFi:_MaskableGraphic_UnityEngine_UI_IClippable_get_gameObject_m954171032
Yla:__ZN9ShaderLab10SubProgram7CompileEv
HGa:__ZN7ApiGLES16SetPatchVerticesEi
vTe:_MonoIOStat_t1621921065_marshal_pinvoke
BTa:__ZN10MemoryFileC2E18MemLabelIdentifierP14MemoryFileData14FilePermission
E6f:_TrackingServices_NotifyUnmarshaledObject_m1794048369
pEj:__ZN6il2cpp2vm5Class20FromGenericParameterEPK22Il2CppGenericParameter
XY:__ZN19CloudServiceHandler11FlushEventsEv
rba:__ZN15GlobalCallbacksC2Ev
aBe:_Array_InternalArray__set_Item_TisLabelFixup_t4090909514_m565370771_gshared
yWc:__ZN7b2World10CreateBodyEPK9b2BodyDef
aI:__Z82Register_UnityEngine_Animations_AnimatorControllerPlayable_INTERNAL_CALL_SetBoolIDv
T3c:_UNITY_FT_New_Memory_Face
UG:__Z81AnimatorControllerPlayable_CUSTOM_INTERNAL_CALL_GetAnimatorTransitionInfoInternalR9HPlayablei
M1c:__ZN20TextRenderingPrivate21TextMeshGeneratorImpl5FlushEv
Xza:__ZN26VertexDeclarationCacheGLES24DestroyVertexDeclarationEP17VertexDeclaration
GAd:__Z15CastclassSealedP12Il2CppObjectP11Il2CppClass
L7a:__ZN16ReflectionProbes40UpdateRealtimeReflectionProbesTimeslicedEv
$Bb:__ZNK30RuntimeInitializeOnLoadManager22GetTypeVirtualInternalEv
WIj:__ZN15dense_hashtableINSt3__24pairIK10KeyWrapperIN6il2cpp5utils13dynamic_arrayIPK10Il2CppTypeLj4EEEEPFvvEEESA_NS3_8metadata19Il2CppSignatureHashEN14dense_hash_mapISA_SD_SG_NSA_14EqualsComparerINSF_22Il2CppSignatureCompareEEENS0_9allocatorISE_EEE9SelectKeyESK_SM_E12resize_deltaEjj
n3b:__ZN16ReflectionProbes15InitializeClassEv
tik:__ZN6il2cpp5utils5MatchENSt3__212basic_stringIcNS1_11char_traitsIcEENS1_9allocatorIcEEEEjRKS7_j
p4c:_UNITY_FT_Destroy_Class_psnames_module_class
A6i:_MRUList_Evict_m2430323183
ICf:_ReadOnlyCollection_1_System_Collections_Generic_ICollectionU3CTU3E_Remove_m1060547576_gshared
zLg:__Z68RuntimeInvoker_Boolean_t3825574718_Rect_t3681755626_SByte_t454417549PFvvEPK10MethodInfoPvPS4_
JFe:_Array_InternalArray__get_Item_TisRuntimeObject_m371871810_gshared
$z:__ZN8Animator13BatchedFKPassERK13dynamic_arrayIP14PlayableOutputLj4EE
qRf:_RecordProtocol_ProcessChangeCipherSpec_m3233959862
QBh:_Component_GetComponent_m4225719715
ujc:__Z75Register_UnityEngine_Playables_PlayableHandle_INTERNAL_CALL_SetTimeInternalv
yDe:_Array_Sort_TisVector4_t2243707581_m474199742_gshared
Wgf:_List_1_CheckIndex_m2247532995_gshared
HVe:_TextWriter_Write_m576684782
Qij:_Vector3_Max_m2105825185
$j:_glIsVertexArray
ECb:__ZNSt3__26vectorIN4core12basic_stringIcNS1_20StringStorageDefaultIcEEEE13stl_allocatorIS5_L18MemLabelIdentifier12ELi16EEEC2INS_11__wrap_iterIPS5_EEEET_SE_RKS8_PNS_9enable_ifIXaasr21__is_forward_iteratorISE_EE5valuesr16is_constructibleIS5_NS_15iterator_traitsISE_E9referenceEEE5valueEvE4typeE
KQa:__ZN25SingleBlockMemoryFileDataC2E18MemLabelIdentifierPvjb
fa:invoke_fff
VLi:_Text_get_fontSize_m3105730761
juk:b14
HQf:_TlsServerHello_Update_m1740270635
Dfd:__ZN2UI6Canvas17MainThreadCleanupEv
Rpa:__ZN6prcoreL12RemapGenericI17TexFormatARGB155517TexFormatRGBA8888EEvPKNS_9InnerInfoE
BIi:_ScrollRect_Rebuild_m3423824761
ymf:_List_1_Find_m3862454845_gshared
p6i:_MatchCollection_get_Item_m2609281578
BNa:__ZN7ApiGLES13CreateProgramEv
glb:__ZN11HaloManager7AddHaloEv
ihg:_UTF8Encoding__ctor_m100325490
THa:__ZN4crnd12crn_unpackerD2Ev
yLi:_StencilMaterial_ClearAll_m1372779118
lk:_emscripten_glTexImage2D
e5f:_ObjRefSurrogate_SetObjectData_m1873902916
Dcd:_tt_driver_class_pic_init
a2:__ZN18ScriptingArguments9AddStringEPKc
ugk:_setup_header
Mqk:runPostSets
Nva:__ZL23stbir__resize_arbitraryPvPKviiiS_iiiffffPfiij14stbir_datatype12stbir_filterS4_10stbir_edgeS5_16stbir_colorspace
uFc:__ZN23ParticleSystemParticles13array_reserveEj
qif:_List_1_System_Collections_IList_Insert_m848656350_gshared
bLb:__Z18Transfer_BlittableI24GenerateTypeTreeTransferLb1E8Vector4fEvRK29SerializationCommandArgumentsR31RuntimeSerializationCommandInfo
PMe:_Int16_ToString_m3971652088_AdjustorThunk
wk:_pthread_detach
VLj:__ZN6il2cpp2vm19SocketPollingThread7RunLoopEv
u4f:_MethodDictionary_AllocInternalProperties_m3261295876
n6b:__ZN15DirectorManager20ScheduleGraphDestroyERK14HPlayableGraph
Jya:__ZNSt3__213__stable_sortIRN10vector_mapI17ScriptingClassPtrPKN5Unity4TypeENS_4lessIS2_EENS_9allocatorINS_4pairIS2_S6_EEEEE13value_compareENS_11__wrap_iterIPSB_EEEEvT0_SJ_T_NS_15iterator_traitsISJ_E15difference_typeEPNSM_10value_typeEi
qWb:__ZN9ShaderLab25SerializedTextureProperty8TransferI24GenerateTypeTreeTransferEEvRT_
dHf:_Comparison_1_Invoke_m2645957248_gshared
XBk:_emscripten_glIsShader__wrapper
UWj:__ZN6il2cpp2gc19AppendOnlyGCHashMapINSt3__24pairIPK14Il2CppAssemblyP11Il2CppClassEEP24Il2CppReflectionAssembly17ReflectionMapHashIS9_ENS2_8equal_toIS9_EEEC2Ev
HCj:_Player_LanzarDisparo_m2668376192
kqc:__Z32GUIStyle_Get_Custom_PropFontSizeP12Il2CppObject
dag:_DelegatePInvokeWrapper_CallbackHandler_t362827733
Dwc:__Z18Transfer_BlittableI8JSONReadLb1EyEvRK29SerializationCommandArgumentsR31RuntimeSerializationCommandInfo
Tk:_emscripten_glMatrixMode
Hs:__ZN8Animator23VirtualRedirectTransferER18StreamedBinaryReadILb0EE
NY:__ZN19CloudServiceHandler19StopEventDispatcherEv
KRe:_NotSupportedException__ctor_m836173213
Q4f:_MethodReturnDictionary__ctor_m756139344
TV:__ZN11UnityEngine15CloudWebService14DataDispatcher16PrepareDataBlockERNS0_16SessionContainerE
SNa:__ZN18GfxFramebufferGLES5ClearE13GfxClearFlagsRK10ColorRGBAffib
KOg:__Z70RuntimeInvoker_Void_t1841601450_Playable_t1896841784_Int32_t2071877448PFvvEPK10MethodInfoPvPS4_
CRb:__ZL26Transfer_SimpleNativeClassI18StreamedBinaryReadILb0EE10RectOffsetLb0EEvRK29SerializationCommandArgumentsR31RuntimeSerializationCommandInfo
m4c:_UNITY_ft_destroy_default_module_classes
Xef:_List_1_CheckMatch_m1772343151_gshared
m_a:__ZL12DepthPassJobPN21GfxDeviceAsyncCommand10ArgScratchEPKNS_3ArgE
TUb:__ZNSt3__26vectorIN9ShaderLab20SerializedSubProgram16TextureParameterENS_9allocatorIS3_EEE6assignINS_11__wrap_iterIPS3_EEEENS_9enable_ifIXaasr21__is_forward_iteratorIT_EE5valuesr16is_constructibleIS3_NS_15iterator_traitsISC_E9referenceEEE5valueEvE4typeESC_SC_
hPe:_IntPtr_Equals_m1214967011_AdjustorThunk
qlf:_List_1_Add_m3591975577_gshared
sjd:__Z55Register_UnityEngine_CanvasGroup_get_ignoreParentGroupsv
R$b:__Z13RegisterClassI19LowerResBlitTextureEvv
WBc:__ZN11MinMaxCurve5ResetE23ParticleSystemCurveModef
Xm:FUNCTION_TABLE_iiiiiiiiiiii
tFc:__ZNK14ParticleSystem27CalculateMaxActiveParticlesEv
Kkb:__ZN16GraphicsSettingsD0Ev
czk:_pthread_mutex_init__wrapper
l6a:__ZN15LODGroupManager21CalculateLODDataArrayERK13LODParametersPK6Cameraf
n:cttz_i8
wad:_UNITY_FT_GlyphLoader_Add
XIe:_DateTimeFormatInfo_get_FullDateTimePattern_m2607507656
fRf:_HttpsClientStream_RaiseServerCertificateValidation_m3356770426
yle:_DelegateSerializationHolder__ctor_m3915060553
HCb:__ZN15SerializeTraitsINSt3__26vectorIN30RuntimeInitializeOnLoadManager9ClassInfoE13stl_allocatorIS3_L18MemLabelIdentifier12ELi16EEEEE8TransferI24GenerateTypeTreeTransferEEvRS7_RT_
SDe:_Array_swap_TisUIVertex_t1204258818_TisUIVertex_t1204258818_m1163375424_gshared
Pl:_emscripten_glViewport
Jck:__ZN6il2cpp6icalls8mscorlib6System15MonoCustomAttrs17IsDefinedInternalEP12Il2CppObjectP20Il2CppReflectionType
qvb:__ZN4Mesh21UnswizzleVertexColorsEb
Aie:_DateTime_ToString_m2276663647_AdjustorThunk
Acd:_cff_parse_font_bbox
ms:__GLOBAL__sub_I_runtime_animation2_lump_cpp
vAb:__ZN14PlayerSettings23VirtualRedirectTransferER18StreamedBinaryReadILb0EE
Alk:__ZN6il2cpp2os5Event5ResetEv
I3a:__Z26CombineDepthNormalsTextureRK17RenderLoopContextR13dynamic_arrayI16RenderObjectDataLj4EE
Usj:_AesManaged__ctor_m2322442838
C5j:__ZN6il2cpp8metadata15GenericMetadata17InflateParametersEPK13ParameterInfohPK20Il2CppGenericContextb
sOe:_Int64_System_IConvertible_ToUInt32_m850395426_AdjustorThunk
f$g:_TypeBuilder_GetMethodsByName_m229541072
nyh:_PCMReaderCallback_Invoke_m3610389815
Xtd:_HMACSHA512__ctor_m2390736870
Ly:__ZNK17AnimationPlayable27GetNextCompatibleDescendantEi
b$g:_TypeBuilder_GetInterfaces_m1818658502
Cga:__Z25SetNeedToPerformRenderingb
pDc:__ZN12LightsModule8TransferI17RemapPPtrTransferEEvRT_
h5g:_MonoMethod_GetPseudoCustomAttributes_m466965107
V1a:__ZNSt3__227__insertion_sort_incompleteIR23CompareReflectionProbesP31RuntimeReflectionProbeBlendInfoEEbT0_S5_T_
B_a:__ZN14qsort_internal30FindAndMovePivotToLastPositionIP15RODataDepthPassi17ROSorterDepthPassEEvT_S4_T0_T1_
Mzc:__ZN29InitialModulePropertyBindings13GetFloatValueERK14ParticleSystemi
Hrd:__ZN20UnityWebRequestProtoI19TransportJavaScript16AtomicRefCounter14RedirectHelper14ResponseHelper15DownloadHandler13UploadHandler12HeaderHelper14AsyncOperationE35Task_FinalizeAfterDHCompleteContentEPv
cHh:_Enumerator_System_Collections_IDictionaryEnumerator_get_Value_m3005608231_gshared
sEi:_MaskUtilities_NotifyStencilStateChanged_m1527407683
jxg:__Z94RuntimeInvoker_Void_t1841601450_RuntimeObject_Int32_t2071877448_RuntimeObject_SByte_t454417549PFvvEPK10MethodInfoPvPS4_
x6a:__ZN12CullingGroup10SendEventsEPK17CullingGroupEventj
T2e:_DSAManaged_GenerateKeyPair_m2711647034
hcb:__ZN13sorted_vectorINSt3__24pairIN4core12basic_stringIcNS2_20StringStorageDefaultIcEEEES6_EEN10vector_mapIS6_S6_27compare_tstring_insensitiveIS6_E13stl_allocatorIS7_L18MemLabelIdentifier37ELi16EEE13value_compareESD_E9erase_oneIS6_EEjRKT_
yrb:__ZThn32_NK8Renderer8GetLayerEv
Txe:_Array_InternalArray__ICollection_Add_TisResourceCacheItem_t333236149_m1151081240_gshared
pQ:__ZN17AudioClipPlayable12PrepareFrameERK19DirectorVisitorInfo
R7f:_SoapServices_GetXmlTypeForInteropType_m3821579913
Vzk:_emscripten_glTexParameterfv__wrapper
Fih:_Physics2D_INTERNAL_CALL_Internal_Raycast_m489831109
b6i:_Match__ctor_m2452513644
$Pj:_il2cpp_method_get_param_count
p_b:__ZN10systeminfo19ISOToSystemLanguageERN4core12basic_stringIcNS0_20StringStorageDefaultIcEEEE
NVj:__ZNK15dense_hashtableINSt3__24pairIK10KeyWrapperINS1_IPK12PropertyInfoP11Il2CppClassEEEjEES9_17ReflectionMapHashIS8_EN14dense_hash_mapIS9_jSD_NS9_14EqualsComparerINS0_8equal_toIS8_EEEENS0_9allocatorISB_EEE9SelectKeyESI_SK_E3endEv
vph:_AnimationClipPlayable_op_Explicit_m1819456049
S8c:_ps_dimension_done
IMd:_LayoutRebuilder_MarkLayoutForRebuild_m640589351
tfd:__Z46Register_UnityEngine_TextGenerator_Dispose_cppv
oKd:_PointerEventData_get_pressEventCamera_m724559964
Uzd:_String_IndexOfUnchecked_m3356721554
mqb:__ZN16LightmapSettings8TransferI14SafeBinaryReadEEvRT_
aJa:__ZN17BufferManagerGLES13ReleaseBufferEP14DataBufferGLES
Awc:__Z18Transfer_BlittableI8JSONReadLb1EjEvRK29SerializationCommandArgumentsR31RuntimeSerializationCommandInfo
xkj:_PKCS12_Decrypt_m1557069392
lMi:_VertexHelper_AddUIVertexQuad_m280792808
lYf:_WebHeaderCollection_ToString_m1246460752
xYi:_InternalEnumerator_1_System_Collections_IEnumerator_get_Current_m2842514953_AdjustorThunk
xp:stackSave
m9c:_ps_dimension_end
qic:__Z41Register_UnityEngine_Mesh_Internal_Createv
Xxb:__ZN14SpriteRenderer23VirtualRedirectTransferER24GenerateTypeTreeTransfer
A5j:__ZNK15dense_hashtableI10KeyWrapperIP18Il2CppGenericClassES3_N6il2cpp8metadata22Il2CppGenericClassHashEN14dense_hash_setIS3_S6_NS3_14EqualsComparerINS5_25Il2CppGenericClassCompareEEENSt3__29allocatorIS3_EEE8IdentityESA_SD_E12test_deletedERK30dense_hashtable_const_iteratorIS3_S3_S6_SF_SA_SD_E
TYc:__ZNSt3__27__sort3IRN18Overlap2DQueryBase29ColliderHitsByDepthComparitorEPP10Collider2DEEjT0_S7_S7_T_
rFj:__ZN6il2cpp2vm5Class14GetNestedTypesEP11Il2CppClassPPv
mud:_MACTripleDES_Initialize_m1318099802
jKf:_MD5SHA1_VerifySignature_m507888141
D2d:_Byte_System_IConvertible_ToChar_m4188836679
FIe:_NumberFormatter_InitDecHexDigits_m2036076025
gCh:_Component_SendMessageUpwards_m2041012277
HHh:_Enumerator_get_CurrentKey_m3839846791_AdjustorThunk
nxc:__ZN8JSONRead21TransferSTLStyleArrayI13dynamic_arrayIaLj1EEEEvRT_18MemLabelIdentifier17TransferMetaFlags
t8a:__ZN6Camera9SetAspectEf
Wrd:__ZN19TransportJavaScript9DoRequestERKN4core12basic_stringIcNS0_20StringStorageDefaultIcEEEEm21UnityWebRequestMethodS6_bbP12HeaderHelperP13UploadHandlerP15DownloadHandlerP14ResponseHelperP15UnityWebRequest
wa:invoke_viiffiii
EDc:__ZN8UVModule8TransferI18StreamedBinaryReadILb0EEEEvRT_
xxi:__ZL79TouchInputModule_t2561058385_CustomAttributesCacheGenerator_m_ForceModuleActiveP21CustomAttributesCache
lBk:_emscripten_glBindVertexArray__wrapper
MOh:_Dictionary_2_InitArrays_m435313205_gshared
Lwh:_AttributeHelperEngine_GetDefaultExecutionOrderFor_m451063166
j9a:__ZN9Transform37InitializeTransformHierarchyRecursiveER18TransformHierarchyRii
k1b:__Z34DefaultPrepareDispatchBoundsUpdateR13RendererScene18MemLabelIdentifier
BSd:_Graphic_get_useLegacyMeshGeneration_m1366444625
tzi:__ZL65InputField_t1631627530_CustomAttributesCacheGenerator_m_InputTypeP21CustomAttributesCache
g1e:_ModulusRing_Pow_m1137250399
x_f:_X509Chain_Build_m2341271288
HWa:__ZN17MeshRenderingData4InitEP4MeshS1_iP15SharedGfxBufferS3_
j9d:_Hashtable__cctor_m2952659675
y0f:_X509ChainStatus__ctor_m3628359961_AdjustorThunk
jAd:_Evidence_get_HostEvidenceList_m2095478124
Ulc:__Z57Register_UnityEngine_Transform_INTERNAL_set_localPositionv
oNf:_Context_Clear_m4000337070
$Da:__ZN13GfxDeviceGLES26SetRandomWriteTargetBufferEi15ComputeBufferID
i3f:_IntervalCollection_Normalize_m538796191
gUa:__ZZ23InitPlayerLoopCallbacksvEN49EarlyUpdateResetFrameStatsAfterPresentRegistrator7ForwardEv
Lbe:_Console_SetEncodings_m342145566
wgj:_TrackedReference_op_Equality_m3491334086
sSd:_FontUpdateTracker_UntrackText_m3827316510
VFe:_Array_InternalArray__get_Item_TisSingle_t2076509932_m1495809753_gshared
pBe:_Array_InternalArray__set_Item_TisAnimatorClipInfo_t3905751349_m978873279_gshared
Bac:__ZNK11ICallString6ToUTF8Ev
E9i:_CaptureAssertion_get_Alternate_m2729005740
zek:_GC_number_stack_black_listed
C_a:__ZNSt3__211__sift_downIR17ROSorterDepthPassP15RODataDepthPassEEvT0_S5_T_NS_15iterator_traitsIS5_E15difference_typeES5_
QXg:_Default_SelectMethod_m3081239996
vna:__ZN18UnityPropertySheet11UnityTexEnvC2Ev
sA:__ZN8Animator17ApplyOnAnimatorIKEiRNS_11AnimatorJobE
l6:__ZN12FileAccessor4ReadEyyPvPy
Vla:__ZN13dynamic_arrayI16ShaderKeywordSetLj4EE6insertEPS0_PKS0_S4_
v4f:_MethodDictionary_IsOverridenKey_m3922224650
yae:_SyncHashtable_Contains_m3042906549
gof:_List_1_System_Collections_IList_set_Item_m4016273526_gshared
P0f:_X509KeyUsageExtension_CopyFrom_m931530012
_ph:_AnimationLayerMixerPlayable_IsLayerAdditiveInternal_m3902226808
V7a:__ZN13RenderTexture9SetHeightEi
_t:__ZN7mecanim9animation17ClearMotionOutputEPNS0_18AnimationNodeStateE
gEi:_LayoutUtility_U3CGetMinHeightU3Em__4_m1769295917
LBh:_Color32__ctor_m1932627809_AdjustorThunk
VTf:_SslStreamBase_Read_m1036897444
Kuh:_AnimatorControllerPlayable_INTERNAL_CALL_PlayInFixedTimeInternal_m44271350
gGi:_RectMask2D_PerformClipping_m1232012832
vIh:_Transform_1_Invoke_m4020530914_gshared
y7c:_tt_cmap8_char_index
y2:__Z24scripting_class_get_name17ScriptingClassPtr
v8:__ZN13RuntimeStaticI15GUIEventManagerLb0EE13StaticDestroyEPv
O9g:_GUILayoutGroup_ResetCursor_m3160916532
a9j:__ZN6il2cpp2os6Thread15CurrentThreadIdEv
Xnh:_CustomEventData_AddUInt16_m3349298376
DHb:__Z29Transfer_Blittable_ArrayFieldI14SafeBinaryReadjEvRT_R9ArrayInfoRK23StaticTransferFieldInfo
vWc:__ZN16CircleCollider2D13PrepareShapesER13dynamic_arrayIP7b2ShapeLj4EERK10Matrix4x4f
se:_emscripten_set_keydown_callback
V9d:_Enumerator_get_Value_m3684748062
ojb:__ZN19StreamedBinaryWriteILb0EE21TransferSTLStyleArrayINSt3__26vectorI17SortingLayerEntryNS2_9allocatorIS4_EEEEEEvRT_17TransferMetaFlags
IBc:__ZN18ColorBySpeedModule8TransferI14SafeBinaryReadEEvRT_
t6:__ZN12FileAccessorC2Ev
iab:__ZN9Transform35SetLocalPositionWithoutNotificationERKN4math7_float3E
qIc:__Z15UpdateRandomTplIL27ParticleSystemCurveEvalMode0EEvRK11MinMaxCurveS3_S3_R5RandNR23ParticleSystemParticlesjjRKN4math8float3x3ERKNS8_7_float4E
s7i:_PatternLinkStack_GetCurrent_m2994645935
jkb:__ZN6Camera8TransferI19StreamedBinaryWriteILb0EEEEvRT_
W$:__ZN14StackAllocator10ReallocateEPvji
tOj:__ZN6il2cpp2vm7Runtime12GetConfigDirEv
x4f:_MethodDictionary_set_Item_m3475146889
VKc:__ZN16CustomDataModuleD2Ev
BMi:_Toggle_PlayEffect_m3950629415
Nve:_Array_IndexOf_TisRuntimeObject_m214763038_gshared
vBc:__ZN14VelocityModule8TransferI14SafeBinaryReadEEvRT_
lEb:__Z39WriteQueueForTransferSignatureIntoCacheRK31TransferFunctionScriptingTraitsRK24TransferRequestSignature17ScriptingClassPtrR23CachedSerializationDataRb
$ta:__ZN13RenderManager18UpdateAllRenderersEv
Dtc:__Z35Transfer_Blittable_FixedBufferFieldI9JSONWritexEvRK29SerializationCommandArgumentsR31RuntimeSerializationCommandInfo
Zmd:__ZN22BaseUnityConnectClient30OnEnteringStatePausedOrStoppedEv
kVc:__ZN10ClipperLib7Clipper18SwapPositionsInAELEPNS_5TEdgeES2_
wVj:__ZN15dense_hashtableINSt3__24pairIK10KeyWrapperINS1_IPK12PropertyInfoP11Il2CppClassEEEjEES9_17ReflectionMapHashIS8_EN14dense_hash_mapIS9_jSD_NS9_14EqualsComparerINS0_8equal_toIS8_EEEENS0_9allocatorISB_EEE9SelectKeyESI_SK_E12resize_deltaEjj
lu:__ZN7mecanim5human12HumanPoseAddERNS0_9HumanPoseERKS1_S4_
pvh:_Animator_ResetTrigger_m865269317
Hvf:_Collection_1_IsFixedSize_m218241296_gshared
eab:__Z24MergeTransformComponentsR9TransformS0_b
Xth:_AnimatorControllerPlayable_IsInTransition_m3708059860
Ayh:_DelegatePInvokeWrapper_AudioConfigurationChangeHandler_t3743753033
tTe:_MonoIO_get_PathSeparator_m2635828107
DYe:_MonoType_get_Name_m865859211
Ope:_CultureInfo__cctor_m2290268677
mU:__Z71Register_UnityEngine_Audio_AudioClipPlayable_INTERNAL_CALL_ValidateTypev
c7f:_RemotingConfiguration__cctor_m2129988840
Ytf:_Collection_1_Insert_m44548038_gshared
Lck:__ZN6il2cpp2vm13ComObjectBase19GetRuntimeClassNameEPP15Il2CppHString__
Zj:_emscripten_glVertexAttribPointer
Ylb:__ZNK20IntermediateRenderer12GetSceneMaskEv
esa:__ZN14PreloadManager26UpdatePreloadingSingleStepENS_21UpdatePreloadingFlagsEi
xfh:_Material__ctor_m1440882780
Pxd:_SHA512Managed_Initialize_m891287980
xAd:_SecurityException__ctor_m1484114982
Hmj:_X509Crl_GetHashName_m183504634
q$d:_Array_GetValue_m1507415734
_jc:__Z57Register_UnityEngine_RectTransform_INTERNAL_set_anchorMinv
tHe:_Object_MemberwiseClone_m2655589444
ypa:__ZN6prcoreL25inner_stretch_i8_bilinearEPKNS_9InnerInfoE
Gsa:__ZL30RegisterFilteredObjectCallbackPP12Il2CppObjectiPv
q5g:_MonoMethod_get_IsGenericMethod_m4276550811
UIh:_Transform_1_BeginInvoke_m3826027984_gshared
nW:__ZN11UnityEngine15CloudWebService16SessionContainer24GetSessionHeaderJsonDataERKN4core12basic_stringIcNS2_20StringStorageDefaultIcEEEERNS2_13StringBuilderE
eee:_Decimal_op_Implicit_m2149927308
g8:__ZN13RuntimeStaticI21AssetReferenceStorageLb0EE13StaticDestroyEPv
w8j:__ZN6il2cpp6icalls8mscorlib6System9AppDomain22InternalGetProcessGuidEP12Il2CppString
F_b:__ZN15dense_hashtableINSt3__24pairIKN4core12basic_stringIcNS2_20StringStorageDefaultIcEEEE10vector_setI4PPtrI11SpriteAtlasENS0_4lessISB_EE13stl_allocatorISB_L18MemLabelIdentifier79ELi16EEEEES6_20StringHash32FunctionIS6_EN14dense_hash_mapIS6_SH_SK_NS0_8equal_toIS6_EESE_ISI_LSF_79ELi16EEE9SelectKeyESN_SO_E15insert_noresizeERKSI_
p3e:_KeyPairPersistence_get_UseMachineKeyStore_m560802076
mR:__ZN19AudioPlayableOutput19DeallocateResourcesEv
DFh:_Enumerator_System_Collections_IDictionaryEnumerator_get_Entry_m345330700_AdjustorThunk
exk:_glBindRenderbuffer__wrapper
wLb:__Z18Transfer_BlittableI24GenerateTypeTreeTransferLb1EjEvRK29SerializationCommandArgumentsR31RuntimeSerializationCommandInfo
IJf:_MD2Managed_Padding_m410163267
Rlb:__ZN11ColorRGBA328TransferI14SafeBinaryReadEEvRT_
Myh:_Bounds__ctor_m1202659404_AdjustorThunk
Xf:_emscripten_glClearDepth
L4b:__ZNK8GUILayer22GetTypeVirtualInternalEv
Asb:__ZN14SafeBinaryRead21TransferSTLStyleArrayINSt3__26vectorIN15QualitySettings14QualitySettingENS1_9allocatorIS4_EEEEEEvRT_17TransferMetaFlags
iRe:_File_OpenText_m4058508963
gAb:__ZNSt3__26vectorINS_4pairIPKN5Unity4TypeE7Hash128EENS_9allocatorIS7_EEE8__appendEj
b8f:_WellKnownClientTypeEntry__ctor_m670594074
PZj:__ZN15dense_hashtableINSt3__24pairIK10KeyWrapperIP11Il2CppClassES4_EES5_N6il2cpp8metadata16SZArrayClassHashEN14dense_hash_mapIS5_S4_SA_NS5_14EqualsComparerINS9_19SZArrayClassCompareEEENS0_9allocatorIS7_EEE9SelectKeyESE_SG_EC2ERKSJ_j
whe:_DateTime_System_IConvertible_ToSingle_m3927769066_AdjustorThunk
Mbd:_cff_font_load
nRf:_RecordProtocol_SendRecord_m2977889250
vdc:__Z13IsPathCreatedRKN4core12basic_stringIcNS_20StringStorageDefaultIcEEEE
Tva:__ZL22stbir__encode_scanlineP11stbir__infoiPvPfiii
gzg:__Z136RuntimeInvoker_Void_t1841601450_Byte_t3683104436_RuntimeObject_Int64U26_t763825331_ObjectU26_t597476745_SerializationInfoU26_t4051840202PFvvEPK10MethodInfoPvPS4_
E0c:__ZN20QuadTreeNodeRenderer13StaticDestroyEPv
jX:__ZN11UnityEngine15CloudWebService20WebRequestRestClient5AbortEv
W0b:__ZN9Transform12CleanupClassEv
Dtg:__Z50RuntimeInvoker_Void_t1841601450_Double_t4078015681PFvvEPK10MethodInfoPvPS4_
Mhk:__ZN6il2cpp6icalls8mscorlib6System9Threading16NativeEventCalls19CloseEvent_internalE12Il2CppIntPtr
_z:__ZN11UnityEngine9Animation33SetGenericTransformPropertyValuesERKNS0_30AnimatorGenericBindingConstantERKN7mecanim10ValueArrayEP9Transformb
mNf:_ClientContext_set_ClientHelloProtocol_m2246603449
W3c:_UNITY_FT_Set_Pixel_Sizes
NYd:_U3CMouseDragOutsideRectU3Ec__Iterator1_MoveNext_m2845491958
GVb:__ZNSt3__26vectorIN9ShaderLab19SerializedSubShaderENS_9allocatorIS2_EEE26__swap_out_circular_bufferERNS_14__split_bufferIS2_RS4_EE
pvg:__Z116RuntimeInvoker_RuntimeObject_RuntimeObject_Int32_t2071877448_RuntimeObject_RuntimeObject_RuntimeObject_RuntimeObjectPFvvEPK10MethodInfoPvPS4_
pDj:_AnalyticsTracker_TriggerEvent_m1494303835
zLd:_StandaloneInputModule_IsModuleSupported_m623598506
T_j:__ZN6il2cpp2vmL24thread_cleanup_on_cancelEPv
dcg:_SByte_ToString_m4105923225_AdjustorThunk
Spe:_CultureInfo_ConstructCurrentUICulture_m3363349599
Atb:__ZN13dynamic_arrayI7SubMeshLj4EE18resize_initializedEjRKS0_12ResizePolicy
VBi:__ZL75CanvasScaler_t2574720772_CustomAttributesCacheGenerator_m_FallbackScreenDPIP21CustomAttributesCache
aYe:_MonoType_GetEvent_m4160342003
SFi:_RawImage_set_texture_m2400157626
Hvj:_PrimeHelper_ToPrime_m1606935350_gshared
emb:__Z30ProcessDynamicBatchGeometryJobP25DynamicVBOGeometryJobDataj
__a:__ZNSt3__27__sort4IRNS_6__lessI11CulledLightS2_EEPS2_EEjT0_S6_S6_S6_T_
YQj:__ZN6il2cpp2vm14TypeNameParser26ParseArrayModifierOptionalEv
fxh:_AudioClipPlayable_INTERNAL_CALL_GetLoopedInternal_m3082735156
C_e:_MSCompatUnicodeTable_Level3_m260824928
L3:__Z26scripting_object_get_class18ScriptingObjectPtr
t0b:__ZNK28MonoBehaviourPropertyBinding15GenerateBindingERKN4core12basic_stringIcNS0_20StringStorageDefaultIcEEEEbRN11UnityEngine9Animation14GenericBindingE
rdh:_GUIStyle_CalcMinMaxWidth_m2027503105
JMe:_Int32_FindExponent_m3187554672
B3e:_KeyPairPersistence_Load_m1355205585
LNe:_Int32_ToString_m2960866144_AdjustorThunk
unj:_Predicate_1_Invoke_m3539717340_gshared
_vj:_HashSet_1_Contains_m3626542335_gshared
BCd:_Single_CompareTo_m2081476257_AdjustorThunk
Nak:__ZN6il2cpp6icalls8mscorlib6System11Environment15internalGetHomeEv
vtk:dynCall_iiiiiiffiiiiiiiiiffffiiii
Lgb:__ZNK5Unity9Component7GetNameEv
O9f:__ZN21InterfaceFuncInvoker4IP12Il2CppObjectS1_P28SerializationInfo_t22898743028StreamingContext_t1417235061S1_E6InvokeEjP11Il2CppClassS1_S1_S3_S4_S1_
ksj:_ObjectPool_1_Get_m3724675538_gshared
ySc:__ZNK11b2RopeJoint16GetReactionForceEf
lB:__ZN7mecanim8skeleton26SkeletonPoseComputeGlobalQEPKNS0_8SkeletonEPKNS0_13SkeletonPoseTIN4math4trsXEEEPS7_ii
myc:__ZN8JSONRead21TransferSTLStyleArrayI13dynamic_arrayIfLj4EEEEvRT_18MemLabelIdentifier17TransferMetaFlags
RNc:__ZN14ParticleSystem40OnTrailGeometryJobsScheduledRenderThreadERK8JobFence
Nif:_List_1_GetEnumerator_m2672519407_gshared
wEc:__ZN13TriggerModule8TransferI19StreamedBinaryWriteILb0EEEEvRT_
NA:__ZN9BlobWrite8TransferI22OffsetPtrArrayTransferIiEEEvRT_PKc17TransferMetaFlags
vzg:__Z82RuntimeInvoker_Boolean_t3825574718_SByte_t454417549_RuntimeObject_SByte_t454417549PFvvEPK10MethodInfoPvPS4_
m_e:_ContractionComparer_Compare_m314873025
eek:__ZN6il2cpp6icalls8mscorlib6System7Runtime15InteropServices8GCHandle15GetTargetHandleEP12Il2CppObjectii
w3a:__ZN14qsort_internal18QSortSingleJobDataIP16RenderObjectDatai26RenderDeferredObjectSorterE7SortJobEPS4_
geh:_GUIUtility_EndGUIFromException_m2091524531
bOe:_Int64_System_IConvertible_ToDouble_m638786774
HM:__ZN4FMOD6System7releaseEv
Q5:__Z18PathToAbsolutePathRKN4core12basic_stringIcNS_20StringStorageDefaultIcEEEE
$9e:_Enumerator_MoveNext_m3078170540_AdjustorThunk
Kld:__ZN21UnityAnalyticsManager15ThreadedCleanupEv
Qhk:__ZN6il2cpp6icalls8mscorlib6System10Reflection16MonoPropertyInfo16GetTypeModifiersEPvb
Msj:_Action_Invoke_m3801112262
Ptg:__Z79RuntimeInvoker_Decimal_t724701077_RuntimeObject_Int32_t2071877448_RuntimeObjectPFvvEPK10MethodInfoPvPS4_
FBh:_Color_Lerp_m3323752807
yva:__ZL13BlitImageImplR14ImageReferenceiiRKS_NS_10ColorSpaceENS_8BlitModeEb
hJc:__ZL15AccumulateNoiseILb1ELi1EEN4math8floatNx2ERKNS0_8floatNx3ERKfiS6_S6_
Qqa:__ZN6prcoreL17RemapGenericFloatI18TexFormatRGBAFloat17TexFormatRGBFloatEEvPKNS_9InnerInfoE
dtg:__Z64RuntimeInvoker_RuntimeObject_Int16_t4041245914_Int16_t4041245914PFvvEPK10MethodInfoPvPS4_
pwa:__ZN29SerializeTraitsForStringTypesIN4core12basic_stringIcNS0_20StringStorageDefaultIcEEEEE8TransferI24GenerateTypeTreeTransferEEvRS4_RT_
Xch:_GUIUtility_Internal_GetHotControl_m2510727642
OK:__ZN12AudioManager29ShutdownReinitializeAndReloadEv
hkj:_NetscapeCertTypeExtension_Decode_m2210025005
Eyh:_AudioSource_PlayOneShot_m4118899740
Anh:_RectTransform_GetLocalCorners_m1836626405
k8f:_BaseFixupRecord_DoFixup_m1821597450
sEj:__ZN15dense_hashtableINSt3__24pairIK10KeyWrapperIPK22Il2CppGenericParameterEP11Il2CppClassEES6_N6il2cpp5utils11PointerHashIS4_EEN14dense_hash_mapIS6_S9_SE_NS6_14EqualsComparerINS0_8equal_toIS5_EEEENS0_9allocatorISA_EEE9SelectKeyESJ_SL_E6insertERKSA_
mRe:_FileLoadException__ctor_m1356374414
nGa:__ZN14DataBufferGLES16RecreateWithDataEjPKv
Pcc:__Z29GetGlobalAllowNameConversionsv
Yab:__ZN8Material8SetColorEN9ShaderLab16FastPropertyNameERK10ColorRGBAf
A3g:_Module_GetCustomAttributes_m3581287913
AO:__ZN11AudioSource23VirtualRedirectTransferER18StreamedBinaryReadILb0EE
l8:__ZN21AssetReferenceStorageC2Ev
j1c:__ZNSt3__26vectorIN4core12basic_stringIcNS1_20StringStorageDefaultIcEEEE13stl_allocatorIS5_L18MemLabelIdentifier34ELi16EEEC2INS_11__wrap_iterIPS5_EEEET_SE_RKS8_PNS_9enable_ifIXaasr21__is_forward_iteratorISE_EE5valuesr16is_constructibleIS5_NS_15iterator_traitsISE_E9referenceEEE5valueEvE4typeE
C2:__ZL41AssemblyNameMatchesWithOrWithoutExtensionPKcS0_
FKa:__ZN14GfxContextGLES43AddRenderSurfaceToDeferredFBOInvalidateListEPK17RenderSurfaceGLES
R$j:__ZN6il2cpp6icalls8mscorlib6System9Threading6Thread15Thread_internalEP12Il2CppThreadP14Il2CppDelegate
dla:__ZN11NamedObject23VirtualRedirectTransferER14SafeBinaryRead
M3c:__ZNSt3__26vectorIN20TextRenderingPrivate8FontImpl13CharacterInfoE13stl_allocatorIS3_L18MemLabelIdentifier1ELi16EEE6insertENS_11__wrap_iterIPKS3_EERS9_
osa:__ZN23PreloadManagerOperation6IsDoneEv
COj:__ZN6il2cpp2vm7Runtime15InvokeWithThrowEPK10MethodInfoPvPS5_
g7e:_X509Certificate_get_RawData_m3000055075
w7b:__Z33GetHasChangedDeprecatedSystemMaskv
kXc:__ZN10Effector2D10EndContactEP9b2Contact
nck:__ZN6il2cpp5utils11StringUtils11Utf16ToUtf8ERKNSt3__212basic_stringIDsNS2_11char_traitsIDsEENS2_9allocatorIDsEEEE
OGh:_Enumerator_VerifyState_m1165543189_AdjustorThunk
cie:_DateTime_AddSeconds_m722082155_AdjustorThunk
k7d:_SynchronizedArrayListWrapper_CopyTo_m956887031
bKj:__ZNSt3__213__lower_boundIRN6il2cpp5utils11collections13ArrayValueMapIPK10Il2CppType17Il2CppInteropData26InteropDataToTypeConverterNS1_8metadata14Il2CppTypeLessENSA_26Il2CppTypeEqualityComparerEE22LowerBoundFindComparerEPKS8_S7_EET0_SI_SI_RKT1_T_
Qwa:__ZN21LightProbeProxyVolume18HasHardwareSupportEv
hYc:__ZNK20b2SeparationFunction17FindMinSeparationEPiS0_f
tpa:__ZN6prcoreL31inner_stretch_argb8888_bilinearEPKNS_9InnerInfoE
YOb:__Z18Transfer_BlittableI18StreamedBinaryReadILb1EELb1E8BitFieldEvRK29SerializationCommandArgumentsR31RuntimeSerializationCommandInfo
O5c:_UNITY_FT_Outline_Decompose
yPf:_TlsClientCertificate_get_ClientCertificate_m3062440489
$zd:_StrongNamePublicKeyBlob_ToString_m3721281223
PXi:_InternalEnumerator_1_get_Current_m198513457_AdjustorThunk
_Ya:__Z20scripting_object_new17ScriptingClassPtr
GKe:_TextInfo__ctor_m2782608694
ipf:_Queue_1_System_Collections_ICollection_CopyTo_m772787461_gshared
Emc:__Z58Register_UnityEngine_Object_Internal_CloneSingleWithParentv
PKe:_TextInfo_ToUpper_m299550697
q3a:__ZN18ShadowMapJobHeaderD0Ev
HSd:_Graphic_OnRectTransformDimensionsChange_m1610753363
TDc:__ZN16CustomDataModule8TransferI18StreamedBinaryReadILb0EEEEvRT_
bge:_Convert_ToUInt16_m3265369225
P:Math_exp
HXe:_MonoEnumInfo_get_Cache_m3551569711
Zo:FUNCTION_TABLE_iiifi
k8j:__ZN6il2cpp2os5posix13PosixAutoLockD2Ev
Ire:_Array_InternalArray__ICollection_Contains_TisVector3_t2243707580_m3625701788_gshared
pza:__ZNSt3__26vectorINS_4pairIyP17VertexDeclarationEENS_9allocatorIS4_EEE6insertENS_11__wrap_iterIPKS4_EERS9_
V8a:__ZN13MonoBehaviour9SetScriptERK4PPtrI10MonoScriptE18ScriptingObjectPtr
yre:_Array_InternalArray__ICollection_Contains_TisPlayableBinding_t2498078091_m4267109606_gshared
u5c:_UNITY_FT_Create_Class_sfnt_module_class
wke:_Decimal_IsZero_m3557909184_AdjustorThunk
R4d:_Char_ToString_m1401375624
uud:_MD5CryptoServiceProvider__cctor_m3309191799
zfa:__ZNK10FileSystem16LastErrorMessageEv
Qkh:_ScriptPlayableOutput__ctor_m3107656159
DLg:__Z74RuntimeInvoker_Vector2_t2243707579_Vector2_t2243707579_Vector2_t2243707579PFvvEPK10MethodInfoPvPS4_
Mbf:_Enumerator_System_Collections_IEnumerator_Reset_m3052395060_gshared
RHf:_Kernel_DwordDivMod_m3728402123
WCb:__ZN13MonoBehaviour13AwakeFromLoadE17AwakeFromLoadMode
LJb:__ZL26Transfer_SimpleNativeClassI17RemapPPtrTransfer8GradientLb1EEvRK29SerializationCommandArgumentsR31RuntimeSerializationCommandInfo
K7b:__ZN12CachedWriter9InitWriteER15CacheWriterBase
i6b:__Z21UnsignedInt64ToStringy
bhg:_UTF7Decoder__ctor_m549434986
n2i:_InternalEnumerator_1_get_Current_m1025321669_AdjustorThunk
Iic:__Z36MonoBehaviour_CUSTOM_InvokeRepeatingP12Il2CppObjectP12Il2CppStringff
fmc:__Z66Register_UnityEngine_Transform_INTERNAL_CALL_InverseTransformPointv
Paa:__ZZN15DirectorManager15InitializeClassEvEN41FixedUpdateDirectorFixedUpdateRegistrator7ForwardEv
Qmj:_X509Crl_VerifySignature_m1390212587
A1f:_Group__ctor_m4103922028
mVa:__ZN6Camera26ClearIntermediateRenderersEj
WAk:_glLinkProgram__wrapper
bqa:__ZN6prcoreL12RemapGenericI17TexFormatARGB888815TexFormatBGR888EEvPKNS_9InnerInfoE
Aud:_MD5CryptoServiceProvider_ProcessFinalBlock_m1052610785
YG:__Z79AnimatorControllerPlayable_CUSTOM_INTERNAL_CALL_GetNextAnimatorClipInfoInternalR9HPlayablei
A7d:_BitArray_Set_m2878881714
RHc:__Z20UpdateCustomCurveTplIL27ParticleSystemCurveEvalMode1EEvRK11MinMaxCurveR23ParticleSystemParticlesiijjRKN4math5_int4E
gGc:__ZNK10SizeModule6UpdateER23ParticleSystemParticlesjj
EJi:_Selectable_get_colors_m3501193396
O3j:__ZN6il2cpp6icalls8mscorlib6System13Globalization11CultureInfo35construct_internal_locale_from_nameEP17Il2CppCultureInfoP12Il2CppString
LLb:__ZL22Transfer_ManagedObjectI24GenerateTypeTreeTransferLb1EEvRK29SerializationCommandArgumentsR31RuntimeSerializationCommandInfo
rSi:_ContextAttribute_Equals_m53324298
kAh:_Canvas_ForceUpdateCanvases_m2446828475
fk:_emscripten_set_main_loop_timing
Vqg:_WeakReference_AllocateHandle_m1783929473
iGa:__ZN14DataBufferGLES12RecordRenderEv
OCe:_Array_Sort_TisRuntimeObject_m3674422195_gshared
vab:__ZN14ImageReference10FlipImageYEv
eDc:__ZN21InheritVelocityModule8TransferI17RemapPPtrTransferEEvRT_
Goc:__Z14GetDefaultSkini
nI:__ZN4FMOD3DSP9setBypassEb
AJc:__Z9StartConeILN11ShapeModule14MultiModeValueE1EEvRS0_R23ParticleSystemParticlesRK19ParticleSystemStateRK27ParticleSystemEmissionStateRKN4math8float3x3ERKNSB_8float4x4Ejbj
mfb:__Z19NormalizeWheelInputf
Qre:_Array_InternalArray__ICollection_Remove_TisLink_t865133271_m1984184141_gshared
pyc:__Z29Transfer_Blittable_ArrayFieldI8JSONReadhEvRT_R9ArrayInfoRK23StaticTransferFieldInfo
XZd:_LayoutRebuilder_IsDestroyed_m3442208294
Dac:__ZN11MonoManager25GetImageFromAssemblyIndexEi
pGh:_Enumerator_VerifyState_m1547102902_AdjustorThunk
ilk:__ZN6il2cpp2os20ThreadLocalValueImpl8SetValueEPv
yWa:__ZN22RenderingCommandBuffer20CleanupCommandBufferEv
Lzg:__Z165RuntimeInvoker_Void_t1841601450_UInt32U26_t2197289955_Int32_t2071877448_UInt32U26_t2197289955_Int32_t2071877448_Int32_t2071877448_Int32_t2071877448_Int32_t2071877448PFvvEPK10MethodInfoPvPS4_
Ftc:__Z18Transfer_BlittableI9JSONWriteLb1EtEvRK29SerializationCommandArgumentsR31RuntimeSerializationCommandInfo
nRe:_FileLoadException__ctor_m918124939
yk:___syscall85
nYa:__ZNSt3__26__sortIRPFbP10GUIElementS2_EPS2_EEvT0_S7_T_
yIf:_SequentialSearchPrimeGeneratorBase_GenerateSearchBase_m2930465198
Q4b:__ZN16GraphicsSettings12CleanupClassEv
b9j:__ZN6il2cpp2os6Thread19DetachCurrentThreadEv
NEj:__ZN6il2cpp2vmL21SetupInterfacesLockedEP11Il2CppClassRKNS_2os12FastAutoLockE
oFb:__ZN11MonoManager23VirtualRedirectTransferER24GenerateTypeTreeTransfer
SCc:__ZN24GenerateTypeTreeTransfer8TransferI13dynamic_arrayIN8UVModule10SpriteDataELj4EEEEvRT_PKc17TransferMetaFlags
Xy:__ZN23AnimationPlayableOutput17SetSourcePlayableEP8Playable
a1f:_Capture__ctor_m885749277
tch:_GUIStyle_set_clipOffset_m3871613343
OVd:_SubmitEvent__ctor_m222860306
jW:__ZN11UnityEngine15CloudWebService14DataDispatcher15SetupWebRequestEv
yVe:_TextWriter__cctor_m4047845042
Snd:__ZN11UnityEngine15PlatformWrapper13GetShaderCapsEv
w4a:__ZNSt3__211__sift_downIR26RenderDeferredObjectSorterP16RenderObjectDataEEvT0_S5_T_NS_15iterator_traitsIS5_E15difference_typeES5_
gWd:_InputField_CaretBlink_m3960486606
$3e:_SmallXmlParser_ReadCharacters_m1966365555
tTf:_InternalAsyncResult_get_CompletedWithError_m3993955322
z5b:__ZN21FixedBehaviourManager6UpdateEv
edc:__ZN9Transform9SetParentEPS_NS_15SetParentOptionE
UTd:_GridLayoutGroup_set_startCorner_m1660251450
ODc:__ZN15CollisionModule8TransferI18StreamedBinaryReadILb0EEEEvRT_
x0:__ZN19ShaderPropertySheet8SetFloatEN9ShaderLab16FastPropertyNameEfNS_8SetFlagsE
uzi:__ZL68InputField_t1631627530_CustomAttributesCacheGenerator_m_AsteriskCharP21CustomAttributesCache
Cta:__ZN19RuntimeSceneManager24BeginIntegrateMainThreadEP10UnityScene
chj:_Transform_TransformPoint_m3272254198
W9j:__ZNSt3__2plIcNS_11char_traitsIcEENS_9allocatorIcEEEENS_12basic_stringIT_T0_T1_EERKS9_S6_
pWe:_LocalDataStoreSlot__cctor_m1192669356
lVb:__ZN9ShaderLab20SerializedSubProgramaSERKS0_
drk:_roundf
$Ed:_String_CreateString_m2556700934
mjb:__ZN18StreamedBinaryReadILb0EE21TransferSTLStyleArrayINSt3__26vectorI17SortingLayerEntryNS2_9allocatorIS4_EEEEEEvRT_17TransferMetaFlags
Ps:__ZN8Animator15SetPrepareStageEv
ZKi:_Slider_get_axis_m162140813
OEj:__ZN6il2cpp2vmL24SetupTypeHierarchyLockedEP11Il2CppClassRKNS_2os12FastAutoLockE
tfb:__ZL11TextHandleriPK23EmscriptenKeyboardEventPv
F1a:__Z20CalculateLightMatrixRK15SharedLightDataP10Matrix4x4f
vJi:_ScrollRect_SetLayoutHorizontal_m3486408020
k3c:_destroy_face
YFh:_Enumerator_VerifyState_m1547102902_gshared
jik:__ZN6il2cpp6icalls8mscorlib6System8Security12Cryptography24RNGCryptoServiceProvider13RngInitializeEP11Il2CppArray
wLc:__ZN21RotationBySpeedModuleD0Ev
cXf:_IPAddress__cctor_m3624830012
JO:__ZN20SoundChannelInstance7setMuteEb
eoi:__ZL115AnimatorStateInfo_t2577870592_CustomAttributesCacheGenerator_AnimatorStateInfo_t2577870592____nameHash_PropertyInfoP21CustomAttributesCache
WYf:_AsnEncodedData_EnhancedKeyUsageExtension_m1452131166
XPb:__Z19TransferField_ArrayI18StreamedBinaryReadILb1EE27Converter_SimpleNativeClassI17AnimationCurveTplIfEEEvRK23StaticTransferFieldInfoR31RuntimeSerializationCommandInfoRT0_
A_c:__ZN7b2World18SetContactListenerEP17b2ContactListener
OGa:__ZN18GfxFramebufferGLES22MakeCurrentFramebufferENS_7BuiltinE
g2f:_Interpreter_Close_m1500459069
Ck:_JS_SystemInfo_GetWidth
kwa:__ZN12CachedReader4ReadEPvj
qad:_cf2_blues_init
TXi:_InternalEnumerator_1_System_Collections_IEnumerator_get_Current_m3600601141_gshared
dxd:_SHA1Internal_HashFinal_m3188468925
Xij:_Vector3_op_Inequality_m799191452
HHc:__ZNK14RotationModule6UpdateERK27ParticleSystemReadOnlyStateRK19ParticleSystemStateR23ParticleSystemParticlesRKN4math7_float4Ejj
H2:__ZN19RuntimeSceneManagerD2Ev
cQi:_ChannelData_get_CustomProperties_m1470957369
dEe:_Dictionary_2_Do_ICollectionCopyTo_TisRuntimeObject_m545661084_gshared
zX:__ZN11UnityEngine15CloudWebService25WebRequestDownloadHandler17OnCompleteContentEv
spa:__ZN6prcore17GetIntegerBlitterE13TextureFormatS0_N14ImageReference8BlitModeE
Azh:_Camera_INTERNAL_CALL_ScreenPointToRay_m2752248646
LUj:__ZN6il2cpp2gc19AppendOnlyGCHashMapINSt3__24pairIPK11Il2CppImageP11Il2CppClassEEP22Il2CppReflectionModule17ReflectionMapHashIS9_ENS2_8equal_toIS9_EEE11TryGetValueERKS9_PSB_
lHh:_Enumerator_VerifyState_m3173176371_AdjustorThunk
gWf:_TypeConverterAttribute__cctor_m506796812
Occ:__ZN9BlobWrite14ReduceCopyImplERK14ReduceCopyDataj
O4i:_Comparer_1_System_Collections_IComparer_Compare_m1790257529_gshared
QSc:__ZNK12b2WheelJoint10GetAnchorAEv
Xvk:_glShaderSource__wrapper
gRa:__ZN25MultiBlocksMemoryFileData17AdjustBlocksCountEj
v0j:__ZNSt3__214__split_bufferIN6il2cpp2vm22EmbeddedResourceRecordERNS_9allocatorIS3_EEED2Ev
tNf:_TlsClientHello__ctor_m1699671541
s1c:__ZN13TextRendering4Font8TransferI24GenerateTypeTreeTransferEEvRT_
Sqh:_AnimationOffsetPlayable_GetRotation_m3608800497_AdjustorThunk
QTa:__ZN23ManagedAttributeManager15InitializeClassEv
Afc:__Z27CullingGroup_CUSTOM_DisposeP12Il2CppObject
K$j:__ZN6il2cpp6icalls8mscorlib6SystemL23CheckWideningConversionEjjj
RWa:__ZN13ComputeShader15SetTextureParamEjRKN9ShaderLab16FastPropertyNameE9TextureID16TextureDimension
oKi:_Shadow_set_effectDistance_m1951993364
q9g:_GUILayoutEntry_ApplyStyleSettings_m371609721
UOh:_Dictionary_2_ContainsKey_m416495915_gshared
Im:_glStencilMask
y9j:__ZN6il2cpp2os10ThreadImpl16GetCurrentThreadEv
fOf:_TlsServerHelloDone__ctor_m2125611008
f9d:_Hashtable__ctor_m2337481811
SGh:_Enumerator_System_Collections_IEnumerator_get_Current_m2010873149_gshared
uBi:__ZL74SpriteState_t1353336012_CustomAttributesCacheGenerator_m_HighlightedSpriteP21CustomAttributesCache
L6f:_RealProxy__ctor_m2505535530
Mfk:_GC_push_conditional_with_exclusions
mog:_UInt32_System_IConvertible_ToUInt16_m2798641702_AdjustorThunk
H8f:_BinaryFormatter_get_DefaultSurrogateSelector_m219714691
MB:__ZN12_GLOBAL__N_121ProcessAnimationBeginER35AnimationPlayableEvaluationConstantR32AnimationPlayableEvaluationInputR33AnimationPlayableEvaluationOutput
puh:_AnimatorControllerPlayable_CrossFadeInFixedTime_m3016214003
ewg:__Z136RuntimeInvoker_Void_t1841601450_Int32_t2071877448_RuntimeObject_RuntimeObject_RuntimeObject_RuntimeObject_RuntimeObject_SByte_t454417549PFvvEPK10MethodInfoPvPS4_
V5g:_MonoProperty_GetOptionalCustomModifiers_m3827844355
hok:_strrchr
Ssh:_AnimatorControllerPlayable_IsParameterControlledByCurve_m3990583163_AdjustorThunk
i$e:_SimpleCollator_GetSortKey_m2188419329
mCi:__ZL56LayoutElement_t2808691390_CustomAttributesCacheGeneratorP21CustomAttributesCache
cnb:__ZN14RenderSettings27UpdateIndirectSpecularColorEv
SAb:__ZN14PlayerSettings8TransferI18StreamedBinaryReadILb0EEEEvRT_
wNj:__ZN6il2cpp6icalls8mscorlib6System8MonoType16GetMethodsByNameEP20Il2CppReflectionTypeP12Il2CppStringibS5_
OOi:_GCHandle__ctor_m2952050298
wEi:_Mask_IsRaycastLocationValid_m62488857
uza:__ZNSt3__27__sort3IRNS_4lessIN22BuiltinResourceManager8ResourceEEEPS3_EEjT0_S7_S7_T_
a4i:_DefaultComparer_Compare_m3472472212_gshared
NRe:_MonoIO_GetLength_m2812344043
_8c:_ps_hints_t2mask
mhj:_RequestAtlasCallback_Invoke_m2414509569
Ewb:__ZN10BlendShape8TransferI19StreamedBinaryWriteILb0EEEEvRT_
fhj:_Transform_IsChildOf_m10844547
ePe:__Z21il2cpp_codegen_sizeofP11Il2CppClass
cha:__Z19GetTimeSinceStartupv
JBd:_SecurityFrame_get_Assembly_m2816566490
ped:_TT_Load_Composite_Glyph
Ijj:_NetFxCoreExtensions_CreateDelegate_m2492743074
Fxb:__Z33MultiplyMatrixArrayWithBase4x4REFPK10Matrix4x4fS1_S1_PS_j
R$d:_Array_Sort_m2994254654
Snf:_List_1__ctor_m593058937_gshared
p$a:__ZN29RenderNodeQueuePrepareContextC2Ev
WR:__ZN10SampleClipC2E18MemLabelIdentifier18ObjectCreationMode
lWb:__ZN9ShaderLab20SerializedSubProgram16TextureParameter8TransferI24GenerateTypeTreeTransferEEvRT_
Psk:dynCall_viiiiiiiiiiiii
Njk:__ZN6il2cpp2os11MutexHandle4WaitEj
Pbc:__ZL34GetComponentsImplementationRecurseILb1ELi1ELi1EEbR10GameObjectbRK17CompareParametersRK39GetComponentsImplementation_ReturnValue
Mjk:__ZN6il2cpp2os11MutexHandle4WaitEv
k5d:_ArrayList_set_Capacity_m592558035
lra:__ZN6prcoreL17RemapGenericFloatI15TexFormatRGHalf18TexFormatARGBFloatEEvPKNS_9InnerInfoE
Wga:__Z18SimulateMouseInputi
OVa:__ZN13RenderManager23AddRemoveCamerasDelayedEv
Juc:__ZN9JSONWrite8TransferI13dynamic_arrayIdLj8EEEEvRT_PKc17TransferMetaFlags
jse:_Array_InternalArray__ICollection_Remove_TisILTokenInfo_t149559338_m1523907845_gshared
Pld:__ZN11UnityEngine9Analytics15AnalyticsConfigC2Ev
tCh:_ContactFilter2D_CheckConsistency_m1391185667
tvj:_Enumerator_CheckState_m1761755727_gshared
y9d:_Hashtable_Rehash_m2877670513
U7a:__ZN13RenderTexture8SetWidthEi
eYd:_InputField_Insert_m1593238693
red:_UNITY_FT_GlyphLoader_CheckSubGlyphs
eMj:__ZN6il2cpp2vm21ThreadPoolCompartment20SpawnNewWorkerThreadEv
Oxe:_Array_InternalArray__ICollection_Add_TisCustomAttributeTypedArgument_t1498197914_m3260005285_gshared
z1a:__Z25SetupObjectBakedOcclusionbRK15SharedLightDataRK26SharedLightmapSettingsDataRK15LightmapIndicesR17ShaderPassContext
nae:_SyncHashtable_GetObjectData_m3774367030
uLe:_Guid_GetHashCode_m1401300871
qrc:__Z42Register_UnityEngine_GUIStyle_set_fontSizev
cI:__Z82Register_UnityEngine_Animations_AnimatorControllerPlayable_INTERNAL_CALL_GetBoolIDv
cA:__ZN8Animator9BuildJobsERK13dynamic_arrayIP14PlayableOutputLj4EERS0_INS_11AnimatorJobELj4EEPS7_bb
N$:__ZN9ShaderLab16FastPropertyName4InitEPKc
N$b:__Z13RegisterClassIN2UI13RectTransformEEvv
G_e:_MSCompatUnicodeTable_ToWidthCompat_m2299599532
PDj:__ZN13Il2CppHashMapIPK22Il2CppGenericParameterP11Il2CppClassN6il2cpp5utils11PointerHashIS1_EENSt3__28equal_toIS2_EENS9_9allocatorINS9_4pairIK10KeyWrapperIS2_ES4_EEEEEC2EjRKS8_RKSB_
rZe:_NumberFormatter_get_IsFloatingSource_m2830957202
Fia:__ZN13RenderTexture9SetMipMapEb
vIi:_ScrollRect_set_verticalScrollbarSpacing_m2356851539
Lga:__Z18GetDirectorManagerv
jkh:_PlayableHandle_INTERNAL_CALL_SetTimeInternal_m3873000891
_Ze:_OperatingSystem_GetObjectData_m2276196875
Alc:__Z38Transform_CUSTOM_INTERNAL_get_rotationP12Il2CppObjectP11Quaternionf
GRj:__ZNSt3__26vectorIN6il2cpp2vm17TypeNameParseInfoENS_9allocatorIS3_EEE8allocateEj
AUj:__ZNK15dense_hashtableINSt3__24pairIK10KeyWrapperINS1_IPK10MethodInfoP11Il2CppClassEEEjEES9_17ReflectionMapHashIS8_EN14dense_hash_mapIS9_jSD_NS9_14EqualsComparerINS0_8equal_toIS8_EEEENS0_9allocatorISB_EEE9SelectKeyESI_SK_E5beginEv
$Ia:__ZN7ApiGLES19UploadBufferSubDataEjN2gl12BufferTargetEllPKv
_ca:__ZNSt3__216__rotate_forwardINS_11__wrap_iterIPN4core12basic_stringIcNS2_20StringStorageDefaultIcEEEEEEEET_S9_S9_S9_
gDd:_String_System_IConvertible_ToInt32_m1927223638
Gse:_Array_InternalArray__ICollection_Remove_TisContentType_t1028629049_m3085152315_gshared
$zh:_Canvas_set_sortingOrder_m2922819993
GBh:_Color_get_red_m2410286591
Mxh:_AudioMixerPlayable_Create_m3525453973
oFd:_ASCIIEncoding__ctor_m4127831672
jHb:__Z19TransferField_ArrayI14SafeBinaryRead27Converter_SimpleNativeClassI8GUIStyleEEvRK23StaticTransferFieldInfoR31RuntimeSerializationCommandInfoRT0_
Azg:__Z63RuntimeInvoker_Void_t1841601450_RuntimeObject_Int16_t4041245914PFvvEPK10MethodInfoPvPS4_
afg:_UTF8Encoding__ctor_m3336862259
qik:__ZN6il2cpp5utils10MemoryPoolC2Ej
p$f:_X509Chain_GetAuthorityKeyIdentifier_m2607407678
mik:__ZN6il2cpp5utils10MemoryPoolC2Ev
Hmb:__ZN14RenderSettings5ResetEv
C_b:__ZN6Sprite9BindAtlasERK4PPtrI11SpriteAtlasE
R0j:__ZNSt3__212basic_stringIDsNS_11char_traitsIDsEENS_9allocatorIDsEEE6appendEPKDsj
gE:__ZZN8Animator15InitializeClassEvEN37FunctorImpl_421kDidModifyOverrideClip4CallEPviR11MessageData
Z0i:_InternalEnumerator_1_get_Current_m3724267862_AdjustorThunk
wEe:_Dictionary_2_Do_ICollectionCopyTo_TisKeyValuePair_2_t3716250094_m1740410536_gshared
l8g:_GUI_CallWindowDelegate_m2039577415
f5e:_RSAManaged_Dispose_m3018788098
oNc:__ZN14ParticleSystem18MarkAllSubEmittersEPS_
qsc:__ZN8Gradient8TransferI9JSONWriteEEvRT_
Tfb:__ZNK12TLSAllocatorI14StackAllocatorE22GetAllocatedMemorySizeEv
Q$h:__ZL54AssemblyName_t894705941_CustomAttributesCacheGeneratorP21CustomAttributesCache
oge:_Convert_ToUInt32_m3394039268
X9a:__ZN17RemapPPtrTransfer12PushMetaFlagE17TransferMetaFlags
XRa:__ZN12HandlerChain4NameEv
szb:__ZNSt3__26vectorI9InputAxisNS_9allocatorIS1_EEE10deallocateEv
sMe:_Int16_Equals_m3925135434_AdjustorThunk
dkd:__Z44Register_UnityEngine_CanvasRenderer_get_cullv
zZh:__ZL60IHashCodeProvider_t1980576455_CustomAttributesCacheGeneratorP21CustomAttributesCache
i0b:__ZN13ProduceHelperI13MonoBehaviourLb0EE7ProduceE18MemLabelIdentifier18ObjectCreationMode
abf:_Enumerator_VerifyState_m1677639504_AdjustorThunk
DMf:_CipherSuiteCollection_get_Item_m280627160
HFb:__Z44InitializeTransferFunctionScriptingTraitsForI17RemapPPtrTransferEvR31TransferFunctionScriptingTraits
U3f:_SerializationInfoEnumerator_MoveNext_m1876990879
Fkg:_TimeSpan_Duration_m4205681645
pbb:__ZN14UnityWebStream24UpdateAllUnityWebStreamsEv
$Xh:__ZL60ObsoleteAttribute_t3878847927_CustomAttributesCacheGeneratorP21CustomAttributesCache
NGc:__Z19UpdateProceduralTplIL27ParticleSystemCurveEvalMode4EEvRK20DualMinMaxPolyCurvesR23ParticleSystemParticlesPfRKN4math7_float4E
oze:_Array_InternalArray__ICollection_CopyTo_TisRaycastHit2D_t4063908774_m3837098618_gshared
Ata:__ZN18LoadSceneOperation21MustCompleteNextFrameEv
KO:__ZNK12AudioManager16GetAudioListenerEv
yId:_EventTrigger_OnScroll_m626934407
mei:__ZL48Camera_t189460977_CustomAttributesCacheGeneratorP21CustomAttributesCache
s7a:__ZNSt3__26vectorI11CameraStackNS_9allocatorIS1_EEE8__appendEj
nTc:__ZNK11Rigidbody2D20GetAttachedCollidersER13dynamic_arrayIP10Collider2DLj4EE
nXd:_InputField_OnDisable_m1865339380
jog:_UInt32_System_IConvertible_ToType_m747769316
eu:__ZN7mecanim9animation12GetHumanPoseERKNS0_18ClipMuscleConstantEPKNS0_10ValueDeltaERNS_5human9HumanPoseE
zld:__ZN11UnityEngine9Analytics15UserCustomEvent12CustomParams6InsertEPKcRNS1_11CustomValueE
FFe:_Array_InternalArray__get_Item_TisInt16_t4041245914_m2533263979_gshared
Lv:__ZN22AnimationMixerPlayable17ProcessRootMotionEP35AnimationPlayableEvaluationConstantP32AnimationPlayableEvaluationInputP33AnimationPlayableEvaluationOutput
W5:__Z13GetFileSystemv
l7:__ZNK5Unity4Type21FindAllDerivedClassesER13dynamic_arrayIPKS0_Lj4EENS0_17TypeFilterOptionsE
u8:__ZN13RuntimeStaticI15GUIEventManagerLb0EE16StaticInitializeEPv
syb:__ZN14SafeBinaryRead8TransferIfEEvRT_PKc17TransferMetaFlags
oJe:_DaylightTime_get_Delta_m2316831491
GYc:__ZNSt3__27__sort5IR24RayHitsByDepthComparitorP12RaycastHit2DEEjT0_S5_S5_S5_S5_T_
Ere:_Array_InternalArray__ICollection_Contains_TisUILineInfo_t3621277874_m1175659630_gshared
Vjg:_WaitHandle_WaitOne_m370363697
v1f:_FactoryCache_Lookup_m1681894361
wie:_DateTime_Subtract_m698282245_AdjustorThunk
ayb:__ZThn32_N14SpriteRenderer15AddAsRenderNodeER15RenderNodeQueueRK20DeprecatedSourceData
iQb:__Z29Transfer_Blittable_ArrayFieldI18StreamedBinaryReadILb1EE5RectTIfEEvRT_R9ArrayInfoRK23StaticTransferFieldInfo
dXa:__ZN19ShaderPropertySheet9SetMatrixEN9ShaderLab16FastPropertyNameERK10Matrix4x4fNS_8SetFlagsE
yvd:_RIPEMD160Managed_Initialize_m3365407578
p8b:__Z29GetTextureSizeAllowedMultiple13TextureFormat
bXf:_IPAddress_HostToNetworkOrder_m1092199707
Ite:_SetPropertyUtility_SetStruct_TisSpriteState_t1353336012_m2898060836_gshared
ifh:_Logger__ctor_m3834134587
Nzd:_SecurityAttribute__ctor_m3425755778
_5b:__ZN21IntermediateRenderers3AddEP20IntermediateRenderer
YOj:_il2cpp_array_element_size
CEh:_InvokableCall__ctor_m738302370
ig:_glCheckFramebufferStatus
Zue:_Array_compare_TisInt32_t2071877448_m840310202_gshared
z3i:_InternalEnumerator_1_System_Collections_IEnumerator_get_Current_m442726479_AdjustorThunk
JY:__ZN19CloudServiceHandler20StartEventDispatcherERKN11UnityEngine15CloudWebService18CloudServiceConfigERNS1_23WebRequestRestHeaderMapE
H1i:_InternalEnumerator_1_System_Collections_IEnumerator_get_Current_m790514740_AdjustorThunk
u_e:__Z37il2cpp_codegen_get_executing_assemblyPK10MethodInfo
alj:_PKCS12_get_Keys_m1312614820
Odh:_GUIStyle_Internal_DrawPrefixLabel_m1693575069
dwe:_Array_InternalArray__IndexOf_TisByte_t3683104436_m3605266236_gshared
Ldh:_GUIStyle_set_richText_m1853532836
zGi:_RaycastAllCallback_Invoke_m981876639
Oeg:_UnicodeEncoding__ctor_m72484327
P2j:__ZN14dense_hash_mapI10KeyWrapperIP14Il2CppIUnknownEjN6il2cpp5utils11PointerHashIS1_EENS3_14EqualsComparerINSt3__28equal_toIS2_EEEENS9_9allocatorINS9_4pairIKS3_jEEEEE15set_deleted_keyERSF_
c8:__ZN22BuiltinResourceManager16StaticInitializeEPv
rIe:_NumberFormatter_ScaleOrder_m1915154678
yQc:__ZN24b2ChainAndCapsuleContact8EvaluateEP10b2ManifoldRK11b2TransformS4_
bXj:__ZN13Il2CppHashMapIPK14Il2CppAssemblyPK22Il2CppMonoAssemblyNameN6il2cpp5utils11PointerHashIS1_EENSt3__28equal_toIS2_EENSA_9allocatorINSA_4pairIK10KeyWrapperIS2_ES5_EEEEEC2EjRKS9_RKSC_
v$i:_InternalEnumerator_1_System_Collections_IEnumerator_get_Current_m3576641073_AdjustorThunk
yOf:_ClientSessionInfo_SetContext_m2649357891
jNe:_Int32_System_IConvertible_ToInt64_m3790029067_AdjustorThunk
aId:_RaycasterManager_GetRaycasters_m1154876874
LTf:_SslStreamBase_InternalReadCallback_m2524917586
R6:__ZN8Remapper6RemoveEi
$ff:_List_1_CheckCollection_m2608305187_gshared
S3c:__ZL36CleanupTextRenderingScriptingClassesv
Q7a:__ZN15ReflectionProbe17UseRendererResultEP13ProbeRenderer
x$d:_Array_BinarySearch_m3270245097
iic:__Z34Mesh_CUSTOM_SetArrayForChannelImplP12Il2CppObject30InternalScriptingShaderChannel34InternalScriptingVertexChannelTypeiP11Il2CppArrayi
$Qe:_MonoIO_DeleteFile_m3273821223
q0e:_BigInteger_GenerateRandom_m2507308768
mhe:_DateTime_System_IConvertible_ToDouble_m1431748426_AdjustorThunk
pre:_Array_InternalArray__ICollection_Contains_TisUInt16_t986882611_m510319131_gshared
sAe:_Array_InternalArray__Insert_TisRaycastHit2D_t4063908774_m3174907903_gshared
Mke:_Decimal_ToString_m541380585
Wqh:_AnimationOffsetPlayable_SetRotation_m1448934280_AdjustorThunk
oPj:_il2cpp_class_is_valuetype
SD:__ZN11UnityEngine9Animation28GenericAnimationBindingCache25RegisterIAnimationBindingEPKN5Unity4TypeEiP17IAnimationBinding
hkd:__Z70RectTransformUtility_CUSTOM_INTERNAL_CALL_RectangleContainsScreenPointP12Il2CppObjectRK13Vector2fIcallS0_
Qne:_Enum_ToObject_m2601523252
Grk:dynCall_viiffiii
i_a:__Z20RenderSceneDepthPassRK19SharedRendererSceneRK17ShaderReplaceDatabR17ShaderPassContext
hld:__ZN14UnityAnalytics25UnregisterGlobalCallbacksEv
S5a:__Z40ProcessCameraIndexListIsNodeVisibleInOutRK22SceneCullingParametersPK9SceneNodePK4AABBR9IndexList
Dlb:__ZN16GraphicsSettings8TransferI17RemapPPtrTransferEEvRT_
hUe:_StreamReader__ctor_m2654332332
Hhd:__ZN2UI6Canvas13UpdateBatchesEb
Uy:__ZNK23AnimationPlayableOutput11DerivesFromE17ScriptingClassPtr
fef:_List_1_CheckCollection_m3968030679_gshared
Jfg:_StringBuilder_ToString_m617673931
pod:__ZN11UnityEngine7Connect13ConfigHandler12GetListenersERKN4core12basic_stringIcNS2_20StringStorageDefaultIcEEEE
lCa:__ZN9GfxDevice18AllocRenderSurfaceEb
w_b:__ZN10TagManager32GetSortingLayerUniqueIDFromValueEi
d9i:_AnchorInfo_get_IsComplete_m1247624133
iRd:_Dropdown_Show_m324374589
l2:__ZL27CleanupCoreScriptingClassesv
vwg:__Z68RuntimeInvoker_RuntimeObject_RuntimeObject_DSAParameters_t1872138834PFvvEPK10MethodInfoPvPS4_
Oxh:_AudioMixerPlayable_INTERNAL_CALL_CreateAudioMixerPlayableInternal_m3355685531
XNg:__Z101RuntimeInvoker_Void_t1841601450_RuntimeObject_Int32_t2071877448_Single_t2076509932_Single_t2076509932PFvvEPK10MethodInfoPvPS4_
Tuh:_AnimatorControllerPlayable_PlayInFixedTime_m1932606764_AdjustorThunk
tKd:_RaycastResult_get_isValid_m2482925612
Xhc:__Z26AnimationCurve_CUSTOM_InitP12Il2CppObjectP11Il2CppArray
Bzk:_glUniform1uiv__wrapper
fQc:__ZNK14b2PolygonShape5CloneEP16b2BlockAllocator
OWj:__ZN6il2cpp2vm10Reflection7IsEventEP12Il2CppObject
r3:__ZN17PersistentManager26GetStreamNameSpaceInternalEi
$I:__ZN4FMOD6System11createSoundEPKcjP22FMOD_CREATESOUNDEXINFOPPNS_5SoundE
TAh:_CanvasRenderer_get_cull_m3577089379
po:FUNCTION_TABLE_iiifiiii
bih:_Object_Destroy_m4145850038
fSj:__ZN6il2cpp2vm4Type14IsSystemDBNullEPK10Il2CppType
U0:__ZN9ShaderLab19CommonPropertyNames13StaticCleanupEPv
Rqh:_AnimationOffsetPlayable_INTERNAL_CALL_GetRotationInternal_m3411582030
y4:__Z31scripting_method_get_returntype18ScriptingMethodPtr
DIi:_ScrollRect_UpdateBounds_m3266596336
Kqb:__ZN15SerializeTraitsI12LightmapDataE8TransferI24GenerateTypeTreeTransferEEvRS0_RT_
NOd:_ColorBlock_GetHashCode_m649325222
Zvk:_glStencilOpSeparate__wrapper
A8b:__ZN4Mesh5SetUvEiPKfjj
cua:__ZN7Texture13SetAnisoLimitENS_20AnisotropicFilteringE
wua:__ZN28LightProbeProxyVolumeManager25UpdateSHCoeffsTextureDataER21LightProbeProxyVolume
ZPa:__Z18CreateDecompressor15CompressionType18MemLabelIdentifier
SS:__ZN11AudioModule16SetListenerPauseEb
$h:_emscripten_glCompressedTexSubImage2D
tKa:__ZN13GfxDeviceGLES22MemoryBarrierImmediateEyN2gl17MemoryBarrierTypeE
Lca:__ZZN18SpriteAtlasManagerC1EvEN46EarlyUpdateSpriteAtlasManagerUpdateRegistrator7ForwardEv
B1j:__ZN6il2cpp6icalls8mscorlib6System4Type18internal_from_nameEP12Il2CppStringbb
zra:__ZN6prcoreL26RemapGenericFloatToIntegerI18TexFormatARGBFloat17TexFormatARGB8888EEvPKNS_9InnerInfoE
k8b:__Z46GetShaderModelNumericValueFromRequirementsMask18ShaderRequirements
ycd:_cff_ps_has_glyph_names
Joj:_InvokableCall_1__ctor_m2837611051_gshared
R6i:_PatternCompiler_EmitPosition_m3013268572
T0f:_X509SubjectKeyIdentifierExtension__ctor_m1109455121
uTd:_Graphic_CreateColorFromAlpha_m2614574534
Crc:__Z44Register_UnityEngine_GUIStyle_SetDefaultFontv
mOb:__Z18Transfer_BlittableI18StreamedBinaryReadILb1EELb1EiEvRK29SerializationCommandArgumentsR31RuntimeSerializationCommandInfo
LA:__ZN9BlobWrite8TransferI22OffsetPtrArrayTransferIKN4math7_float3EEEEvRT_PKc17TransferMetaFlags
yxb:__ZN16MeshSkinningData14GetBoneWeightsEi
Iyd:_TripleDES_IsWeakKey_m483013953
g_f:_X509Certificate2_get_PrivateKey_m2662162956
DVj:__ZN15dense_hashtableINSt3__24pairIK10KeyWrapperINS1_IPK12PropertyInfoP11Il2CppClassEEEjEES9_17ReflectionMapHashIS8_EN14dense_hash_mapIS9_jSD_NS9_14EqualsComparerINS0_8equal_toIS8_EEEENS0_9allocatorISB_EEE9SelectKeyESI_SK_E12maybe_shrinkEv
NCg:__Z75RuntimeInvoker_RuntimeObject_RuntimeObject_Single_t2076509932_RuntimeObjectPFvvEPK10MethodInfoPvPS4_
HOb:__Z18Transfer_BlittableI18StreamedBinaryReadILb1EELb1EsEvRK29SerializationCommandArgumentsR31RuntimeSerializationCommandInfo
ux:__ZN26AnimatorControllerPlayable17IsMultithreadableEv
vNg:__Z54RuntimeInvoker_Void_t1841601450_ColorBlock_t2652774230PFvvEPK10MethodInfoPvPS4_
lCd:_Single_System_IConvertible_ToSByte_m3757385387
$Re:_StreamAsyncResult_SetComplete_m2141125667
iua:__ZL21SetAnisoLimitEnumImplN7Texture20AnisotropicFilteringEb
Wmd:__ZN22BaseUnityConnectClient17OnEnterStateReadyEv
axa:__ZN14GrowableBufferD2Ev
ohc:__Z29Input_CUSTOM_GetMouseButtonUpi
WNj:__ZN6il2cpp6icalls8mscorlib6System8MonoType16InternalGetEventEP20Il2CppReflectionTypeP12Il2CppStringi
dlh:_Quaternion_INTERNAL_CALL_Internal_ToEulerRad_m1077217777
jig:_Interlocked_CompareExchange_m3339239614
h6c:_UNITY_tt_face_load_maxp
zhc:__Z46Input_CUSTOM_INTERNAL_set_compositionCursorPosRK13Vector2fIcall
kt:__ZN7mecanim5human12FullBodyMaskEv
s0:__ZN19ShaderPropertySheet11ComputeHashEv
pIj:__ZN30dense_hashtable_const_iteratorI10KeyWrapperIPK19Il2CppGenericMethodES4_N6il2cpp8metadata23Il2CppGenericMethodHashEN14dense_hash_setIS4_S7_NS4_14EqualsComparerINS6_26Il2CppGenericMethodCompareEEENSt3__29allocatorIS4_EEE8IdentityESB_SE_EppEv
IQc:__ZN12b2EPCollider24ComputePolygonSeparationEv
iX:__ZN11UnityEngine15CloudWebService20WebRequestRestClient6IsDoneEv
Wi:_llvm_fabs_f32
RNd:_CanvasScaler_HandleScaleWithScreenSize_m80056230
NW:__ZN11UnityEngine15CloudWebService16SessionContainer16GetJsonDataBlockEjRKN4core12basic_stringIcNS2_20StringStorageDefaultIcEEEERS6_PjSA_
Qbg:_SByte_System_IConvertible_ToUInt64_m2174352876_AdjustorThunk
Ugg:_UTF7Encoding_InternalGetBytes_m2772055844
nsj:_Locale_GetText_m512920887
NMh:_Dictionary_2_System_Collections_IDictionary_set_Item_m2290664072_gshared
Cyg:__Z76RuntimeInvoker_Void_t1841601450_Int64_t909078037_ResourceInfoU26_t3126209420PFvvEPK10MethodInfoPvPS4_
S_e:_SimpleCollator__cctor_m2693747668
Fke:_Decimal_CompareTo_m2454501434_AdjustorThunk
F3:__ZN14SafeBinaryReadD2Ev
Wmg:_UInt16_System_IConvertible_ToChar_m4055364664
G$b:__Z13RegisterClassI7TextureEvv
VPb:__ZN8Gradient8TransferI18StreamedBinaryReadILb1EEEEvRT_
mrc:__Z45Register_UnityEngine_GUIStyle_SetFontInternalv
E1j:__ZN6il2cpp6icalls8mscorlib6System4Type15MakeGenericTypeEP20Il2CppReflectionTypeP11Il2CppArray
vj:_SDL_PauseAudio
tPj:_il2cpp_class_from_type
d0d:_Array_Sort_m2323017822
fHi:_Scrollbar_UpdateDrag_m3839695926
iah:_GUILayoutUtility__cctor_m2957755459
T0:__ZN9ShaderLab19CommonPropertyNames16StaticInitializeEPv
OWe:_MissingMemberException__ctor_m3710131950
flh:_Quaternion_Euler_m3586339259
KC:__ZN7mecanim9animation18CreateAvatarOutputEPKNS0_14AvatarConstantEbbRNS_6memory9AllocatorE
Mrc:__Z45GUIUtility_CUSTOM_Internal_GetKeyboardControlv
DDg:__Z91RuntimeInvoker_Void_t1841601450_RuntimeObject_Int32_t2071877448_RuntimeObject_RuntimeObjectPFvvEPK10MethodInfoPvPS4_
Pcg:_CspParameters__ctor_m2546931874
CO:__ZN11AudioSource23VirtualRedirectTransferER24GenerateTypeTreeTransfer
c9b:__ZN7Texture11SetWrapModeE15TextureWrapMode
Vld:__ZN14UnityAnalytics15SendCustomEventERN11UnityEngine9Analytics15UserCustomEventE
Kub:__ZN14Texture2DArray23VirtualRedirectTransferER14SafeBinaryRead
S0a:__ZNK6Camera21CalculateCanDoShadowsEv
yTd:_Graphic__cctor_m1643894470
W8j:__ZN6il2cpp2os6Thread12SetStackSizeEj
Nsg:__Z99RuntimeInvoker_Void_t1841601450_Int32_t2071877448_RuntimeObject_Int32_t2071877448_Int32_t2071877448PFvvEPK10MethodInfoPvPS4_
C_f:_X509ChainElementEnumerator_get_Current_m2232618221
nNd:_U3COnFinishSubmitU3Ec__Iterator0_Reset_m2080388334
X8b:__ZNK8Renderer16IsVisibleInSceneEv
Kyh:_Behaviour_get_isActiveAndEnabled_m3838334305
xIi:_ScrollRect_set_onValueChanged_m3957749575
G$:__Z13VFormatBufferPciPKcz
OQb:__Z18Transfer_BlittableI18StreamedBinaryReadILb0EELb1EhEvRK29SerializationCommandArgumentsR31RuntimeSerializationCommandInfo
BBj:_U3CCreateWhereIteratorU3Ec__Iterator1D_1_Dispose_m1879652802_gshared
rVd:_Image_GenerateSimpleSprite_m4275440988
ADh:_Display_get_systemHeight_m3377672024
Lng:_UInt16_ToString_m3280699191
Dra:__ZN6prcoreL27StretchGenericFloatBilinearI15TexFormatRFloatEEvPKNS_9InnerInfoE
Y1h:__ZL56_PropertyInfo_t1567586598_CustomAttributesCacheGeneratorP21CustomAttributesCache
Qv:__Z24ProcessAnimationMixBeginP35AnimationPlayableEvaluationConstantP32AnimationPlayableEvaluationInputP33AnimationPlayableEvaluationOutput
Nmh:_Rect_Overlaps_m4145874649
Pve:_Array_IndexOf_TisCustomAttributeNamedArgument_t94157543_m745056346_gshared
DIa:__Z14PadImageBorderR14ImageReferenceii
gUj:__ZN15dense_hashtableINSt3__24pairIK10KeyWrapperINS1_IPK10MethodInfoP11Il2CppClassEEEjEES9_17ReflectionMapHashIS8_EN14dense_hash_mapIS9_jSD_NS9_14EqualsComparerINS0_8equal_toIS8_EEEENS0_9allocatorISB_EEE9SelectKeyESI_SK_E4findERSA_
sKg:__Z116RuntimeInvoker_Void_t1841601450_Rect_t3681755626_SByte_t454417549_SByte_t454417549_SByte_t454417549_SByte_t454417549PFvvEPK10MethodInfoPvPS4_
FUi:_ArrayReadOnlyList_1_ReadOnlyError_m2289309720_gshared
rw:__ZN27AnimationLayerMixerPlayableD2Ev
iOj:__ZN6il2cpp2vm8basepathEPKc
m8:__ZN15dense_hashtableINSt3__24pairIKiiEEi21InstanceIDHashFunctorN14dense_hash_mapIiiS4_NS0_8equal_toIiEE13stl_allocatorIS3_L18MemLabelIdentifier137ELi16EEE9SelectKeyES7_SA_E14squash_deletedEv
uKf:_PKCS1_Verify_v15_m478274703
TK:__ZN12AudioManager39HandlePendingAudioConfigurationCallbackEv
rk:_emscripten_glIsFramebuffer
n5b:__ZN12_GLOBAL__N_16qAtan2Eff
yfe:_Convert_ToInt64_m954367741
vk:_JS_Sound_SetLoopPoints
c5d:_ArrayList__ctor_m1467563650
PP:__ZN12AudioManager17ShouldSourcePauseEb
Hik:__ZN6il2cpp2vm26MetadataAllocGenericMethodEv
UMa:__ZN19ConstantBuffersGLES12RecordRenderEv
Kgj:_Transform_INTERNAL_set_rotation_m3703763817
Cuc:__ZN9JSONWrite8TransferI10RectOffsetEEvRT_PKc17TransferMetaFlags
jIa:__ZN4crnd12symbol_codec11decode_bitsEj
JQc:__ZN15b2CircleContact8EvaluateEP10b2ManifoldRK11b2TransformS4_
cDe:_Array_Sort_TisRaycastResult_t21186376_TisRaycastResult_t21186376_m38820193_gshared
qvh:_Animator_ResetTriggerString_m1445965342
jRe:_StreamReader__ctor_m3454466728
XK:__ZN4FMOD6System12createReverbEPPNS_6ReverbE
Acj:_Vector2_get_Item_m2792130561
jw:__ZN7mecanim19ValueArrayBlendNodeILb1EEEvRKNS_10ValueArrayERKNS_14ValueArrayMaskERS1_RS4_RNS_16ValueArrayWeightEf
Msa:__Z16MarkDependenciesR27GarbageCollectorThreadStatej
u0f:_X509ChainElementEnumerator_Reset_m3832280427
_rh:_AnimatorControllerPlayable_SetBoolString_m4011560969
WYe:_MulticastDelegate_RemoveImpl_m2024746777
$Nd:_CanvasUpdateRegistry_ParentCount_m2367607495
QYe:_MulticastDelegate_Equals_m3064081489
b8e:_Activator_CreateInstance_m1465989661
P0:__ZNK9Transform11GetPositionEv
Eaj:_PositionAssertion_GetWidth_m2294218483
gkh:_PlayableHandle_SetPlayStateInternal_m3829195293
WXa:__ZN23SharedMeshRenderingData18UnloadVertexStreamEi
cjj:_Vector4_set_Item_m3077071044
Z5b:__ZN31CanvasBatchIntermediateRenderer11AddSubBatchERK16DrawBuffersRangePK19ShaderPropertySheet
x4b:__ZN19RenderEventsContextC2Ei
$U:__Z6simd4fRKf
ize:_Array_InternalArray__ICollection_CopyTo_TisColor32_t874517518_m379086718_gshared
XKi:_Slider_ClampValue_m2851810895
Yk:_emscripten_glEnable
Iah:_GUISkin_set_font_m4009958323
oqj:_UnityEvent_1_FindMethod_Impl_m3813546_gshared
E6j:__ZN6il2cpp2gc16GarbageCollector29RegisterFinalizerForNewObjectEP12Il2CppObject
Rib:__ZN10TagManager23VirtualRedirectTransferER14SafeBinaryRead
D5c:_UNITY_FT_Init_Class_ft_grays_raster
K3a:__Z15InitLightMeshesv
v7h:__ZL97WaitHandle_t677569169_CustomAttributesCacheGenerator_WaitHandle_t677569169____Handle_PropertyInfoP21CustomAttributesCache
c9e:_KeyValuePair_2_ToString_m1391611625_AdjustorThunk
Nn:FUNCTION_TABLE_iifiii
Cee:_Double_Parse_m1617409931
XAj:_Comparison_1_BeginInvoke_m4056757384_gshared
BWa:__ZN22RenderingCommandBuffer36AcquireAndRegisterSharedMaterialDataEP8Material
JMb:__Z18Transfer_BlittableI19StreamedBinaryWriteILb0EELb1E8Vector2fEvRK29SerializationCommandArgumentsR31RuntimeSerializationCommandInfo
yad:_cf2_arrstack_init
f1h:__ZL65ClassInterfaceAttribute_t910653559_CustomAttributesCacheGeneratorP21CustomAttributesCache
uSj:__ZN15dense_hashtableINSt3__24pairIK10KeyWrapperINS1_IPK14Il2CppAssemblyP11Il2CppClassEEEjEES9_17ReflectionMapHashIS8_EN14dense_hash_mapIS9_jSD_NS9_14EqualsComparerINS0_8equal_toIS8_EEEENS0_9allocatorISB_EEE9SelectKeyESI_SK_E15insert_noresizeERKSB_
s$:__Z15CleanLogHandler7LogTypePKcz
OWb:__ZN9ShaderLab19SerializedSubShader8TransferI19StreamedBinaryWriteILb0EEEEvRT_
zgg:_UTF32Encoding_GetBytes_m2290150495
rDb:__ZN6Camera17RemoveImageFilterERK11ImageFilter
RJa:__ZNSt3__218__insertion_sort_3IR25ValueParameterArraySorterPN20GpuProgramParameters14ValueParameterEEEvT0_S6_T_
VUc:__ZN10ClipperLib7Clipper27ProcessEdgesAtTopOfScanbeamEx
VDi:_LayoutUtility_GetLayoutProperty_m4052007472
Noj:_InvokableCall_1_Invoke_m3239892614_gshared
PKc:__ZN11ShapeModule17MainThreadCleanupEv
DXa:__ZNSt3__214__split_bufferI20ComputeShaderVariantRNS_9allocatorIS1_EEED2Ev
g1c:__ZNSt3__26vectorIN4core12basic_stringIcNS1_20StringStorageDefaultIcEEEE13stl_allocatorIS5_L18MemLabelIdentifier34ELi16EEE7reserveEj
WOf:_Context_set_WriteSequenceNumber_m3356252710
nid:__ZN2UI26InitializeDeviceForOverlayEi
sLe:_Guid_Equals_m2389236871
i1:__Z27LogRepeatingStringWithFlagsRKN4core12basic_stringIcNS_20StringStorageDefaultIcEEEE15LogMessageFlagsi
ccf:_Enumerator_MoveNext_m3483405135_gshared
Lt:__ZN17AnimationPlayable28ComputeNeedsBindingRebuildedEv
hdf:_List_1_CheckIndex_m3609163576_gshared
dBb:__ZN15ResourceManagerD0Ev
c_f:_X509ExtensionCollection__ctor_m1324282194
opd:__ZN18UnityConnectClient33OnPlayerSessionStateChangedStaticEPS_jyy
dZh:__ZL74CaseInsensitiveHashCodeProvider_t2307530285_CustomAttributesCacheGeneratorP21CustomAttributesCache
SX:__ZNK11UnityEngine15CloudWebService23WebRequestUploadHandler11GetProgressEv
CFa:__ZN7ApiGLES4LoadE16GfxDeviceLevelGL
Xqb:__ZN18StreamedBinaryReadILb0EE21TransferSTLStyleArrayI13dynamic_arrayI31EnlightenSystemAtlasInformationLj8EEEEvRT_17TransferMetaFlags
gAd:_Evidence_get_Count_m2805157382
cIa:__ZN4crnd12crn_unpacker22decode_color_endpointsEv
L5j:__ZN15dense_hashtableI10KeyWrapperIP18Il2CppGenericClassES3_N6il2cpp8metadata22Il2CppGenericClassHashEN14dense_hash_setIS3_S6_NS3_14EqualsComparerINS5_25Il2CppGenericClassCompareEEENSt3__29allocatorIS3_EEE8IdentityESA_SD_E15insert_noresizeERKS3_
gBf:_ReadOnlyCollection_1_System_Collections_IList_Clear_m3006875897_gshared
E3b:__ZZL31RegisterOtherRendererPropertiesR22GenericPropertyBindingEN30Wrapper_RendererReceiveShadows13GetFloatValueEPv
ucf:_Enumerator_System_Collections_IEnumerator_get_Current_m3866069145_gshared
yha:__ZN8Material11SetPassFastEPN9ShaderLab4PassER17ShaderPassContextP6Shaderib
mpd:__ZN11UnityEngine7Connect20BasePersistentValues10SaveValuesER9JSONWrite
smh:_Rect_get_max_m96665935_AdjustorThunk
aJd:_ExecuteEvents_get_pointerDownHandler_m1172742772
FYc:__ZNSt3__27__sort4IR24RayHitsByDepthComparitorP12RaycastHit2DEEjT0_S5_S5_S5_T_
Q9b:__Z14ScaleCurveTimeR17AnimationCurveTplIfEf
R$f:_X509CertificateEnumerator_System_Collections_IEnumerator_MoveNext_m3708362145
OZa:__Z12SetupLODFadeR9GfxDeviceR17ShaderPassContextf
Gnb:__ZNK14PlayableOutput7GetTypeEv
$Xc:__ZN26b2PolygonAndCapsuleContact6CreateEP9b2FixtureiS1_iP16b2BlockAllocator
awg:__Z203RuntimeInvoker_Boolean_t3825574718_RuntimeObject_Int32U26_t455636984_Int32_t2071877448_Int32_t2071877448_RuntimeObject_SByte_t454417549_Int32_t2071877448_ContractionU26_t2019974048_ContextU26_t3131521781PFvvEPK10MethodInfoPvPS4_
tlj:_X501_ToString_m3328169518
x3a:__ZL24CollectForwardObjectsJobP27CollectForwardObjectsHeader
CFh:_Enumerator_System_Collections_IDictionaryEnumerator_get_Entry_m345330700_gshared
l7a:__ZNK25CameraStackRenderingState24ResolveTempToEyeTexturesEv
o5a:__Z13IsNodeVisibleRK9SceneNodeRK4AABBRK22SceneCullingParameters
jkd:__Z57RectTransformUtility_CUSTOM_INTERNAL_CALL_PixelAdjustRectP12Il2CppObjectS0_R5RectTIfE
o8f:_DelayedFixupRecord_FixupImpl_m4249966635
yBk:_emscripten_glStencilMask__wrapper
fIj:__ZN15dense_hashtableI10KeyWrapperIPK19Il2CppGenericMethodES4_N6il2cpp8metadata23Il2CppGenericMethodHashEN14dense_hash_setIS4_S7_NS4_14EqualsComparerINS6_26Il2CppGenericMethodCompareEEENSt3__29allocatorIS4_EEE8IdentityESB_SE_EC2ERKSH_j
C0e:_BigInteger_ToString_m3837784224
Dke:_Decimal_decimalCompare_m26009298
c0c:__ZN16NovodexAllocator8allocateEjPKcS1_i
X2a:__Z17PrepareShadowMapsRK11CullResultsRK11ActiveLightRK10MinMaxAABB
Xhg:_NativeEventCalls_CreateEvent_internal_m1605829321
fti:__ZL73RuntimePlatform_t1869584967_CustomAttributesCacheGenerator_MetroPlayerX64P21CustomAttributesCache
p_i:_InternalEnumerator_1_System_Collections_IEnumerator_get_Current_m3239681450_AdjustorThunk
u3a:__ZN9ShaderLab10GrabPassesD2Ev
whh:_MonoBehaviour_set_useGUILayout_m2666356651
Vub:__ZN14Texture2DArray13UploadTextureEv
R7c:_tt_cmap14_done
Dta:__ZN18AwakeFromLoadQueue25RegisterObjectInstanceIDsEv
v2d:_Buffer_BlockCopy_m1586717258
f4h:__ZL93X509Certificate_t283079845_CustomAttributesCacheGenerator_X509Certificate_GetName_m2354987368P21CustomAttributesCache
ww:__ZNK27AnimationLayerMixerPlayable11DerivesFromE17ScriptingClassPtr
a2c:__ZN20TextRenderingPrivate19NativeTextGenerator15InsertCharacterEiPj
r0j:__ZNSt3__26vectorIN6il2cpp2vm22EmbeddedResourceRecordENS_9allocatorIS3_EEE21__push_back_slow_pathIS3_EEvOT_
zpe:_CompareInfo_GetSortKey_m3691382873
DSc:__ZN11b2RopeJoint24SolveVelocityConstraintsERK12b2SolverData
zje:_DBNull_ToString_m3228904745
hYf:_WebHeaderCollection_AddWithoutValidate_m1479880592
bzc:__ZN24OptimizedPolynomialCurve19BuildOptimizedCurveERK17AnimationCurveTplIfEf
LKf:_RC4_get_IV_m506011366
Cmj:_X509Crl__ctor_m2469408229
PFh:_Enumerator_get_CurrentValue_m3562053380_AdjustorThunk
Z0f:_X509SubjectKeyIdentifierExtension_CopyFrom_m136762226
Nqh:_AnimationOffsetPlayable_INTERNAL_CALL_SetPositionInternal_m3711322547
raf:_Enumerator_System_Collections_IEnumerator_Reset_m610822832_AdjustorThunk
Sic:__Z41MonoBehaviour_Set_Custom_PropUseGUILayoutP12Il2CppObjecth
W2c:_UNITY_FT_Open_Face
Hak:__ZN6il2cpp2gc16GarbageCollector9FreeFixedEPv
jzh:_Bounds_ToString_m1966597703
x1e:_BigInteger_op_Division_m1581119694
TSb:__ZN16ScriptingManagerD0Ev
goh:_UnityAnalyticsHandler_CustomEvent_m2884790978
B9f:_CallbackHandler_Invoke_m1498072969
udg:_DSACryptoServiceProvider__ctor_m701823690
_9g:_Mathf_Clamp_m2354025655
lYg:_CustomAttributeData_GetCustomAttributes_m2421330738
Blg:_Type_get_IsEnum_m313908919
sfc:__Z44Register_UnityEngine_Component_get_transformv
Bgc:__Z39GameObject_CUSTOM_FindGameObjectWithTagP12Il2CppString
Ctf:_Collection_1_System_Collections_ICollection_CopyTo_m1335644572_gshared
PB:__ZN12_GLOBAL__N_120ProcessPlayableGraphERN8Animator11AnimatorJobER35AnimationPlayableEvaluationConstantR32AnimationPlayableEvaluationInputR33AnimationPlayableEvaluationOutputPFvS4_R17AnimationPlayableEPFvS4_S6_S8_EPFvS8_S4_S6_S8_fESE_MS9_FvPS3_PS5_PS7_E
Ijf:_List_1_CheckMatch_m2830747427_gshared
SPa:__ZN17ArchiveFileSystem12MountArchiveEPKcS1_
Itc:__Z18Transfer_BlittableI9JSONWriteLb1E8Vector4fEvRK29SerializationCommandArgumentsR31RuntimeSerializationCommandInfo
In:FUNCTION_TABLE_viififiii
Egd:__ZN2UI13CanvasManagerD0Ev
xGh:_Enumerator_System_Collections_IEnumerator_Reset_m70453843_gshared
Brb:__ZThn32_NK8Renderer14GetSubsetIndexEi
Hyg:__Z58RuntimeInvoker_Byte_t3683104436_IntPtr_t_Int32_t2071877448PFvvEPK10MethodInfoPvPS4_
oEe:_Dictionary_2_Do_CopyTo_TisKeyValuePair_2_t1174980068_TisRuntimeObject_m3279061992_gshared
vij:_Vector3_get_Item_m3616014016
o2b:__ZN13ProduceHelperI15ResourceManagerLb0EE7ProduceE18MemLabelIdentifier18ObjectCreationMode
eDa:__ZN9GfxDevice15ImmediateVertexEfff
n$b:__Z13RegisterClassI8MaterialEvv
gqb:__ZNK16LightmapSettings22GetTypeVirtualInternalEv
Foe:_FieldAccessException__ctor_m3893881490
NAa:__ZN13GfxDeviceGLES15SetStencilStateEPK18DeviceStencilStatei
fGg:__Z107RuntimeInvoker_Void_t1841601450_Single_t2076509932_Single_t2076509932_Single_t2076509932_Single_t2076509932PFvvEPK10MethodInfoPvPS4_
knk:_cycle
Afj:_TextGenerator_Populate_m4139823822
Sd:_emscripten_glUniform1iv
sMi:_Text_get_preferredHeight_m452532789
GXc:__ZN15b2DistanceProxy3SetEPK7b2Shapei
eDd:_String_System_IConvertible_ToDouble_m3860911722
meb:__ZN16MemoryFileSystemD2Ev
H2i:_InternalEnumerator_1_get_Current_m3732458101_AdjustorThunk
dJf:_ARC4Managed__ctor_m2922048522
l2c:__Z17dynamic_pptr_castIP9Texture2D7TextureET_RK4PPtrIT0_E
xCf:_ReadOnlyCollection_1_System_Collections_IList_set_Item_m1272038804_gshared
JVi:_InternalEnumerator_1_System_Collections_IEnumerator_get_Current_m1931522460_AdjustorThunk
Jzd:_SecurityPermission_IsEmpty_m1869313067
K$f:_X509CertificateCollection__ctor_m3709509050
Xec:__Z37Register_UnityEngine_Camera_get_depthv
K4e:_EncryptedPrivateKeyInfo_get_Salt_m2734354394
tEf:_ReadOnlyCollection_1_System_Collections_Generic_IListU3CTU3E_set_Item_m1918537449_gshared
esf:_Collection_1_System_Collections_ICollection_CopyTo_m3896480607_gshared
GJd:_PointerEventData_set_position_m794507622
J8j:__GLOBAL__sub_I_Thread_cpp_38259
bca:__ZN15dense_hashtableINSt3__24pairIKPKcPK4RTTIEES3_N11TypeManager23ConstCharPtrHashFunctorEN14dense_hash_mapIS3_S7_SA_NS9_19ConstCharPtrEqualToE13stl_allocatorIS8_L18MemLabelIdentifier6ELi16EEE9SelectKeyESC_SF_E12resize_deltaEjj
Kdb:__Z23ConvertIntegerToTypePtrItEbPvR14SafeBinaryRead
qC:__ZN7mecanim5human29HumanGetGoalOrientationOffsetENS0_4GoalE
kFb:__ZNK11MonoManager22GetTypeVirtualInternalEv
n5g:_MonoMethod_MakeGenericMethod_impl_m2063853616
ABd:__Z46il2cpp_codegen_get_marshal_directive_exceptionPKc
SXb:__ZN9ShaderLab20SerializedSubProgram14AddMatrixParamEPKcii15ShaderParamTypei
ne:_glGetActiveUniformBlockName
RF:__ZN26AnimatorControllerPlayable23ValidateParameterStringE17GetSetValueResultRKN4core12basic_stringIcNS1_20StringStorageDefaultIcEEEE
ALe:_Guid_AppendByte_m2890893073
lzc:__ZN31CollisionModulePropertyBindings13GetFloatValueERK14ParticleSystemi
H3d:_Char_System_IConvertible_ToType_m3106771703_AdjustorThunk
a3f:_Interval_Intersects_m3480157390_AdjustorThunk
Qhc:__Z39Quaternion_CUSTOM_INTERNAL_CALL_InverseRK11QuaternionfRS_
VOi:_GCHandle_Alloc_m1063472408
PL:__ZN4FMOD7Channel20set3DConeOrientationEP11FMOD_VECTOR
zn:FUNCTION_TABLE_iiifii
Ccg:_CryptoConfig_CreateFromName_m391442950
P7j:__ZN6il2cpp2vm12GenericClass11SetupEventsEP11Il2CppClass
Zdd:_tt_delta_interpolate
K7c:_tt_cmap12_get_info
Gae:_SortedList__ctor_m3698381356
Juh:_AnimatorControllerPlayable_PlayInFixedTimeInternal_m3876843019
q3j:__ZN6il2cpp2vm15ReboxIReferenceEP14Il2CppIUnknownP11Il2CppClass
MUe:_StreamWriter_LowLevelWrite_m4205372900
TCj:__ZN6il2cpp6icalls8mscorlib6System7Decimal14decimalCompareEP19il2cpp_decimal_reprS5_
Udk:__ZThn4_N6il2cpp2vm13CachedCCWBaseINS0_13ManagedObjectEE7ReleaseEv
k8d:_CollectionBase_System_Collections_IList_get_Item_m2370387510
TCe:_Array_Sort_TisCustomAttributeNamedArgument_t94157543_m3436077809_gshared
Byk:_glCopyTexImage2D__wrapper
adj:_ResourceRequest__ctor_m3340010930
WYd:_LayoutElement__ctor_m789941073
Ezh:_Camera_FireOnPreCull_m1679634170
nIe:_NumberFormatter_CountTrailingZeros_m2398864634
bpa:__Z18ClearByDrawingQuad13GfxClearFlagsRK10ColorRGBAffjR17ShaderPassContext
GRi:_DynamicPropertyCollection_FindProperty_m1233265924
ara:__ZN6prcoreL17RemapGenericFloatI14TexFormatRHalf15TexFormatRFloatEEvPKNS_9InnerInfoE
CZa:__Z16ShouldUseShadowsb
yaa:__ZN15DirectorManager21RebuildStageCallbacksEv
bsa:__ZN19RuntimeSceneManager9LoadSceneERKN4core12basic_stringIcNS0_20StringStorageDefaultIcEEEES6_S6_RK9UnityGUIDiNS_11LoadingModeE
UIa:__ZN7ApiGLES10DrawArraysE16GfxPrimitiveTypejjj
mEh:_Event_PopEvent_m1952528237
osh:_AnimatorControllerPlayable_SetIntegerString_m3665225671
CJ:__ZN10SampleClip13LoadBaseSoundEv
S6j:__ZN15dense_hashtableINSt3__24pairIK10KeyWrapperIP12Il2CppObjectEN6il2cpp2gc9CachedCCWEEES5_NS7_5utils11PointerHashIS3_EEN14dense_hash_mapIS5_S9_SD_NS5_14EqualsComparerINS0_8equal_toIS4_EEEENS0_9allocatorISA_EEE9SelectKeyESI_SK_E15insert_noresizeERKSA_
Mwf:_Collection_1_Contains_m643401393_gshared
apa:__ZN22DeviceMVPMatricesStateC2ER9GfxDevice
yIc:__Z9UpdateTplIL27ParticleSystemCurveEvalMode1EEvRK11MinMaxCurveS3_S3_R23ParticleSystemParticlesjjRKN4math8float3x3ERKNS6_7_float4E
YCd:_String__ctor_m372528291
hn:FUNCTION_TABLE_iifii
qG:__Z64AnimationOffsetPlayable_CUSTOM_INTERNAL_CALL_SetRotationInternalR9HPlayableRK11Quaternionf
ltb:__ZNSt3__26vectorI13dynamic_arrayI8Vector2fLj4EENS_9allocatorIS3_EEE6assignINS_11__wrap_iterIPS3_EEEENS_9enable_ifIXaasr21__is_forward_iteratorIT_EE5valuesr16is_constructibleIS3_NS_15iterator_traitsISC_E9referenceEEE5valueEvE4typeESC_SC_
Erh:_AnimatorControllerPlayable_GetFloat_m1229536053_AdjustorThunk
mta:__ZNSt3__26__treeIiNS_4lessIiEE13stl_allocatorIiL18MemLabelIdentifier1ELi16EEE7destroyEPNS_11__tree_nodeIiPvEE
wc:invoke_viiifi
LXe:_LongComparer_Compare_m3981323622
ySh:_EqualityComparer_1__cctor_m3033994022_gshared
vya:__ZNK11AssetBundle14GetPreloadDataEiR13dynamic_arrayIiLj4EE
S5e:_EncryptedData_get_EncryptedContent_m2732115576
xf:_JS_Sound_SetPosition
f8i:_Assertion_set_FalseExpression_m1781616372
V0f:_X509SubjectKeyIdentifierExtension_FromHexChars_m2515150420
aia:__ZN19RenderBufferManager13GetTempBufferEii17DepthBufferFormat19RenderTextureFormatj22RenderTextureReadWrite14VRTextureUsagei23RenderTextureMemoryless
VKj:__ZL13GetSharedInstPK17Il2CppGenericInst
RXh:__ZL51IReflect_t3412036974_CustomAttributesCacheGeneratorP21CustomAttributesCache
GLd:_StandaloneInputModule_SendSubmitEventToSelectedObject_m3421155293
WBh:_Component_GetComponentsInChildren_m908027537
cnd:__ZN22BaseUnityConnectClient17SaveSessionValuesEv
tTi:_CallContextRemotingData_Clone_m2226242476
f3:__Z63ThreadAndSerializationSafeCheckSetMonoBehaviourBeingTransferredP13MonoBehaviour
A3a:__Z24SetupActiveLightsContextR21ActiveLightingContextRK12ActiveLightsRK11CullResultsP14ShadowMapCacheRK10MinMaxAABB
Ikc:__Z38Sprite_CUSTOM_INTERNAL_get_textureRectP12Il2CppObjectP5RectTIfE
vje:_DBNull_System_IConvertible_ToUInt32_m2681284284
PXj:__ZNK15dense_hashtableINSt3__24pairIK10KeyWrapperIPK22Il2CppGenericParameterEPK24MonoGenericParameterInfoEES6_N6il2cpp5utils11PointerHashIS4_EEN14dense_hash_mapIS6_SA_SF_NS6_14EqualsComparerINS0_8equal_toIS5_EEEENS0_9allocatorISB_EEE9SelectKeyESK_SM_E3endEv
X6b:__ZN9TextAsset7SetTextERKN4core12basic_stringIcNS0_20StringStorageDefaultIcEEEE
gkb:__ZN6Camera8TransferI24GenerateTypeTreeTransferEEvRT_
pTh:_EqualityComparer_1__cctor_m416314417_gshared
Ka:invoke_iiiiiiif
Fa:invoke_iiiiiiii
Kgh:_Mesh_GetUVChannel_m364477864
m$f:_X509ChainElementCollection_Contains_m3599995067
X6a:__ZN8Renderer17PendingAddToSceneEv
lCk:b123
kCk:b122
_sh:_AnimatorControllerPlayable_GetLayerName_m1429074517_AdjustorThunk
mCk:b124
pCk:b127
oCk:b126
rCk:b129
Yjc:__Z52Register_UnityEngine_RectTransform_INTERNAL_get_rectv
$1:__Z21PostprocessStacktracePKcRN4core12basic_stringIcNS1_20StringStorageDefaultIcEEEE
C1h:__ZL70TypeLibImportClassAttribute_t2390314680_CustomAttributesCacheGeneratorP21CustomAttributesCache
WAb:__ZN18StreamedBinaryReadILb0EE21TransferSTLStyleArrayI13dynamic_arrayI16SplashScreenLogoLj4EEEEvRT_17TransferMetaFlags
pse:_Array_InternalArray__ICollection_Remove_TisX509ChainStatus_t4278378721_m4127982424_gshared
gfc:__Z47Register_UnityEngine_Camera_get_allCamerasCountv
Zsd:___clang_call_terminate
lke:_Decimal_GetBits_m3520401316
fnd:__ZN22BaseUnityConnectClient20StartEventDispatcherEv
J8b:__ZNSt3__26vectorIj13stl_allocatorIjL18MemLabelIdentifier1ELi16EEE6assignIPKtEENS_9enable_ifIXaasr21__is_forward_iteratorIT_EE5valuesr16is_constructibleIjNS_15iterator_traitsIS9_E9referenceEEE5valueEvE4typeES9_S9_
fB:__ZN7mecanim9animation16EvaluateAvatarIKEPKNS0_14AvatarConstantEPKNS0_11AvatarInputEPNS0_12AvatarOutputEPNS0_12AvatarMemoryEPNS0_15AvatarWorkspaceEb
vJa:__ZL25ProgramUniformMatrix4x3fvPK7ApiGLESjiihPKv
Ljh:_PlayableGraph_INTERNAL_CALL_CreateScriptOutputInternal_m348659249
iVa:__ZN12InputManager13InputEndFrameEv
lae:_SyncHashtable__ctor_m2029869827
$_j:__ZN6il2cpp2vm6Thread5SetupEP12Il2CppThread
IFf:_ReadOnlyCollection_1_System_Collections_IList_Remove_m2200089035_gshared
$rf:_Collection_1_CheckWritable_m2756357359_gshared
pok:___munmap
pWd:_InputField_get_characterLimit_m2386380888
ayi:__ZL68ColorBlock_t2652774230_CustomAttributesCacheGenerator_m_PressedColorP21CustomAttributesCache
kfe:_Convert_ToInt64_m1722087499
og:_localtime_r
EHc:__ZN14ParticleSystem13KillParticlesILb1EEEvRjbR24ParticleSystemUpdateDataR23ParticleSystemParticlesjPj
Ujh:_PlayableHandle_GetInputCount_m3249715311
NQ:__ZN4FMOD5Sound11getDefaultsEPfS1_S1_Pi
o1h:__ZL65InterfaceTypeAttribute_t4113096249_CustomAttributesCacheGeneratorP21CustomAttributesCache
qg:_strftime
kia:__ZN7Texture33SetStoredColorSpaceNoDirtyNoApplyE17TextureColorSpace
u6:__ZN12FileAccessorD2Ev
yvb:__ZN14VertexDataInfoC2Ev
Aoe:_Exception_GetObjectData_m2653827630
Cij:_Vector3_Equals_m2692262876_AdjustorThunk
_Yi:_InternalEnumerator_1_get_Current_m2415979394_gshared
sPb:__ZL17Transfer_GUIStyleI18StreamedBinaryReadILb1EELb1EEvRK29SerializationCommandArgumentsR31RuntimeSerializationCommandInfo
AHc:__ZNSt3__227__insertion_sort_incompleteIR31SortCollisionEventsByGameObjectP22ParticleCollisionEventEEbT0_S5_T_
hIi:_ScrollRect_SetDirtyCaching_m1491302821
Yjh:_PlayableHandle_SetInputCount_m2001045454
MNj:__ZN6il2cpp6icalls8mscorlib6SystemL9IsPrivateEPK12PropertyInfo
SBg:__Z72RuntimeInvoker_DateTime_t693205669_DateTime_t693205669_Int32_t2071877448PFvvEPK10MethodInfoPvPS4_
nYg:_CustomAttributeData_GetCustomAttributes_m3258419955
d1:__ZN9shadertag10InitializeEv
QZa:__ZN13BatchRenderer20RenderSingleWithPassER17ShaderPassContextPK18SharedMaterialDataP6ShaderPN9ShaderLab4PassEiPKNS7_10GrabPassesEjib15BatchBreakCause
Lsb:__ZN15QualitySettings14QualitySetting8TransferI24GenerateTypeTreeTransferEEvRT_
Wye:_Array_InternalArray__ICollection_CopyTo_TisParameterModifier_t1820634920_m4127516211_gshared
GFd:_DecoderReplacementFallback__ctor_m2344783488
qWg:_OutOfMemoryException__ctor_m239206850
KSd:_GraphicRegistry_UnregisterGraphicForCanvas_m820096873
bfd:__Z28Font_Get_Custom_PropMaterialP12Il2CppObject
Ehk:__ZN6il2cpp6icalls8mscorlib6System9Threading16NativeEventCalls19ResetEvent_internalE12Il2CppIntPtr
BDg:__Z88RuntimeInvoker_RuntimeObject_RuntimeObject_RuntimeObject_RuntimeObject_Int32_t2071877448PFvvEPK10MethodInfoPvPS4_
$tf:_Collection_1_Remove_m4136193368_gshared
uId:_EventTrigger_OnPointerUp_m2791622548
qKi:_Shadow_set_useGraphicAlpha_m141905402
S7b:__ZN22BlockMemoryCacheWriter14LockCacheBlockEjPPhS1_
Hng:_UInt16_ToString_m2038947049
dxc:__Z22TransferField_NonArrayI8JSONRead27Converter_SimpleNativeClassI8GUIStyleEEvRK23StaticTransferFieldInfoR31RuntimeSerializationCommandInfoRT0_
Wg:_llvm_eh_typeid_for
E5b:__Z13RegisterClassI10GameObjectEvv
mJj:__ZNK15dense_hashtableINSt3__24pairIK10KeyWrapperIN6il2cpp5utils13dynamic_arrayIPK10Il2CppTypeLj4EEEEPFvvEEESA_NS3_8metadata19Il2CppSignatureHashEN14dense_hash_mapISA_SD_SG_NSA_14EqualsComparerINSF_22Il2CppSignatureCompareEEENS0_9allocatorISE_EEE9SelectKeyESK_SM_E5beginEv
tZh:__ZL53HashValues_t2390200547_CustomAttributesCacheGeneratorP21CustomAttributesCache
YZf:_X509BasicConstraintsExtension_get_PathLengthConstraint_m3004531343
Fsh:_AnimatorControllerPlayable_INTERNAL_CALL_ResetTriggerString_m2112584758
Ty:__ZNK23AnimationPlayableOutput7GetTypeEv
rmh:_Rect_get_max_m96665935
UWe:_MissingMemberException__ctor_m4277447068
Zdf:_List_1_Find_m1881447651_gshared
E6g:_StrongNameKeyPair_System_Runtime_Serialization_ISerializable_GetObjectData_m1693082120
nRb:__Z18Transfer_BlittableI18StreamedBinaryReadILb0EELb1E8Vector4fEvRK29SerializationCommandArgumentsR31RuntimeSerializationCommandInfo
K9j:__ZN6il2cpp2vm6Method8GetParamEPK10MethodInfoj
vOe:_Int64_CompareTo_m1953686218
t2j:__ZN6il2cpp6icalls8mscorlib6System2IO6MonoIO4ReadE12Il2CppIntPtrP11Il2CppArrayiiPi
_Ak:_glBindVertexArray__wrapper
qdg:_DSA_Create_m3450041777
Vma:__ZN8Material8TransferI14SafeBinaryReadEEvRT_
lDh:_Debug_LogWarningFormat_m79553173
wob:__ZN12CubemapArray17UploadToGfxDeviceEv
JIi:_ScrollRect_AdjustBounds_m1033723448
Wog:_UInt64_System_IConvertible_ToInt32_m930227577
nra:__ZN6prcoreL17RemapGenericFloatI15TexFormatRGHalf17TexFormatRGBAHalfEEvPKNS_9InnerInfoE
qbf:_Enumerator_System_Collections_IEnumerator_Reset_m2200349770_gshared
lWg:_OrdinalComparer__ctor_m2952942058
K_f:_X509Chain_CheckRevocationOnChain_m2441901351
Ndk:__ZN6il2cpp2vm13ManagedObject14QueryInterfaceERK10Il2CppGuidPPv
fmg:_Type_GetMethod_m3650909507
YJ:__ZN11AudioSource4StopEb
Smk:_frexp
mIb:__ZN14SafeBinaryRead21TransferSTLStyleArrayI13dynamic_arrayI10Matrix4x4fLj4EEEEvRT_17TransferMetaFlags
Nxf:_Collection_1_CheckWritable_m732350052_gshared
I2d:_Byte_System_IConvertible_ToDecimal_m1036493607
eha:__Z25GetSplashScreenBackgroundRK5RectTIfE
aca:__ZN14dense_hash_mapIPKcPK4RTTIN11TypeManager23ConstCharPtrHashFunctorENS5_19ConstCharPtrEqualToE13stl_allocatorINSt3__24pairIKS1_S4_EEL18MemLabelIdentifier6ELi16EEEixERSB_
kqd:__ZN13RuntimeStaticI19UnityConnectServiceLb0EE16StaticInitializeEPv
t4i:_DefaultComparer_Compare_m1247109616_gshared
T6g:_ResourceManager__ctor_m498829021
CNa:__ZN18GlslGpuProgramGLESD2Ev
cbb:__ZN13RenderTexture14SetVolumeDepthEi
pQg:__Z88RuntimeInvoker_Int32_t2071877448_UIVertex_t1204258818_UIVertex_t1204258818_RuntimeObjectPFvvEPK10MethodInfoPvPS4_
C9f:_SerializationCallbacks__ctor_m722356782
Jxc:__ZN10Matrix4x4f8TransferI8JSONReadEEvRT_
iXc:__ZThn4_N16PhysicsManager2D9PostSolveEP9b2ContactPK16b2ContactImpulse
V2:__ZN17PersistentManager18ReadObjectThreadedEi
REa:__ZN25TransformFeedbackSkinning31CleanupTransformFeedbackShadersEv
gek:__ZN6il2cpp6icalls8mscorlib6System7Runtime16CompilerServices14RuntimeHelpers15InitializeArrayEP11Il2CppArray12Il2CppIntPtr
TYa:__Z22scripting_object_unbox18ScriptingObjectPtr
c2c:__ZNK20TextRenderingPrivate8FontImpl19GetCharacterAdvanceEjijfPj
Vjk:__ZN6il2cpp6icalls8mscorlib4Mono8Security12Cryptography18KeyPairPersistence16_IsUserProtectedEP12Il2CppString
kWf:_DefaultUriParser__ctor_m4218024811
NZg:_DerivedType_GetField_m3960169619
Yje:_Decimal_System_IConvertible_ToInt16_m3159038792_AdjustorThunk
Qtb:__ZN10VertexData8TransferI18StreamedBinaryReadILb0EEEEvRT_
v6e:_PKCS12_GetExistingParameters_m2413397265
HBj:_Nullable_1_get_Value_m1743067844_gshared
obb:__ZN14PreloadManager16UpdatePreloadingEv
byk:_emscripten_glGenVertexArrays__wrapper
CBc:__ZN11NoiseModule8TransferI14SafeBinaryReadEEvRT_
ibk:__ZN14dense_hash_mapI10KeyWrapperIPK19Il2CppGenericMethodEP10MethodInfoN6il2cpp8metadata23Il2CppGenericMethodHashENS4_14EqualsComparerINS8_26Il2CppGenericMethodCompareEEENSt3__29allocatorINSD_4pairIKS4_S6_EEEEEC2EjRKS9_RKSC_
tgb:__ZNK21UnityDefaultAllocatorI17LowLevelAllocatorE8ContainsEPKv
di:_emscripten_get_main_loop_timing
RQe:_DirectoryInfo__ctor_m3750996792
ZMd:_BaseMeshEffect_ModifyMesh_m2134816219
Ksb:__ZN24GenerateTypeTreeTransfer21TransferSTLStyleArrayINSt3__26vectorIN15QualitySettings14QualitySettingENS1_9allocatorIS4_EEEEEEvRT_17TransferMetaFlags
aGe:_Array_InternalArray__get_Item_TisAnimatorClipInfo_t3905751349_m2163447872_gshared
ozb:__ZNSt3__26vectorI9InputAxisNS_9allocatorIS1_EEE6resizeEj
XZa:__ZN13BatchRendererC2ER15RenderLoopStatsRK15RenderNodeQueuebbb
Qzd:_SecurityElement_IsValidAttributeValue_m483287146
YYb:__ZNK2UI13RectTransform22GetTypeVirtualInternalEv
eBc:__ZNK15PolynomialCurve18EvaluateIntegratedERKN4math7_float4E
Cp:getTempRet0
lAc:__ZN26SizeModulePropertyBindings13GetFloatValueERK14ParticleSystemi
zVd:_Image_AddQuad_m1603575622
GKf:_PrivateKeyInfo_RemoveLeadingZero_m3396807048
W$j:__ZN6il2cpp6icalls8mscorlib6System9ThreadingL21lookup_cached_cultureEP12Il2CppThreadi
x4a:__ZN18DeferredRenderLoopD2Ev
Fja:__ZNK16TypeTreeIterator4NameEv
U5:__ZN15FileSystemEntry3SetEPKc
cQj:_il2cpp_method_has_attribute
gud:_MACTripleDES__ctor_m884945242
yL:__ZN20SoundChannelInstance15ParameterBuffer5ApplyEPN4FMOD7ChannelE
$1c:__ZN20TextRenderingPrivate19NativeTextGenerator9InsertTabEv
o9g:_Rect_set_y_m4294916608
snd:__ZN11UnityEngine15PlatformWrapper24GetRuntimePlatformStringEv
Oi:_glIsEnabled
tck:__ZNSt3__212basic_stringIDsNS_11char_traitsIDsEENS_9allocatorIDsEEE9push_backEDs
YDb:__Z25scripting_class_get_image17ScriptingClassPtr
iLc:__ZN8UVModuleD0Ev
Si:_emscripten_glDrawElementsInstanced
Kx:__ZN26AnimatorControllerPlayable27SetupStateMachineBehavioursEv
gJf:_ARC4Managed_Dispose_m4102232694
AJf:_HMAC_Initialize_m3052649104
rxa:__ZN18JobBatchDispatcherD2Ev
TYb:__ZN9Transform17MainThreadCleanupEv
qgk:_GC_clear_hdr_marks
Wvk:_glScissor__wrapper
WBk:_emscripten_glCreateShader__wrapper
aad:_cff_fd_select_get
V0h:__ZL73CompilationRelaxationsAttribute_t238494011_CustomAttributesCacheGeneratorP21CustomAttributesCache
Txd:_SHA512Managed_processBlock_m3220567420
zVf:_NameObjectCollectionBase_get_Keys_m446053925
aj:_emscripten_glGetShaderiv
AM:__ZN4FMOD6System10getVersionEPj
qRe:_FileLoadException_GetObjectData_m2047020314
Gwe:_Array_InternalArray__IndexOf_TisSByte_t454417549_m1427585061_gshared
Kfd:__ZN2UI6Canvas23VirtualRedirectTransferER24GenerateTypeTreeTransfer
rce:_Decimal_u64_m3991988111
nnj:_Predicate_1_BeginInvoke_m2959352225_gshared
CPh:_Dictionary_2_CopyToCheck_m2147716750_gshared
Kkj:_X509Certificate_Parse_m1764345628
J0c:__ZN13TextRendering4Font13AwakeFromLoadE17AwakeFromLoadMode
NBa:__ZN9GfxDevice21ReleaseSharedMeshDataEP14SharedMeshData
dAb:__ZNSt3__27__sort5IRNS_6__lessINS_4pairIPKN5Unity4TypeE7Hash128EES8_EEPS8_EEjT0_SC_SC_SC_SC_T_
Lae:_Enumerator_Reset_m466659019
xfk:_GC_unreachable_finalize_mark_proc
VNg:__Z70RuntimeInvoker_Single_t2076509932_Int32_t2071877448_Single_t2076509932PFvvEPK10MethodInfoPvPS4_
ik:_emscripten_glGetProgramiv
DTi:_ConstructionCall_GetObjectData_m3974358557
Qjc:__Z43RectTransform_CUSTOM_INTERNAL_get_anchorMaxP12Il2CppObjectP13Vector2fIcall
Ctg:__Z50RuntimeInvoker_Void_t1841601450_Single_t2076509932PFvvEPK10MethodInfoPvPS4_
cje:_DateTimeOffset_get_DateTime_m229084964_AdjustorThunk
Ima:__ZN8Material28UpdateHashesOnPropertyChangeEN9ShaderLab16FastPropertyNameE
Akc:__Z53Register_UnityEngine_SortingLayer_GetLayerValueFromIDv
Q7d:_CaseInsensitiveComparer_Compare_m1192858479
mGb:__Z18Transfer_BlittableI14SafeBinaryReadLb1E8Vector4fEvRK29SerializationCommandArgumentsR31RuntimeSerializationCommandInfo
UZd:_LayoutRebuilder_Clear_m2390054824
WDa:__ZN13GfxDeviceGLES20SetComputeBufferDataE15ComputeBufferIDPKvjj
ZXg:_Default_SelectMethod_m622251293
GO:__ZN11AudioSource12AddToManagerEv
Gs:__ZN8Animator23VirtualRedirectTransferER19StreamedBinaryWriteILb0EE
oz:__ZN11UnityEngine9Animation32CreateAnimatorGenericBindingsOptERKNS0_20AnimationSetBindingsER9TransformPKN7mecanim9animation14AvatarConstantEPKNS0_21AvatarBindingConstantEbRNS6_6memory9AllocatorER8Animator
Y3j:__ZN6il2cpp2vm5Image13ClassFromNameEPK11Il2CppImagePKcS6_
Lrk:dynCall_vdddddd
$Vb:__ZN24GenerateTypeTreeTransfer21TransferSTLStyleArrayINSt3__26vectorIN9ShaderLab14SerializedPassENS1_9allocatorIS4_EEEEEEvRT_17TransferMetaFlags
P1:__ZL32MarkLevelGameManagerDependenciesR27GarbageCollectorThreadState
bEa:__ZNK13GfxDeviceGLES26HasActiveRandomWriteTargetEv
fsd:__ZN20UnityWebRequestProtoI19TransportJavaScript16AtomicRefCounter14RedirectHelper14ResponseHelper15DownloadHandler13UploadHandler12HeaderHelper14AsyncOperationE5BeginEv
Nwk:_glGetActiveUniformsiv__wrapper
xkc:__Z43Register_UnityEngine_Material_EnableKeywordv
Z3:__ZN13MonoBehaviour19SetupScriptingCacheE17ScriptingClassPtrP10MonoScript
Jr:__Z20AnimationEventToMonoRK14AnimationEventR18MonoAnimationEvent
ZHh:_ShimEnumerator_get_Current_m3610131784_gshared
bui:__ZL74UnityEventBase_t828812576_CustomAttributesCacheGenerator_m_PersistentCallsP21CustomAttributesCache
Vaa:__ZZN15DirectorManager15InitializeClassEvEN52PreLateUpdateDirectorUpdateAnimationBeginRegistrator7ForwardEv
X1j:__ZN6il2cpp2vm13LivenessState18ShouldProcessValueEP12Il2CppObjectP11Il2CppClass
U_g:_EnumBuilder_GetElementType_m1228393631
Wjh:_PlayableHandle_GetInputCountInternal_m2692879798
xVb:__ZNSt3__26vectorIN9ShaderLab14SerializedPassENS_9allocatorIS2_EEE8__appendEj
PUb:__ZNSt3__26vectorIN9ShaderLab20SerializedSubProgram13BufferBindingENS_9allocatorIS3_EEEC2INS_11__wrap_iterIPS3_EEEET_SB_RKS5_PNS_9enable_ifIXaasr21__is_forward_iteratorISB_EE5valuesr16is_constructibleIS3_NS_15iterator_traitsISB_E9referenceEEE5valueEvE4typeE
XSc:__ZN12b2WheelJoint24SolveVelocityConstraintsERK12b2SolverData
bOg:__Z133RuntimeInvoker_RuntimeObject_Vector2_t2243707579_Vector2_t2243707579_Single_t2076509932_Int32_t2071877448_RuntimeObject_RuntimeObjectPFvvEPK10MethodInfoPvPS4_
Qpb:__ZN9Texture2D23VirtualRedirectTransferER18StreamedBinaryReadILb0EE
STc:__ZN10Collider2D8TransferI24GenerateTypeTreeTransferEEvRT_
Fme:_Double_System_IConvertible_ToUInt16_m286326038_AdjustorThunk
M7f:_TypeInfo__ctor_m1475908211
ejb:__ZNSt3__26__treeINS_12__value_typeIN4core12basic_stringIcNS2_20StringStorageDefaultIcEEEEjEENS_19__map_value_compareIS6_S7_NS_4lessIS6_EELb1EEE13stl_allocatorIS7_L18MemLabelIdentifier6ELi16EEE7destroyEPNS_11__tree_nodeIS7_PvEE
F4:__ZN16ScriptingManager27NativeTypeForScriptingClassE17ScriptingClassPtr
L_f:_X509Chain_WrapUp_m1072032285
emj:_X509CertificateEnumerator_System_Collections_IEnumerator_MoveNext_m1448966539
c7c:_get_sfnt_table
mCj:_GameController_eliminarEnemigo_m1669800010
Nsf:_Collection_1_IsSynchronized_m3261594010_gshared
edh:_GUIStyle_GetNumCharactersThatFitWithinWidth_m3760066083
IJd:_PointerEventData_set_pressPosition_m2094137883
_cg:_DES_get_Key_m2584608215
L5a:__ZL22ScheduleSceneNodesJobsP25ScheduleSceneNodesJobDataj
Qk:_emscripten_set_canvas_size
i9d:_Hashtable__ctor_m741952536
fVb:__ZNSt3__26vectorIN9ShaderLab20SerializedSubProgramENS_9allocatorIS2_EEE8__appendEj
D_:__ZN20DynamicHeapAllocatorI17LowLevelAllocatorE8AllocateEji
vld:__ZN11UnityEngine9Analytics15UserCustomEvent12ToJsonStringER9JSONWrite
x_a:__ZN20DynamicPropertySheet15SetVectorQueuedERKN9ShaderLab16FastPropertyNameERK8Vector4fN19ShaderPropertySheet8SetFlagsE
qDf:_ReadOnlyCollection_1_System_Collections_IEnumerable_GetEnumerator_m4248982967_gshared
pA:__ZN7mecanim9animation22EvaluateAvatarRetargetEPKNS0_14AvatarConstantEPKNS0_11AvatarInputEPNS0_12AvatarOutputEPNS0_12AvatarMemoryEPNS0_15AvatarWorkspaceEb
Jmb:__ZN14RenderSettings23VirtualRedirectTransferER19StreamedBinaryWriteILb0EE
Xtc:__ZL26Transfer_SimpleNativeClassI9JSONWrite10RectOffsetLb0EEvRK29SerializationCommandArgumentsR31RuntimeSerializationCommandInfo
Ild:__ZN21UnityAnalyticsManager23VirtualRedirectTransferER24GenerateTypeTreeTransfer
oHa:__ZN17GenericDynamicVBO10AllocateVBEjR21DynamicVBOChunkHandle
off:_List_1_get_Item_m1547593893_gshared
CQe:_Path_GetPathRoot_m1269357080
x5j:__ZN30dense_hashtable_const_iteratorI10KeyWrapperIP18Il2CppGenericClassES3_N6il2cpp8metadata22Il2CppGenericClassHashEN14dense_hash_setIS3_S6_NS3_14EqualsComparerINS5_25Il2CppGenericClassCompareEEENSt3__29allocatorIS3_EEE8IdentityESA_SD_EppEv
ZHd:_EventSystem_SetSelectedGameObject_m2211816110
nl:_glMapBufferRange
Ipb:__ZN9Texture2D8TransferI18StreamedBinaryReadILb0EEEEvRT_
nhc:__Z31Input_CUSTOM_GetMouseButtonDowni
qjc:__Z75Register_UnityEngine_Playables_PlayableHandle_INTERNAL_CALL_IsValidInternalv
x6b:__ZN13PlayableGraph4PlayEv
rYa:__ZNK9Transform16GetLocalPositionEv
Aya:__ZN13LoadOperation19IntegrateTimeSlicedEi
sUi:_ArrayReadOnlyList_1_get_Item_m176001975_gshared
a7e:_X501__cctor_m3795360380
mEa:__ZN13GfxDeviceGLES22DispatchComputeProgramE12ObjectHandleI18ComputeProgram_TagPvE15ComputeBufferIDj
Cdh:_GUIStyle_set_contentOffset_m2138084868
Rsf:_Collection_1_System_Collections_ICollection_CopyTo_m4193844941_gshared
dfe:_Convert_ToInt32_m2297793940
Iwa:__Z17TransformAABBSlowRK4AABBRK10Matrix4x4fRS_
Dqb:__ZN15SerializeTraitsI13dynamic_arrayI7Hash128Lj8EEE19ResizeSTLStyleArrayERS2_i18MemLabelIdentifier
LYj:__ZN13Il2CppHashMapINSt3__24pairIPK9FieldInfoP11Il2CppClassEEj17ReflectionMapHashIS7_ENS0_8equal_toIS7_EENS0_9allocatorINS1_IK10KeyWrapperIS7_EjEEEEEC2EjRKS9_RKSB_
RTb:__ZN9ShaderLab21SerializedShaderState8TransferI14SafeBinaryReadEEvRT_
Xok:_ftruncate
Swd:_RSAPKCS1SignatureFormatter_SetKey_m2365816458
Zad:_cf2_stack_pushInt
Lhg:_CompressedStack__ctor_m276924800
mJd:_ExecuteEvents_get_cancelHandler_m1964324668
Qna:__ZN15SerializeTraitsINSt3__24pairIN4core12basic_stringIcNS2_20StringStorageDefaultIcEEEES6_EEE8TransferI24GenerateTypeTreeTransferEEvRS7_RT_
dgh:_Matrix4x4__ctor_m2771358574_AdjustorThunk
tyk:b81
syk:b80
tLa:__ZN7ApiGLES19CreateSparseTextureEjj14GraphicsFormatiiiiRiS1_S1_
j5:__ZN18ResourceImageGroup7CleanupEv
xyk:b85
wyk:b84
zyk:b87
yyk:b86
o4b:__ZN13ProduceHelperI4MeshLb0EE7ProduceE18MemLabelIdentifier18ObjectCreationMode
EKf:_PrivateKeyInfo_Decode_m1053025782
d6e:_PKCS12_Decrypt_m2457743414
vnb:__ZN8Playable19SetOutputConnectionEPS_i
sGj:__ZN15dense_hashtableINSt3__24pairIK10KeyWrapperIPK11Il2CppClassEPKcEES6_N6il2cpp5utils11PointerHashIS3_EEN14dense_hash_mapIS6_S9_SE_NS6_14EqualsComparerINS0_8equal_toIS5_EEEENS0_9allocatorISA_EEE9SelectKeyESJ_SL_EC2ERKSO_j
am:_glDeleteShader
voe:_Exception_GetType_m3898489832
ira:__ZN6prcoreL17RemapGenericFloatI15TexFormatRGHalf16TexFormatRGFloatEEvPKNS_9InnerInfoE
Spf:_Stack_1_Peek_m1548778538_gshared
b5i:_Comparer_1__cctor_m3112251759_gshared
nKi:_Shadow_set_effectColor_m3110056844
Sih:_Physics2D_GetColliderFromInstanceID_m95920619
Dcc:__Z27scripting_add_internal_callPKcPKv
kAe:_Array_InternalArray__Insert_TisUriScheme_t1876590943_m2728325409_gshared
vYj:__ZN13Il2CppHashMapINSt3__24pairIPK9EventInfoP11Il2CppClassEEj17ReflectionMapHashIS7_ENS0_8equal_toIS7_EENS0_9allocatorINS1_IK10KeyWrapperIS7_EjEEEEEC2EjRKS9_RKSB_
b6j:__GLOBAL__sub_I_GarbageCollector_cpp
rmj:_X509Store_CheckStore_m1027496478
Xs:__ZN26AnimatorControllerPlayable18SetLayerAutoWeightEv
Rb:invoke_vffff
xpk:__ZNSt3__212basic_stringIcNS_11char_traitsIcEENS_9allocatorIcEEEC2ERKS5_jjRKS4_
nEd:_String_Contains_m4017059963
Z3i:_DefaultComparer_Compare_m1606207039_gshared
Xhd:__ZN2UI14CanvasRenderer12SyncMaterialENS0_8SyncFlagE
Ijk:__ZN6il2cpp2vm9Parameter30GetDefaultParameterValueObjectEPK10MethodInfoPK13ParameterInfoPb
G_b:__ZN15dense_hashtableINSt3__24pairIKN4core12basic_stringIcNS2_20StringStorageDefaultIcEEEE10vector_setI4PPtrI11SpriteAtlasENS0_4lessISB_EE13stl_allocatorISB_L18MemLabelIdentifier79ELi16EEEEES6_20StringHash32FunctionIS6_EN14dense_hash_mapIS6_SH_SK_NS0_8equal_toIS6_EESE_ISI_LSF_79ELi16EEE9SelectKeyESN_SO_E12maybe_shrinkEv
$Ae:_Array_InternalArray__set_Item_TisLabelData_t3712112744_m2253365137_gshared
dhh:_MonoBehaviour_Invoke_m666563676
TUe:_StringReader__ctor_m643998729
fXf:_IPv6Address_TryParse_m2220524278
V6c:_UNITY_tt_face_done_kern
xRi:_Context_get_DefaultContext_m2211922324
Aqc:__Z59GUIStyle_CUSTOM_Internal_GetNumCharactersThatFitWithinWidth13Il2Cpp_IntPtrP12Il2CppStringf
$vb:__ZN12BoneWeights48TransferI24GenerateTypeTreeTransferEEvRT_
VKf:_RSAManaged_GetPaddedValue_m2972141669
zG:__Z62AnimationPlayableOutput_CUSTOM_INTERNAL_CALL_InternalSetTargetR15HPlayableOutputP12Il2CppObject
rga:__Z19scripting_gc_enablev
Nrd:__ZN20UnityWebRequestProtoI19TransportJavaScript16AtomicRefCounter14RedirectHelper14ResponseHelper15DownloadHandler13UploadHandler12HeaderHelper14AsyncOperationE9DoRequestEv
aUa:__ZZ23InitPlayerLoopCallbacksvEN41InitializationPlayerUpdateTimeRegistrator7ForwardEv
_8i:_AnchorInfo__ctor_m617409099
Rjd:__Z55Register_UnityEngine_CanvasRenderer_DisableRectClippingv
e3f:_Interval_CompareTo_m2909556284_AdjustorThunk
uvb:__ZN14SafeBinaryRead21TransferSTLStyleArrayI13dynamic_arrayI11ColorRGBA32Lj4EEEEvRT_17TransferMetaFlags
Swh:_AudioClip_get_length_m3881628918
X1f:_Interpreter_GetLastDefined_m2450713313
p8i:_Parser_ParseAssertionType_m3316669790
BXb:__ZN9ShaderLab7Program27CreateFromSerializedProgramERKNS_17SerializedProgramE10ShaderTypeiP16PropertyNamesSetPK6Shader
QJi:_Selectable_get_isPointerDown_m774209881
NYb:__ZNSt3__27__sort4IRNS_6__lessIN4core12basic_stringIcNS2_20StringStorageDefaultIcEEEES6_EEPS6_EEjT0_SA_SA_SA_T_
usk:dynCall_viiiifii
ZWj:__ZN6il2cpp2gc19AppendOnlyGCHashMapINSt3__24pairIPK11Il2CppImageP11Il2CppClassEEP22Il2CppReflectionModule17ReflectionMapHashIS9_ENS2_8equal_toIS9_EEEC2Ev
S2:__Z20GetPersistentManagerv
ked:_UNITY_TT_Set_Var_Design
Jda:__ZN21SystemInfoStringCache16StaticInitializeEPv
qMf:_TlsStream__ctor_m4117943603
MTj:__ZN15dense_hashtableINSt3__24pairIK10KeyWrapperIPK10Il2CppTypeEjEES6_N6il2cpp8metadata14Il2CppTypeHashEN14dense_hash_mapIS6_jSB_NS6_14EqualsComparerINSA_26Il2CppTypeEqualityComparerEEENS0_9allocatorIS8_EEE9SelectKeyESF_SH_E12maybe_shrinkEv
FLi:_Text_FontTextureChanged_m4236993972
Bak:__ZN6il2cpp2gc16GarbageCollector23MakeDescriptorForObjectEPji
s6g:_ParameterModifier_t1820634920_marshal_pinvoke
_Cb:__ZNK13MonoBehaviour7GetNameEv
Ssa:__ZN19ScriptingInvocation28AdjustArgumentsToMatchMethodEv
J5j:__ZN15dense_hashtableI10KeyWrapperIP18Il2CppGenericClassES3_N6il2cpp8metadata22Il2CppGenericClassHashEN14dense_hash_setIS3_S6_NS3_14EqualsComparerINS5_25Il2CppGenericClassCompareEEENSt3__29allocatorIS3_EEE8IdentityESA_SD_E6insertERKS3_
FQ:__Z15_CheckFMODError11FMOD_RESULTPKciS1_
Zlb:__Z20RenderMultipleMeshesRK15RenderNodeQueueRK18RenderMultipleData17ShaderChannelMask
URj:__ZN6il2cpp2vm4Type19GetGenericParameterEPK10Il2CppType
OEc:__ZN11ShapeModule5ResetEv
rjd:__Z51Register_UnityEngine_CanvasGroup_get_blocksRaycastsv
s2i:_InternalEnumerator_1_get_Current_m2826780083_gshared
gCk:b119
KRi:_Context_UnregisterDynamicProperty_m4064851633
Gxc:__ZN8JSONRead21TransferSTLStyleArrayI13dynamic_arrayI11ColorRGBA32Lj4EEEEvRT_18MemLabelIdentifier17TransferMetaFlags
gVj:__ZNK15dense_hashtableINSt3__24pairIK10KeyWrapperINS1_IPK11Il2CppImageP11Il2CppClassEEEjEES9_17ReflectionMapHashIS8_EN14dense_hash_mapIS9_jSD_NS9_14EqualsComparerINS0_8equal_toIS8_EEEENS0_9allocatorISB_EEE9SelectKeyESI_SK_E3endEv
Hd:_glBeginQuery
NWg:_Assembly_GetCustomAttributes_m95309865
z8g:_GUILayoutUtility_INTERNAL_CALL_Internal_GetWindowRect_m3236664463
X_c:__ZN10Effector2D25CheckEffectorColliderMaskEP10Collider2DS1_
VVa:__ZN6Camera12RenderStereoENS_10RenderFlagE8CullFlagPNS_24PerformEyeRenderFunctionE
Iea:__ZN20LocalFileSystemPosix10ToAbsoluteEPKc
Plb:__ZN20TierGraphicsSettings8TransferI19StreamedBinaryWriteILb0EEEEvRT_
One:_Enum_ToObject_m275924358
Km:f0
W5d:_ArrayListWrapper_set_Capacity_m2792463350
Nnk:_getcwd
Pfg:_StringBuilder_Append_m1128243247
XXc:__ZN16b2CapsuleContact6CreateEP9b2FixtureiS1_iP16b2BlockAllocator
Rrh:_AnimatorControllerPlayable_GetBool_m3606320557
cgb:__ZN25ThreadsafeLinearAllocatorD2Ev
Tge:_DateTime_get_Year_m1985210972
Qga:__Z21SendMessageToEveryoneRK17MessageIdentifier11MessageData
S8:__ZN21BillboardBatchManager16StaticInitializeEPv
Cbh:_Object_get_name_m2079638459
M$:__ZN12_GLOBAL__N_138ArchiveRedirectFileSystemStaticDestroyEPv
moe:_EventHandler_Invoke_m1137722757
tob:__ZN12CubemapArray34UpdateFileTextureUploadInstructionEP26FileAssetUploadInstructionj
pYe:_MonoType_IsSubclassOf_m2211166238
nuf:_Collection_1_System_Collections_ICollection_CopyTo_m2859266050_gshared
sLa:__Z23CreateSparseTextureGLES9TextureIDii14GraphicsFormati
Agk:_GC_continue_reclaim
yPe:_InvalidCastException__ctor_m2730571470
q0f:_X509ChainElementCollection_System_Collections_IEnumerable_GetEnumerator_m2559704689
GZf:_PublicKey_get_Key_m126090744
_$f:_X509ChainPolicy_Reset_m430244129
U2c:__ZNSt3__23mapIN20TextRenderingPrivate7FontRefEP11FT_FaceRec_NS_4lessIS2_EENS_9allocatorINS_4pairIKS2_S4_EEEEEixERS9_
XPa:__ZN17ArchiveFileSystem10AddStorageEP20ArchiveStorageReader
BBh:_Color_Equals_m661618137
xEc:__ZN9SubModule8TransferI19StreamedBinaryWriteILb0EEEEvRT_
PAh:_CanvasRenderer_SplitIndicesStreamsInternal_m817541557
DRc:__ZNK12b2MotorJoint16GetReactionForceEf
kSh:_EqualityComparer_1_System_Collections_IEqualityComparer_GetHashCode_m1203798961_gshared
GEj:__ZN6il2cpp2vm5Class15GetEnumBaseTypeEP11Il2CppClass
apb:__ZNK9Texture2D16GetNpotTexelSizeEv
lEi:_Mask_get_rectTransform_m3304369086
Zfj:_TooltipAttribute__ctor_m2640804852
UIc:__Z20EvaluateSlowThreadedRK11MinMaxCurveRNS_5CacheERKN4math7_float4ES7_
tHa:__ZN9GfxDevice22GetDefaultVertexBufferE26GfxDefaultVertexBufferTypej
Psf:_Collection_1__ctor_m3903788797_gshared
NCf:_ReadOnlyCollection_1_System_Collections_ICollection_CopyTo_m1129689124_gshared
dok:___fseeko_unlocked
Jyk:_glGetActiveUniform__wrapper
Xnk:_sscanf
Ovb:__ZN14SafeBinaryRead21TransferSTLStyleArrayINSt3__26vectorI17BlendShapeChannelNS1_9allocatorIS3_EEEEEEvRT_17TransferMetaFlags
epa:__Z17BeginSplashScreenv
MWb:__ZN9ShaderLab16SerializedShader8TransferI19StreamedBinaryWriteILb0EEEEvRT_
Dng:_UInt32_Parse_m2400360707
HC:__ZN7mecanim9animation18CreateAvatarMemoryEPKNS0_14AvatarConstantERNS_6memory9AllocatorE
Ebe:_Stack_Pop_m3788808882
SFh:_Enumerator_VerifyCurrent_m4246196125_AdjustorThunk
Die:_DateTime_op_Equality_m1867073872
zB:__ZN7mecanim8skeleton16SkeletonPoseCopyIN4math4trsXENS2_7affineXEEEvPKNS0_13SkeletonPoseTIT_EEPNS5_IT0_EE
_Ga:__ZN18GfxFramebufferGLES18GetFramebufferNameERK20GfxRenderTargetSetup
p2j:__ZN6il2cpp6icalls8mscorlib6System2IO6MonoIO11GetFileTypeE12Il2CppIntPtrPi
apc:__Z30Event_Get_Custom_PropCharacterP12Il2CppObject
uaa:__ZN13PlayableGraph27SchedulePlayableDestructionERK9HPlayable
Qvk:_glGetFramebufferAttachmentParameteriv__wrapper
Wqd:__Z13RegisterClassI20UnityConnectSettingsEvv
iHb:__Z22scripting_array_length17ScriptingArrayPtr
Mzd:_SecurityElement_GetAttribute_m4288291176
arj:_IndexedSet_1_get_Count_m2839545138_gshared
hwa:__ZN14SafeBinaryRead20TransferTypelessDataEjPvi
W6g:_RenderPipelineManager_get_currentPipeline_m679160301
Y0h:__ZL66StringFreezingAttribute_t2691375565_CustomAttributesCacheGeneratorP21CustomAttributesCache
Psc:__ZN9rapidjson13GenericReaderINS_4UTF8IcEES2_13JSONAllocatorE10ParseFalseILj1ENS_25GenericInsituStringStreamIS2_EENS_15GenericDocumentIS2_S3_S3_EEEEvRT0_RT1_
Eph:_AnimationClipPlayable_INTERNAL_CALL_SetApplyFootIKInternal_m4116451205
YP:__ZN13dynamic_arrayI12SoundChannelLj4EE9push_backERKS0_
A0:__Z19GetActiveColorSpacev
LDc:__ZN17SizeBySpeedModule8TransferI18StreamedBinaryReadILb0EEEEvRT_
DSh:_EqualityComparer_1__cctor_m1672307556_gshared
f6f:_SoapTypeAttribute_get_IsInteropXmlElement_m2941294827
Syb:__ZN14SpriteRenderer18UpdateCachedSpriteEv
_bf:_Enumerator_System_Collections_IEnumerator_get_Current_m3542273247_gshared
l4d:_Char_System_IConvertible_ToUInt32_m1557991717_AdjustorThunk
Teg:_Encoding_get_UTF8Unmarked_m628720656
jIe:_NumberFormatter_RoundBits_m1545255255
h1:__Z6StrCmpPKcS0_
jYb:__Z21CheckGpuProgramUsable20ShaderGpuProgramType
IXg:_Binder__cctor_m3736115807
T9j:__ZN6il2cpp2os9Directory20GetFileSystemEntriesERKNSt3__212basic_stringIcNS2_11char_traitsIcEENS2_9allocatorIcEEEESA_iiPi
lQg:__Z84RuntimeInvoker_Int32_t2071877448_Color32_t874517518_Color32_t874517518_RuntimeObjectPFvvEPK10MethodInfoPvPS4_
MPh:_Dictionary_2_OnDeserialization_m2160537783_gshared
T1c:__ZN20TextRenderingPrivate19NativeTextGenerator5SetupEv
UAb:__ZN12AspectRatios8TransferI18StreamedBinaryReadILb0EEEEvRT_
P5b:__ZN10GameObject14CopyPropertiesERS_
LHc:__ZN11ForceModule6UpdateERK27ParticleSystemReadOnlyStateRK19ParticleSystemStateR23ParticleSystemParticlesjjRKN4math7_float4E
drc:__Z44Register_UnityEngine_GUIStyle_get_fixedWidthv
lwd:_RSACryptoServiceProvider_Common_m2581564813
Skj:_X509CertificateEnumerator_MoveNext_m4060814498
yth:_AnimatorControllerPlayable_INTERNAL_CALL_GetCurrentAnimatorClipInfoInternal_m3360626147
TSe:_MemoryStream_CheckIfClosedThrowDisposed_m2253054610
QUi:_ArrayReadOnlyList_1_GetEnumerator_m634288642_gshared
Lbb:__ZNK13ScreenManager12IsFullScreenEv
yok:_rand
rwk:_emscripten_glFramebufferRenderbuffer__wrapper
tLg:__Z72RuntimeInvoker_Boolean_t3825574718_Ray_t2469606224_SingleU26_t4173844468PFvvEPK10MethodInfoPvPS4_
Pak:__ZN6il2cpp5utils9PathUtils7CombineIcEENSt3__212basic_stringIT_NS3_11char_traitsIS5_EENS3_9allocatorIS5_EEEERKNS0_10StringViewIS5_EERKSA_
YHb:__ZN14SafeBinaryRead21TransferSTLStyleArrayINSt3__26vectorI17AnimationCurveTplIfE13stl_allocatorIS4_L18MemLabelIdentifier1ELi16EEEEEEvRT_17TransferMetaFlags
mec:__Z60Register_UnityEngine_AsyncOperation_set_allowSceneActivationv
Y8f:_ObjectManager_RegisterObject_m872610295
r5a:__Z22PrepareOptimizedPlanesPK5PlaneiPKN4math7_float4E
Xmh:_RectOffset_t3387826427_marshal_pinvoke
FSd:_Graphic_SetVerticesDirty_m1607014370
eZ:__ZN11UnityEngine15CloudWebService17WebFileDownloaderINS0_20WebRequestRestClientENS0_23WebRequestRestHeaderMapEE10InitializeERKN4core12basic_stringIcNS5_20StringStorageDefaultIcEEEE
Q8:__ZN17UniqueIDGenerator15CreatePureIndexEv
zrc:__Z59Register_UnityEngine_GUIStyle_Internal_GetCursorFlashOffsetv
rs:__ZN11UnityEngine9Animation28GenericAnimationBindingCache15DidReloadDomainEv
o8e:_AppDomain_InternalGetProcessGuid_m1278588156
UXd:_InputField_MoveRight_m386206014
Kug:__Z116RuntimeInvoker_Boolean_t3825574718_RuntimeObject_Int32_t2071877448_RuntimeObject_Int32_t2071877448_Int32_t2071877448PFvvEPK10MethodInfoPvPS4_
UPe:_BinaryReader_ReadBoolean_m2892291883
WDj:__ZN15dense_hashtableINSt3__24pairIK10KeyWrapperIPK22Il2CppGenericParameterEP11Il2CppClassEES6_N6il2cpp5utils11PointerHashIS4_EEN14dense_hash_mapIS6_S9_SE_NS6_14EqualsComparerINS0_8equal_toIS5_EEEENS0_9allocatorISA_EEE9SelectKeyESJ_SL_E14squash_deletedEv
GBb:__ZNSt3__26__treeINS_12__value_typeIN4core12basic_stringIcNS2_20StringStorageDefaultIcEEEE4PPtrI6ObjectEEENS_19__map_value_compareIS6_SA_NS_4lessIS6_EELb1EEE13stl_allocatorISA_L18MemLabelIdentifier51ELi16EEE7destroyEPNS_11__tree_nodeISA_PvEE
NRc:__ZNK12b2MouseJoint17GetReactionTorqueEf
gnc:__Z14GUIClipTextureP9Texture2DPhiiii
oQf:_TlsServerCertificate_validateCertificates_m1988583701
Q0:__ZNK9Transform18TransformDirectionERK8Vector3f
k9g:_GUILayoutEntry_SetHorizontal_m1828181654
wBk:_emscripten_glClearStencil__wrapper
gKj:__ZN15dense_hashtableINSt3__24pairIK10KeyWrapperIPK11Il2CppClassEPKcEES6_N6il2cpp5utils11PointerHashIS3_EEN14dense_hash_mapIS6_S9_SE_NS6_14EqualsComparerINS0_8equal_toIS5_EEEENS0_9allocatorISA_EEE9SelectKeyESJ_SL_E12resize_deltaEjj
iqk:__ZNK10__cxxabiv120__si_class_type_info27has_unambiguous_public_baseEPNS_19__dynamic_cast_infoEPvi
$Lj:__ZN6il2cpp2vm21ThreadPoolCompartment13QueueWorkItemEP17Il2CppAsyncResult
_tk:_glTexSubImage3D__wrapper
s1f:_FactoryCache_Add_m2602974721
sHa:__Z30AddDefaultStreamsToMeshBuffersR9GfxDeviceR11MeshBuffersj17ShaderChannelMaskS3_
O7:__ZL16GetInterfaceImpl18UnityInterfaceGUID
eKe:_RegionInfo_construct_internal_region_from_name_m3316088619
ZEj:__ZN6il2cpp2vmL17SetupFieldOffsetsENS0_15FieldLayoutKindEP11Il2CppClassjRKNSt3__26vectorIjNS4_9allocatorIjEEEE
Ndf:_List_1_System_Collections_IList_get_Item_m936612973_gshared
Ick:__ZN6il2cpp6icalls8mscorlib6System15MonoCustomAttrs27GetCustomAttributesInternalEP12Il2CppObjectP20Il2CppReflectionTypeb
iyc:__ZN8JSONRead21TransferSTLStyleArrayI13dynamic_arrayI8Vector3fLj4EEEEvRT_18MemLabelIdentifier17TransferMetaFlags
g9f:_ObjectReader_ReadAssembly_m869834280
dsa:__ZN14PreloadManager35WaitForAllAsyncOperationsToCompleteEv
zyf:_Collection_1_IsSynchronized_m971497175_gshared
YId:_ExecuteEvents_Execute_m1617536317
CLi:_Text_get_cachedTextGeneratorForLayout_m1357670532
VK:__ZL31InitializeAudioScriptingClassesv
mYa:__Z14SortGUIByDepthP10GUIElementS0_
SMe:_NumberFormatter_NumberToString_m126384393
Vxk:_emscripten_glVertexAttrib4fv__wrapper
KGc:__Z19UpdateProceduralTplIL27ParticleSystemCurveEvalMode0EEvRK20DualMinMaxPolyCurvesR23ParticleSystemParticlesPfRKN4math7_float4E
STi:_LogicalCallContext__ctor_m3173272863
gC:__ZN12_GLOBAL__N_120ProcessRootMotionMixER33AnimationPlayableEvaluationOutputR35AnimationPlayableEvaluationConstantR32AnimationPlayableEvaluationInputS1_f
bXe:_MonoCustomAttrs__cctor_m2608447972
FMe:_Int32_FindSign_m3803672540
zGh:_Enumerator_System_Collections_IEnumerator_Reset_m70453843_AdjustorThunk
sfa:__ZNK20LocalFileSystemPosix21GetAvailableDiskSpaceEPKcRy
Mda:__ZNSt3__26__treeIiNS_4lessIiEENS_9allocatorIiEEE7destroyEPNS_11__tree_nodeIiPvEE
gMf:_CipherSuite_InitializeCipher_m229247572
$Zf:_X509Certificate2__ctor_m1095336775
$Aa:__ZNK9GfxDevice14GetWorldMatrixEv
J5g:_MonoProperty_GetGetMethod_m1100580870
F7a:__Z19scripting_array_new17ScriptingClassPtrjj
MP:__ZN11SoundHandle13CreateChannelEb
Fyg:__Z90RuntimeInvoker_Void_t1841601450_IntPtr_t_Int32_t2071877448_RuntimeObject_Int32_t2071877448PFvvEPK10MethodInfoPvPS4_
pqb:__ZN14SafeBinaryRead21TransferSTLStyleArrayI13dynamic_arrayI12LightmapDataLj4EEEEvRT_17TransferMetaFlags
I8e:_ArgumentException__ctor_m3312963299
mVb:__ZNSt3__26vectorIN9ShaderLab20SerializedSubProgram16TextureParameterENS_9allocatorIS3_EEE6assignIPS3_EENS_9enable_ifIXaasr21__is_forward_iteratorIT_EE5valuesr16is_constructibleIS3_NS_15iterator_traitsISA_E9referenceEEE5valueEvE4typeESA_SA_
MIj:__ZN13Il2CppHashMapIN6il2cpp5utils13dynamic_arrayIPK10Il2CppTypeLj4EEEPFvvENS0_8metadata19Il2CppSignatureHashENS9_22Il2CppSignatureCompareENSt3__29allocatorINSC_4pairIK10KeyWrapperIS6_ES8_EEEEEC2EjRKSA_RKSB_
Rhc:__Z51Quaternion_CUSTOM_INTERNAL_CALL_Internal_ToEulerRadRK11QuaternionfR8Vector3f
FXj:__ZN15dense_hashtableINSt3__24pairIK10KeyWrapperIPK22Il2CppGenericParameterEPK24MonoGenericParameterInfoEES6_N6il2cpp5utils11PointerHashIS4_EEN14dense_hash_mapIS6_SA_SF_NS6_14EqualsComparerINS0_8equal_toIS5_EEEENS0_9allocatorISB_EEE9SelectKeyESK_SM_E15set_deleted_keyERKSB_
TZb:__ZN6prcoreL11inner_clearILj2EEEvPhjjj
X0f:_X509SubjectKeyIdentifierExtension__ctor_m3887138480
gaf:_Enumerator_System_Collections_IEnumerator_get_Current_m2853089017_AdjustorThunk
YSc:__ZN12b2WheelJoint24SolvePositionConstraintsERK12b2SolverData
Ug:_emscripten_exit_fullscreen
SVd:_InputField_get_mesh_m3276583786
YOi:_GCHandle_Free_m1639542352_AdjustorThunk
F8j:__ZN6il2cpp6icalls8mscorlib6System6String19InternalAllocateStrEi
cyc:__Z29Transfer_Blittable_ArrayFieldI8JSONRead11QuaternionfEvRT_R9ArrayInfoRK23StaticTransferFieldInfo
bfc:__Z45Register_UnityEngine_Camera_get_targetDisplayv
W3b:__ZNK24RendererAnimationBinding15GenerateBindingERKN4core12basic_stringIcNS0_20StringStorageDefaultIcEEEEbRN11UnityEngine9Animation14GenericBindingE
clb:__Z15GetFlareManagerv
v6i:_Enumerator_System_Collections_IEnumerator_get_Current_m1429268283
uAf:_ReadOnlyCollection_1_System_Collections_Generic_ICollectionU3CTU3E_Clear_m388357963_gshared
xmk:___toread
RY:__ZN19CloudServiceHandler10QueueEventEPN11UnityEngine15CloudWebService14CloudEventInfoE
Lqk:___cxa_is_pointer_type
FEd:_String_Concat_m56707527
iC:__ZN7mecanim9animation16EvaluateAvatarDXEPKNS0_14AvatarConstantEPKNS0_11AvatarInputEPNS0_12AvatarMemoryEPNS0_15AvatarWorkspaceEPNS0_12AvatarOutputE
HKa:__ZN4gles20DestroyRenderSurfaceEP7ApiGLESP17RenderSurfaceGLES
faf:_Enumerator_System_Collections_IEnumerator_get_Current_m2853089017_gshared
YFc:__ZN14ParticleSystem16UpdateProceduralER24ParticleSystemUpdateDataR23ParticleSystemParticles
Olc:__Z34Transform_CUSTOM_SetAsFirstSiblingP12Il2CppObject
Doa:__ZN17PersistentManager40GlobalToLocalSerializedFileIndexInternalERK26SerializedObjectIdentifier
fW:__ZN11UnityEngine15CloudWebService17SessionEventQueue14ParseEventDataERKN4core12basic_stringIcNS2_20StringStorageDefaultIcEEEE
IGd:_BaseEventData_get_selectedObject_m3551206992
u$e:_SimpleCollator_CompareOrdinal_m2176988387
$oe:_CCGregorianCalendar_GetYear_m1289900195
QMe:_Int16_ToString_m2592645088
EFa:__ZN13TranslateGLES4InitERK12GraphicsCaps16GfxDeviceLevelGL
_T:__Z60AudioClipPlayable_CUSTOM_INTERNAL_CALL_GetPauseDelayInternalR9HPlayable
Fag:_SerializationInfoEnumerator_Reset_m2206466680
pwk:_emscripten_glGetShaderPrecisionFormat__wrapper
qmd:__Z32CustomEventData_CUSTOM_AddUInt32P12Il2CppObjectP12Il2CppStringj
qvj:_GenericEqualityComparer_1_Equals_m1934771410_gshared
Qjk:__ZN6il2cpp5utils9Exception26FormatInvalidCastExceptionEPK11Il2CppClassS4_
sCb:__ZNSt3__26vectorIN30RuntimeInitializeOnLoadManager15ClassMethodInfoE13stl_allocatorIS2_L18MemLabelIdentifier12ELi16EEE8__appendEj
D1b:__ZN13ProduceHelperI10TagManagerLb0EE7ProduceE18MemLabelIdentifier18ObjectCreationMode
rkk:__ZN6il2cpp2os6Memory12AlignedAllocEjj
iek:__ZN6il2cpp8metadataL7CompareEPK10Il2CppTypeS3_
iZg:_TypeBuilder_get_is_created_m736553860
H7g:_GameObject_set_layer_m2712461877
NKf:_RSAManaged__ctor_m1370411656
lob:__ZN12CubemapArray23VirtualRedirectTransferER17RemapPPtrTransfer
Tbc:__ZL27GetComponentsImplementationILb0ELi0EEbR10GameObjectbRK17CompareParametersRK39GetComponentsImplementation_ReturnValue
mYf:_WebHeaderCollection_GetObjectData_m3940120977
HDb:__ZN9Scripting36IsSystemCollectionsGenericDictionaryE17ScriptingClassPtr
xGi:_Raycast3DCallback_EndInvoke_m3234280377
tPd:_ColorTweenCallback__ctor_m3619686788
O5:__ZL16ReadTypeTreeImplILb0EEbR8TypeTreeRK16TypeTreeIteratorRPKhS6_i
Cjc:__Z28PlayableOutputValidityChecksRK15HPlayableOutput
by:__ZN27AnimationLayerMixerPlayable16SetLayerMaskCopyEjRKN7mecanim6bitsetILj70EEEPKNS0_8skeleton12SkeletonMaskE
MH:__Z104Register_UnityEngine_Animations_AnimatorControllerPlayable_INTERNAL_CALL_GetNextAnimatorClipInfoInternalv
_mb:__ZNK22BuiltinResourceManager21GetResourceInstanceIDEPKN5Unity4TypeERKN4core12basic_stringIcNS4_20StringStorageDefaultIcEEEE
uDa:__ZN9GfxDevice15BeginFrameStatsEv
kgc:__Z42Register_UnityEngine_RectOffset_set_bottomv
e6d:_ArrayListWrapper_IndexOf_m3574835167
ZF:__Z92Register_UnityEngine_Animations_AnimationClipPlayable_INTERNAL_CALL_GetAnimationClipInternalv
N_a:__ZN28LightProbeProxyVolumeContext8CopyFromERKS_
$dh:_GUIUtility_TakeCapture_m3115231813
i7a:__ZN23TransformChangeDispatch32QueueTransformChangeIfHasChangedER18TransformHierarchy
H3a:__ZN18DeferredRenderLoop15RenderFinalPassEP13RenderTextureS1_
IKa:__ZN7ApiGLES18DeleteRenderbufferERj
wJa:__ZL23ProgramUniformMatrix4fvPK7ApiGLESjiihPKv
hAa:__ZN7ApiGLES13CreateTextureEjj14GraphicsFormatiiiii
WUb:__ZN9ShaderLab20SerializedSubProgram15MatrixParameter8TransferI14SafeBinaryReadEEvRT_
CMe:_Int32_Parse_m124693431
Vbc:__ZL27GetComponentsImplementationILb0ELi1EEbR10GameObjectbRK17CompareParametersRK39GetComponentsImplementation_ReturnValue
udd:_Round_Down_To_Grid
Dhg:_UTF8Decoder__ctor_m1460357288
vka:__ZN13RenderTexture7ReleaseEv
Zwb:__ZN10MeshFilter23VirtualRedirectTransferER14SafeBinaryRead
xce:_Convert_ToByte_m1201588964
hxb:__ZN12MeshRenderer17MainThreadCleanupEv
aec:__Z36AsyncOperation_Get_Custom_PropIsDoneP12Il2CppObject
oNa:__ZN22CreateGpuProgramOutput12CreateParamsEv
wFa:__ZNK14GfxContextGLES13GetDefaultFBOEv
ose:_Array_InternalArray__ICollection_Remove_TisSByte_t454417549_m2474211570_gshared
aha:__ZN14GraphicsHelper5ClearE13GfxClearFlagsRK10ColorRGBAffjR17ShaderPassContext
q8b:__Z13GetImagePixelI10ColorRGBAfET_PKhii13TextureFormat15TextureWrapModeS5_ii
wPj:_il2cpp_class_is_enum
f$j:__ZN6il2cpp2vm6Thread49CheckCurrentThreadForInterruptAndThrowIfNecessaryEv
Ema:__ZNSt3__23mapIN9ShaderLab16FastPropertyNameEN18UnityPropertySheet11UnityTexEnvENS_4lessIS2_EENS_9allocatorINS_4pairIKS2_S4_EEEEEixERS9_
iAa:__ZNK13TranslateGLES25GetTextureTargetDimensionEj
TWd:_InputField_SetToCustom_m250029371
FAe:_Array_InternalArray__set_Item_TisByte_t3683104436_m1694926640_gshared
i7i:_PatternCompiler_EmitInfo_m597931026
cIf:_ModulusRing_Multiply_m3113924743
dlc:__Z47Texture2D_CUSTOM_INTERNAL_CALL_GetPixelBilinearP12Il2CppObjectffR10ColorRGBAf
_hd:__ZZN2UI6Canvas15InitializeClassEvEN39FunctorImpl_1413kCanvasHierarchyChanged4CallEPviR11MessageData
Ti:_emscripten_glVertexAttrib4f
_zf:_ReadOnlyCollection_1_System_Collections_IEnumerable_GetEnumerator_m531171980_gshared
KXb:__ZNSt3__26vectorIN20GpuProgramParameters14ConstantBufferENS_9allocatorIS2_EEE8__appendEj
mDe:_Array_Sort_TisUILineInfo_t3621277874_m3105833015_gshared
LYe:_MonoType_GetGenericArguments_m2708198481
Tdf:_List_1_AddEnumerable_m2489692396_gshared
Ajj:_WaitForSecondsRealtime__ctor_m1734539010
nx:__ZN7mecanim12statemachine24CreateStateMachineMemoryEPKNS0_20StateMachineConstantERNS_6memory9AllocatorE
WJh:_Enumerator_get_Current_m419581838_AdjustorThunk
zDa:__ZN9GfxDevice18SetGlobalDepthBiasEff
LMj:__ZN6il2cpp6icalls8mscorlib6System8MonoType12get_AssemblyEP20Il2CppReflectionType
ej:_emscripten_glGetPointerv
zgj:_Transform_set_position_m2469242620
ZB:__ZN8Animator22ApplyBuiltinRootMotionEv
Ure:_Array_InternalArray__ICollection_Remove_TisKeyValuePair_2_t3716250094_m2566517826_gshared
b3j:__ZN30dense_hashtable_const_iteratorINSt3__24pairIK10KeyWrapperIP14Il2CppIUnknownEjEES5_N6il2cpp5utils11PointerHashIS3_EEN14dense_hash_mapIS5_jSB_NS5_14EqualsComparerINS0_8equal_toIS4_EEEENS0_9allocatorIS7_EEE9SelectKeyESG_SI_EppEv
ksb:__ZN8Renderer23VirtualRedirectTransferER14SafeBinaryRead
m_g:_DerivedType_get_UnderlyingSystemType_m3904230233
VXa:__Z27ConvertSubMeshesToTrianglesR13dynamic_arrayI7SubMeshLj4EERS_ItLj2EE
UEj:__ZN6il2cpp2vmL15GetBitmapNoInitEP11Il2CppClassPjRjj
z$f:_X509Certificate2Collection__ctor_m819526826
CK:__ZN12AudioManager5ResetEv
dWg:__Z75RuntimeInvoker_RuntimeObject_Single_t2076509932_RuntimeObject_RuntimeObjectPFvvEPK10MethodInfoPvPS4_
pJf:_KeyBuilder_Key_m3814433741
J8e:_ArgumentException__ctor_m158205422
zve:_Array_compare_TisVector3_t2243707580_m3709184876_gshared
vUd:_HorizontalLayoutGroup_SetLayoutHorizontal_m3237355818
JB:__ZN7mecanim5human14RetargetToTDoFEPKNS0_5HumanEPNS0_9HumanPoseEPNS_8skeleton13SkeletonPoseTIN4math4trsXEEESB_
Mak:__ZN6il2cpp6icalls8mscorlib6System11Environment20GetWindowsFolderPathEi
KBi:__ZL60AspectRatioFitter_t3114550109_CustomAttributesCacheGeneratorP21CustomAttributesCache
Zv:__ZN7mecanim5human18HumanPoseBlendNodeERNS0_9HumanPoseEPS1_f
k9c:_UNITY_FT_RoundFix
TXb:__ZN9ShaderLab20SerializedSubProgram15AddTextureParamEPKcii16TextureDimension
dR:__ZNK18AudioMixerPlayable11DerivesFromE17ScriptingClassPtr
jbj:_Uri_get_Parser_m2250631932
jxb:__ZNK12MeshRenderer22GetTypeVirtualInternalEv
eEh:_Event_GetHashCode_m2214628668
ySd:_Graphic_set_color_m646149893
Xma:__ZN14SafeBinaryRead19TransferSTLStyleMapINSt3__23mapIN4core12basic_stringIcNS3_20StringStorageDefaultIcEEEES7_NS1_4lessIS7_EE13stl_allocatorINS1_4pairIKS7_S7_EEL18MemLabelIdentifier1ELi16EEEEEEvRT_17TransferMetaFlags
Ehd:__ZN2UI6Canvas27UpdateEventIndexesRecursiveERi
I1b:__ZN14SpriteRenderer12CleanupClassEv
lW:__ZN11UnityEngine15CloudWebService16SessionContainer21PrepareDataErrorEventERN4core12basic_stringIcNS2_20StringStorageDefaultIcEEEE
l5c:_UNITY_FT_Outline_New
LNb:__Z19TransferField_ArrayI19StreamedBinaryWriteILb0EE27Converter_SimpleNativeClassI8GUIStyleEEvRK23StaticTransferFieldInfoR31RuntimeSerializationCommandInfoRT0_
xuh:_AnimatorControllerPlayable_CrossFade_m1077061813_AdjustorThunk
B7f:_RemotingServices_RegisterInternalChannels_m1827304423
_bh:_GUIStyle_get_onNormal_m1675201777
Nr:__ZL32CleanupAnimationScriptingClassesv
Evc:__Z35Transfer_Blittable_FixedBufferFieldI8JSONReadiEvRK29SerializationCommandArgumentsR31RuntimeSerializationCommandInfo
yMc:__ZN22ParticleSystemRenderer16UpdateCachedMeshEv
QLj:__ZNSt3__213__vector_baseIN6il2cpp2os19SocketHandleWrapperENS_9allocatorIS3_EEED2Ev
Ydh:_GUIStyleState_Cleanup_m705006206
LCc:__ZN12LightsModule8TransferI24GenerateTypeTreeTransferEEvRT_
qc:invoke_viiffi
cKe:_RegionInfo_GetByTerritory_m3452395101
Ubb:__ZN13sorted_vectorINSt3__24pairIN4core12basic_stringIcNS2_20StringStorageDefaultIcEEEEPK17MessageIdentifierEEN10vector_mapIS6_S9_NS0_4lessIS6_EENS0_9allocatorISA_EEE13value_compareESF_E10insert_oneERKSA_
Rig:_Thread_GetCachedCurrentUICulture_m5590127
Jij:_Vector3_Dot_m3161182818
MVb:__Z14resize_trimmedINSt3__26vectorIN9ShaderLab18SerializedPropertyENS0_9allocatorIS3_EEEEEvRT_j
wnf:_List_1_CheckMatch_m4018158235_gshared
X$e:_Context_t2636657155_marshal_pinvoke_back
QJj:__ZN6il2cpp2vm13MetadataCache38GetMethodInfoFromMethodDefinitionIndexEi
G2d:_Byte_System_IConvertible_ToDateTime_m1583041031
Tic:__Z39MonoBehaviour_CUSTOM_GetScriptClassNameP12Il2CppObject
rxj:__ZL24UnresolvedVirtualCall_68P12Il2CppObjectS0_iS0_S0_S0_S0_S0_S0_PK10MethodInfo
Htb:__ZN10VertexData8TransferI24GenerateTypeTreeTransferEEvRT_
gbk:__ZN13Il2CppHashMapIPK19Il2CppGenericMethodP10MethodInfoN6il2cpp8metadata23Il2CppGenericMethodHashENS6_26Il2CppGenericMethodCompareENSt3__29allocatorINS9_4pairIK10KeyWrapperIS2_ES4_EEEEEC2EjRKS7_RKS8_
V4a:__ZL10CullLightsRK22SceneCullingParametersR11CullResults
ERd:_Dropdown__cctor_m264401557
H$d:_Array_IndexOf_m2819632474
D5i:_Comparer_1__cctor_m3996541505_gshared
ix:__ZN7mecanim12statemachine20GetBlendTreeConstantERKNS0_13StateConstantEi
a7b:__Z40GetTemporaryCachePathApplicationSpecificv
IBa:__ZN9GfxDevice16EndAsyncJobFrameEv
f6c:_UNITY_tt_face_load_hhea
MEh:_PersistentCall__ctor_m2079279187
Xbe:_Convert_ToBase64String_m1936815455
Zk:___syscall3
al:___syscall6
cl:___syscall4
Oke:_Decimal_ToString_m759431975
jNd:_ColorBlock_get_fadeDuration_m987725262
tcg:_CryptographicException__ctor_m2415891459
vYc:__ZNSt3__26__sortIR24RayHitsByDepthComparitorP12RaycastHit2DEEvT0_S5_T_
ZOc:__ZN27PerformanceReportingManager23VirtualRedirectTransferER14SafeBinaryRead
fcc:__ZN9Scripting25BroadcastScriptingMessageER10GameObjectPKc18ScriptingObjectPtr
sl:_emscripten_glShaderBinary
Jzh:_Camera_INTERNAL_CALL_RaycastTry_m1030092423
gfa:__ZNK20LocalFileSystemPosix6ExistsERK13FileEntryData
qVf:_DictionaryNodeEnumerator_get_DictionaryNode_m3521889822
mu:__ZN7mecanim5human19MaskHasLeftFootGoalERKNS_6bitsetILj70EEE
yQg:__Z101RuntimeInvoker_Int32_t2071877448_RuntimeObject_Color32_t874517518_Int32_t2071877448_Int32_t2071877448PFvvEPK10MethodInfoPvPS4_
Ugh:_Mesh_get_colors32_m4153271224
$kd:__Z58Register_UnityEngine_Canvas_GetETC1SupportedCanvasMaterialv
Oih:_Physics2D_INTERNAL_CALL_GetRayIntersectionAll_m161475998
YPb:__ZN17AnimationCurveTplIfE8TransferI18StreamedBinaryReadILb1EEEEvRT_
Yie:_DateTimeOffset_GetHashCode_m3312197462_AdjustorThunk
God:__ZN18UnityConnectClientD2Ev
OOj:_il2cpp_set_data_dir
ebj:_Uri_get_IsUnc_m2111738174
tej:_DataUtility_INTERNAL_CALL_GetPadding_m1621366113
l2g:_TypeBuilder_IsValueTypeImpl_m1499671481
Rnd:__ZN11UnityEngine15PlatformWrapper30GetGraphicsDriverLibraryStringEv
KHh:_Enumerator_VerifyState_m262343092_AdjustorThunk
Uhj:_Vector2_ToString_m775491729
xKf:_EncryptedPrivateKeyInfo_Decode_m1706190306
bRb:__Z18Transfer_BlittableI18StreamedBinaryReadILb0EELb0E4AABBEvRK29SerializationCommandArgumentsR31RuntimeSerializationCommandInfo
ND:__ZN16MecanimAnimation24DeleteAnimatedPropertiesERP26IAnimatedPropertyEvaluator
dge:_Convert_ToUInt16_m1665900934
xCj:_U3CsoltarEnemigoU3Ec__Iterator0_Reset_m20482497
bKe:_RegionInfo__ctor_m2058831971
xCc:__ZN11ColorModule8TransferI24GenerateTypeTreeTransferEEvRT_
uVa:__Z14DrawGUITextureRK5RectTIfEP7Texture11ColorRGBA32P8Materiali
JLi:_Text_get_supportRichText_m3291105891
Gnh:_RectTransform_GetParentSize_m1571597933
MA:__ZN9BlobWrite8TransferI22OffsetPtrArrayTransferIKN4math7_float4EEEEvRT_PKc17TransferMetaFlags
YYd:_LayoutElement_set_ignoreLayout_m1530090081
Sja:__ZN15TextureSettings8TransferI24GenerateTypeTreeTransferEEvRT_
s6i:_MatchCollection_GetEnumerator_m3516985966
qvc:__ZN9JSONWrite8TransferI4AABBEEvRT_PKc17TransferMetaFlags
Reg:_UTF7Encoding__ctor_m2365939916
dRa:__ZN25MultiBlocksMemoryFileData9SetLengthEy
bfj:_TextGenerationSettings_Equals_m3944651893_AdjustorThunk
XCh:_DelegatePInvokeWrapper_StateChanged_t2480912210
CEi:_MatEntry__ctor_m3650167335
wTc:__ZN10Collider2D13AwakeFromLoadE17AwakeFromLoadMode
yCb:__ZNSt3__26vectorIN30RuntimeInitializeOnLoadManager9ClassInfoE13stl_allocatorIS2_L18MemLabelIdentifier12ELi16EEE8__appendEj
Sob:__ZNK9Texture2D20GetRuntimeMemorySizeEv
Mmg:_TypeInitializationException__ctor_m2993591639
Am:_emscripten_glUniform2iv
bMe:_Int16_System_IConvertible_ToInt64_m733340257
ngh:_Matrix4x4_ToString_m1982554457_AdjustorThunk
F2c:_UNITY_FT_Outline_Transform
Zkc:__Z60Register_UnityEngine_Sprites_DataUtility_Internal_GetMinSizev
lFj:__ZN6il2cpp2vm5Class10GetMethodsEP11Il2CppClassPPv
G0a:__Z30AddDefaultStreamsToMeshBuffersR9GfxDeviceR11MeshBuffersRK16DrawBuffersRange17ShaderChannelMaskS6_
XLc:__Z43ParticleSystemRenderer_RenderMultipleMeshesIL21SpriteMaskInteraction1EEvRK15RenderNodeQueueRK18RenderMultipleData17ShaderChannelMask
vAd:_Hash_GetObjectData_m315532943
lKa:__ZN7ApiGLES17DeleteFramebufferERN2gl6HandleILNS0_10ObjectTypeE9EEES3_
sMa:__ZN15UniformTFMethod13MapBoneBufferEj
KNf:_RecordProtocol_SendAlert_m2816808523
Ggd:__ZN2UI14CanvasRendererD2Ev
f4f:_MethodCall_get_LogicalCallContext_m3769562079
F$j:__ZN6il2cpp6icalls8mscorlib6System5Array8SetValueEP11Il2CppArrayP12Il2CppObjectS5_
eVe:_SynchronizedReader_Read_m1399666181
j4g:_MonoEvent_get_Name_m2796714646
aga:__Z9SetupArgviPPKc
eKd:_PointerEventData_set_worldNormal_m2025727441
ROf:_Context_get_SentConnectionEnd_m3114190867
mob:__ZN12CubemapArray23VirtualRedirectTransferER24GenerateTypeTreeTransfer
s6:__ZN12FileAccessor4OpenER15FileSystemEntry14FilePermission16FileAutoBehavior
yBf:_ReadOnlyCollection_1__ctor_m2364452928_gshared
S9j:__ZN6il2cpp2os9Directory6CreateERKNSt3__212basic_stringIcNS2_11char_traitsIcEENS2_9allocatorIcEEEEPi
cvh:_AnimatorControllerPlayable_Play_m1490151611_AdjustorThunk
h7a:__ZN23TransformChangeDispatch32QueueTransformChangeIfHasChangedERK15TransformAccess
JJd:_PointerEventData_set_clickTime_m3931922487
VX:__ZNSt3__24listIP19CloudServiceHandler13stl_allocatorIS2_L18MemLabelIdentifier86ELi16EEE6removeERKS2_
bIe:_NumberFormatter_AppendNonNegativeNumber_m629862866
Goa:__ZNSt3__26vectorINS_4pairIN9ShaderLab16FastPropertyNameEN18UnityPropertySheet11UnityTexEnvEEENS_9allocatorIS6_EEE21__push_back_slow_pathIKS6_EEvRT_
SNi:_ResourceInfo__ctor_m2401359321_AdjustorThunk
lak:__ZN6il2cpp2os26LibraryNamePrefixAndSuffixC2EPKcS3_
b9d:_Hashtable__ctor_m392789568
tig:_Mutex_CreateMutex_internal_m2352956576
Pgg:_UTF7Encoding__cctor_m4192443836
iCh:_Component_SendMessage_m2241432133
hqc:__Z31GUIStyle_CUSTOM_SetFontInternalP12Il2CppObjectS0_
B:tempValue
blk:__ZN6il2cpp8metadata24Il2CppGenericContextHash4HashEPK20Il2CppGenericContext
fMe:_Int16_System_IConvertible_ToSingle_m3277935657
w2:__Z29scripting_class_from_fullnamePKcS0_S0_
vGi:_Raycast3DCallback_Invoke_m2271859924
Ix:__ZN26AnimatorControllerPlayable18DeallocateBindingsEv
ivh:_AnimatorControllerPlayable_HasState_m3003093532
bQ:__ZN11AudioSource19CreateOpenALRolloffEfff
U6c:_UNITY_FT_Stream_ReadAt
mGh:_Enumerator_get_CurrentKey_m2387752419_AdjustorThunk
Ach:_GUIStyle_get_lineHeight_m2132859383
ZH:__Z87Register_UnityEngine_Animations_AnimatorControllerPlayable_INTERNAL_CALL_GetFloatStringv
$Ij:__ZN15dense_hashtableINSt3__24pairIK10KeyWrapperIN6il2cpp5utils13dynamic_arrayIPK10Il2CppTypeLj4EEEEPFvvEEESA_NS3_8metadata19Il2CppSignatureHashEN14dense_hash_mapISA_SD_SG_NSA_14EqualsComparerINSF_22Il2CppSignatureCompareEEENS0_9allocatorISE_EEE9SelectKeyESK_SM_E9set_valueEPSE_RKSE_
gFh:_UnityEvent_FindMethod_Impl_m3303953986
Smg:_UInt16_System_IConvertible_ToBoolean_m887616848
cT:__ZN11AudioModule22CreateAudioClipFromWWWEP10IWWWStreamPKcbbi
Ffg:_StringBuilder_set_Length_m3039225444
xwf:_Collection_1_System_Collections_IList_Contains_m3870109702_gshared
wre:_Array_InternalArray__ICollection_Contains_TisRaycastResult_t21186376_m3188614988_gshared
Oge:_CultureAwareComparer_GetHashCode_m3681260951
Cid:__Z13RegisterClassIN2UI11CanvasGroupEEvv
VZb:__ZN6prcoreL11inner_clearILj4EEEvPhjjj
Cf:_emscripten_glClear
EGi:_Selectable__ctor_m1440593935
Kgk:_GC_initialize_offsets
taa:__ZNK8Playable6HandleEv
B4:__ZN14MessageHandler28MessageIDToMessageIdentifierEi
JWf:_HttpRequestCreator_Create_m3607509610
cub:__ZNK11SpriteAtlas20GetRuntimeRenderDataEPK6Sprite
zik:__ZN6il2cpp2vm10WaitHandle19NewManualResetEventEb
uhj:_UISystemProfilerApi_EndSample_m2059427490
RCf:_ReadOnlyCollection_1_System_Collections_IList_Contains_m3707723158_gshared
Pqg:_Version_GetHashCode_m880841176
zv:__ZN7mecanim14ValueArrayCopyILb0EEEvPKNS_10ValueArrayEPS1_
uoh:_CustomEventData_Add_m4160204358
HG:__Z51Register_UnityEngine_Animator_get_hasBoundPlayablesv
RBj:_Nullable_1_ToString_m1238126148_AdjustorThunk
Td:emscriptenWebGLGetUniform
Oo:FUNCTION_TABLE_iiiiiiiiiii
C6a:__ZL10CleanUpJobP20CullingGroupsJobData
q4d:_Char_CompareTo_m3044885427_AdjustorThunk
fRe:_FileStream_GetSecureFileName_m508045384
P$i:_InternalEnumerator_1_System_Collections_IEnumerator_get_Current_m2035754659_AdjustorThunk
Ywb:__ZN10MeshFilter23VirtualRedirectTransferER24GenerateTypeTreeTransfer
lVa:__ZN13RenderManager15BatchModeUpdateEv
jtb:__ZN14SafeBinaryRead21TransferSTLStyleArrayI13dynamic_arrayI8Vector2fLj4EEEEvRT_17TransferMetaFlags
Coa:__ZN17PersistentManager51InstanceIDToLocalSerializedObjectIdentifierInternalEiR31LocalSerializedObjectIdentifier
yVc:__ZN10ClipperLib7Clipper15SetWindingCountERNS_5TEdgeE
Ybd:_UNITY_FT_Create_Class_cff_services
wd:_glVertexAttribIPointer
ttd:_HMAC_set_HashName_m457235014
$8b:__ZNK6Sprite10GetPaddingE20SpriteRenderDataMode
Gqe:_Array_InternalArray__ICollection_Contains_TisTableRange_t2011406615_m605506746_gshared
uMh:_Dictionary_2_Add_m1296007576_gshared
Nfe:_Decimal_op_Explicit_m729046406
Dcg:_CryptoConfig_CreateFromName_m2169102076
YSd:_Graphic_OnEnable_m2900261811
Gcg:_CryptographicUnexpectedOperationException__ctor_m3552441227
a6d:_ArrayListWrapper_Clear_m321161741
YXd:_InputField_LineDownCharacterPosition_m2690468785
T6c:_UNITY_ft_glyphslot_alloc_bitmap
qDe:_Array_Sort_TisVector2_t2243707579_TisVector2_t2243707579_m2582252549_gshared
Sog:_UInt64_System_IConvertible_ToDouble_m2828923873
F0b:__ZZN2UI13RectTransform15InitializeClassEvEN31FunctorImpl_62kTransformChanged4CallEPviR11MessageData
vjf:_List_1_System_Collections_IList_set_Item_m1129584681_gshared
n8c:_ft_raster1_render
akc:__Z57Register_UnityEngine_RectTransform_INTERNAL_set_anchorMaxv
pef:_List_1_set_Capacity_m491101164_gshared
spk:__ZNKSt3__221__basic_string_commonILb1EE20__throw_length_errorEv
bgg:_StringBuilder_Insert_m1733097906
yTf:_SslStreamBase_get_HashStrength_m480059173
XKa:__ZN18GfxFramebufferGLES13ReadbackImageER14ImageReferenceiiiiii
EKh:_ValueCollection_System_Collections_Generic_ICollectionU3CTValueU3E_Clear_m3271993638_gshared
Ibe:_Enumerator_MoveNext_m1419609883
LL:__ZN4FMOD7Channel19setReverbPropertiesEPK29FMOD_REVERB_CHANNELPROPERTIES
$3:__ZN13MonoBehaviour22GetScriptFullClassNameEv
czc:__ZN11MinMaxCurve19GetWritableMinCurveEv
lij:_Vector2__cctor_m3670745621
TWf:_ServicePointManager_FindServicePoint_m3137356168
Sua:__ZN20SphericalHarmonicsL211AddWeightedERKS_f
wKd:_PointerInputModule_GetPointerData_m1695674453
Izg:__Z90RuntimeInvoker_Void_t1841601450_RuntimeObject_RuntimeObject_RuntimeObject_SByte_t454417549PFvvEPK10MethodInfoPvPS4_
kKb:__Z19TransferField_ArrayI17RemapPPtrTransfer27Converter_SimpleNativeClassI8GUIStyleEEvRK23StaticTransferFieldInfoR31RuntimeSerializationCommandInfoRT0_
Jge:_Convert_ToUInt64_m345450801
UBj:_Predicate_1_BeginInvoke_m2559992383_gshared
rsc:__ZN9JSONWrite8TransferI10ColorRGBAfEEvRT_PKc17TransferMetaFlags
eDh:_Debug_Log_m920475918
v4:__Z25scripting_method_get_name18ScriptingMethodPtr
jkc:__Z35Register_UnityEngine_Resources_Loadv
LIb:__Z19TransferField_ArrayI14SafeBinaryRead16Converter_StringEvRK23StaticTransferFieldInfoR31RuntimeSerializationCommandInfoRT0_
Nok:_rename
UGc:__ZN14ParticleSystem17SimulateParticlesER24ParticleSystemUpdateDataR23ParticleSystemParticlesjRKfPj
Mgk:_GC_exit_check
$gj:_Transform_INTERNAL_CALL_TransformDirection_m2899991790
bZe:_NotSupportedException__ctor_m3232764727
hWf:_TypeConverterAttribute_Equals_m2330345916
WNc:__ZL24GenerateParticleGeometryIL24ParticleSystemRenderMode0ELb1ELb1EL25ParticleSystemRenderSpace4EEvPfRK22ParticleSystemTempDataRK26ParticleSystemRendererDataRK21ParticleSystemModulesRK23ParticleSystemParticlesRK31ParticleSystemParticlesTempData
GEg:__Z90RuntimeInvoker_Boolean_t3825574718_Int32_t2071877448_Int32U26_t455636984_Int32_t2071877448PFvvEPK10MethodInfoPvPS4_
HQe:_MonoIO_CreateDirectory_m379525469
DA:__ZN9BlobWrite8TransferI22OffsetPtrArrayTransferI9OffsetPtrIN7mecanim12statemachine18StateMachineMemoryEEEEEvRT_PKc17TransferMetaFlags
u4c:_UNITY_ft_smooth_renderer_class_pic_free
fmf:_List_1_System_Collections_IList_Remove_m3763718607_gshared
tR:__ZN19AudioPlayableOutput22OnConnectionHashChangeEv
ADd:_String_Concat_m2000667605
NLj:__ZN6il2cpp2os19SocketHandleWrapperC2ERKS1_
_bk:__ZN6il2cpp2vm6String8NewUtf16EPKDsi
p9j:__ZN6il2cpp2os10ThreadImpl12QueueUserAPCEPFvPvES2_
xod:__ZN22BaseUnityConnectClient10QueueEventERN11UnityEngine15CloudWebService17CloudServiceEventEPKcjb
rNg:__Z71RuntimeInvoker_Bounds_t3033363703_RuntimeObject_Matrix4x4U26_t266301477PFvvEPK10MethodInfoPvPS4_
hHe:_ExecuteEvents_GetEventHandler_TisRuntimeObject_m3333041576_gshared
pGc:__Z9UpdateTplIL27ParticleSystemCurveEvalMode1EEvRK11MinMaxCurveR23ParticleSystemParticlesjjbjRK8Vector2f
W0d:_BitConverter_ToInt64_m1329623425
p1b:__ZN8RendererC2E12RendererType18MemLabelIdentifier18ObjectCreationMode
qPj:_il2cpp_class_is_abstract
Mf:_emscripten_glGetError
iXj:__ZN15dense_hashtableINSt3__24pairIK10KeyWrapperIPK14Il2CppAssemblyEPK22Il2CppMonoAssemblyNameEES6_N6il2cpp5utils11PointerHashIS4_EEN14dense_hash_mapIS6_SA_SF_NS6_14EqualsComparerINS0_8equal_toIS5_EEEENS0_9allocatorISB_EEE9SelectKeyESK_SM_E14squash_deletedEv
yM:__Z14FMOD_FILE_SeekPvjS_
i4f:_MethodCall_get_Properties_m1893707917
PHh:_ShimEnumerator_get_Entry_m2387156530_gshared
zJj:__ZN14dense_hash_mapI10KeyWrapperIN6il2cpp5utils13dynamic_arrayIPK10Il2CppTypeLj4EEEEPFvvENS1_8metadata19Il2CppSignatureHashENS8_14EqualsComparerINSB_22Il2CppSignatureCompareEEENSt3__29allocatorINSG_4pairIKS8_SA_EEEEEC2EjRKSC_RKSF_
wmd:__Z56Register_UnityEngine_Analytics_CustomEventData_AddStringv
$7a:__ZNK13RenderTexture32CalculateNeedsInvertedProjectionEv
yfb:__ZN10systeminfo18GetOperatingSystemEv
Uf:emscriptenWebGLGet
Smh:_Rect_GetHashCode_m559954498_AdjustorThunk
C6:__Z19CanReplaceComponentRN5Unity9ComponentEPKNS_4TypeEPN4core12basic_stringIcNS5_20StringStorageDefaultIcEEEE
Z2b:__ZN12CubemapArray11InitTextureEiii13TextureFormatb
vzc:__ZN32CustomDataModulePropertyBindings13SetFloatValueER14ParticleSystemif
GIj:__ZNSt3__27__sort4IRN6il2cpp5utils11collections13ArrayValueMapIPK10Il2CppType17Il2CppInteropData26InteropDataToTypeConverterNS1_8metadata14Il2CppTypeLessENSA_26Il2CppTypeEqualityComparerEE12SortComparerEPS8_EEjT0_SH_SH_SH_T_
Zgh:_Mesh_SetUVs_m841280343
j_f:_X509Certificate2_get_SignatureAlgorithm_m3069898012
lOe:_Int64_System_IConvertible_ToSingle_m1678482180
L9b:__Z18SetIParticleSystemP15IParticleSystem
kdh:_GUIStyle_INTERNAL_CALL_Internal_CalcSizeWithConstraints_m1203344891
kB:__ZN7mecanim5human13HumanFixTwistEPKNS0_5HumanEPNS_8skeleton13SkeletonPoseTIN4math4trsXEEES9_iiRKf
o1a:__ZL24AssignProjectorQueuesJobP30AssignProjectorQueuesJobHeader
hkg:_TimeSpan_get_Hours_m3804628138
e6j:__ZN14dense_hash_mapI10KeyWrapperIP12Il2CppObjectEN6il2cpp2gc9CachedCCWENS4_5utils11PointerHashIS1_EENS3_14EqualsComparerINSt3__28equal_toIS2_EEEENSB_9allocatorINSB_4pairIKS3_S6_EEEEEC2EjRKS9_RKSE_
fJj:__ZN15dense_hashtableINSt3__24pairIK10KeyWrapperIN6il2cpp5utils13dynamic_arrayIPK10Il2CppTypeLj4EEEEPFvvEEESA_NS3_8metadata19Il2CppSignatureHashEN14dense_hash_mapISA_SD_SG_NSA_14EqualsComparerINSF_22Il2CppSignatureCompareEEENS0_9allocatorISE_EEE9SelectKeyESK_SM_E4swapERSP_
QXb:__ZN9ShaderLab20SerializedSubProgram14SetConstBufferEPKci
zFc:__ZN11ShapeModule9ResetSeedERK27ParticleSystemReadOnlyState
N8e:_ArgumentNullException__ctor_m911049464
Psj:_Check_Source_m3385315029
XGf:_Comparison_1_Invoke_m345024424_gshared
nad:_cf2_getStdVW
ZDf:_ReadOnlyCollection_1_System_Collections_IList_Insert_m3936197025_gshared
q$:__Z40DebugStringToFilePostprocessedStacktraceRK21DebugStringToFileData
lxc:__Z29Transfer_Blittable_ArrayFieldI8JSONReadjEvRT_R9ArrayInfoRK23StaticTransferFieldInfo
oih:_Object_GetInstanceID_m1920497914
p$i:_InternalEnumerator_1_get_Current_m314017974_AdjustorThunk
zg:__setLetterbox
nSe:_MemoryStream__ctor_m1043059966
yfj:_TextGenerator_Populate_Internal_m1817393161
k5f:__ZN21InterfaceFuncInvoker3IP12Il2CppObjectP6Type_t28StreamingContext_t1417235061PS1_E6InvokeEjP11Il2CppClassS1_S3_S4_S5_
Svb:__ZNSt3__26vectorI17BlendShapeChannelNS_9allocatorIS1_EEE6assignINS_11__wrap_iterIPS1_EEEENS_9enable_ifIXaasr21__is_forward_iteratorIT_EE5valuesr16is_constructibleIS1_NS_15iterator_traitsISA_E9referenceEEE5valueEvE4typeESA_SA_
fZd:_LayoutElement_set_preferredWidth_m3072758716
UYf:_AsnEncodedData_ToString_m724151831
LVa:__ZN11TimeManager11GetRealtimeEv
jgk:_GC_print_block_list
Krd:__ZN20UnityWebRequestProtoI19TransportJavaScript16AtomicRefCounter14RedirectHelper14ResponseHelper15DownloadHandler13UploadHandler12HeaderHelper14AsyncOperationE26Job_ExecuteUnityWebRequestEPS8_
LM:__ZN29AudioEffectInternalDefinitionC2EP26UnityAudioEffectDefinitionb
X3g:_MonoMethodInfo_GetDeclaringType_m4186531677
h6f:_SoapTypeAttribute_SetReflectionObject_m1566293812
$Ac:__ZNK11MinMaxCurve20FindMinMaxIntegratedEv
wvj:_Enumerator_System_Collections_IEnumerator_Reset_m2573763156_AdjustorThunk
F7f:_RemotingServices_CreateClientProxy_m1631035355
wpg:_UInt64_ToString_m2892887310
kDd:_String_System_IConvertible_ToType_m512800076
nbk:__ZN15dense_hashtableINSt3__24pairIK10KeyWrapperIPK19Il2CppGenericMethodEP10MethodInfoEES6_N6il2cpp8metadata23Il2CppGenericMethodHashEN14dense_hash_mapIS6_S9_SD_NS6_14EqualsComparerINSC_26Il2CppGenericMethodCompareEEENS0_9allocatorISA_EEE9SelectKeyESH_SJ_EC2ERKSM_j
dYc:__ZN24b2ChainAndCapsuleContact6CreateEP9b2FixtureiS1_iP16b2BlockAllocator
DQa:__Z37ReadDirectoryInfo_UnityWebAndUnityRawR12FileAccessorRKN20ArchiveStorageHeader6HeaderERNS1_13DirectoryInfoE
b1:__ZNSt3__26__treeINS_12__value_typeIPKciEENS_19__map_value_compareIS3_S4_15compare_tstringIS3_ELb1EEENS_9allocatorIS4_EEE7destroyEPNS_11__tree_nodeIS4_PvEE
RPh:_Dictionary_2_ToTValue_m1381983709_gshared
VYe:_MulticastDelegate_KPM_m1592985119
izf:_Collection_1_ConvertItem_m3941916604_gshared
y_a:__ZN20DynamicPropertySheet14SetValueQueuedEN9ShaderLab16FastPropertyNameEN19ShaderPropertySheet12PropertyTypeEjNS2_8SetFlagsE
phd:__ZN2UI6Canvas26MarkAllNestedCanvasesDirtyEv
p3j:__ZN6il2cpp2vm12ReboxIfBoxedEP14Il2CppIUnknownP11Il2CppClass
ckf:_List_1__ctor_m2766376432_gshared
Odb:__ZN25PathNamePersistentManagerD2Ev
U2:__ZN17PersistentManager48IntegrateObjectAndUnlockIntegrationMutexInternalEi
Fda:__ZZ29InitializeSortingGroupManagerPvEN44PostLateUpdateSortingGroupsUpdateRegistrator7ForwardEv
Hp:__ZN6Object12SetHideFlagsENS_9HideFlagsE
pZc:__ZN9b2Fixture11SynchronizeEP12b2BroadPhaseRK11b2TransformS4_
swk:_emscripten_glGetFramebufferAttachmentParameteriv__wrapper
TVa:__ZN13RendererScene15InitializeUmbraEv
Nvh:_AnimatorTransitionInfo_IsName_m2561957738_AdjustorThunk
Cua:__Z28CalculateGlobalMatrixInverse23TransformAccessReadOnly
vuc:__ZN4PPtrI6ObjectE8TransferI9JSONWriteEEvRT_
wKc:__ZN23ParticleSystemParticles17SetUsesCustomDataEi
fYh:__ZL60SecurityAttribute_t2016950496_CustomAttributesCacheGeneratorP21CustomAttributesCache
Ivb:__ZN13dynamic_arrayI12BoneWeights4Lj16EE18resize_initializedEjRKS0_12ResizePolicy
rKd:_PointerEventData_ToString_m1218584363
Xgg:_UTF7Encoding_GetCharCount_m2589913583
Y3:__ZN13MonoBehaviour19ReleaseMonoInstanceEv
eTe:_MemoryStream_CalculateNewCapacity_m3533542025
$kk:__ZN6il2cpp6icalls8mscorlib6System6Object7GetTypeEP12Il2CppObject
Ikg:_TimeSpan_Equals_m4102942751_AdjustorThunk
DKh:_ValueCollection_System_Collections_Generic_ICollectionU3CTValueU3E_Add_m1903672223_gshared
Lrd:__ZN12HeaderHelper14SetUnvalidatedERKN4core12basic_stringIcNS0_20StringStorageDefaultIcEEEES6_b
eJ:__ZN4FMOD6SoundI7releaseEv
Qxb:__ZN14SpriteRenderer13AwakeFromLoadE17AwakeFromLoadMode
rRa:__ZN10MemoryFile9SetLengthEy
Ing:_UInt16_ToString_m2038947049_AdjustorThunk
FKc:__ZN11ShapeModule17DidModifyMeshDataEv
vqb:__ZN14SafeBinaryRead21TransferSTLStyleArrayI13dynamic_arrayI7Hash128Lj8EEEEvRT_17TransferMetaFlags
XDb:__Z28scripting_class_is_interface17ScriptingClassPtr
Oh:_glTexStorage2D
EXb:__ZNK9ShaderLab10SubProgram14EnsureCompiledEv
lrg:__Z79RuntimeInvoker_Boolean_t3825574718_RuntimeObject_RuntimeObject_SByte_t454417549PFvvEPK10MethodInfoPvPS4_
$9f:_ObjectManager_RecordFixup_m3572285566
Fae:_SortedList_InitTable_m460350503
l4:__Z18BuildScriptClassId17ScriptingClassPtr
hYi:_InternalEnumerator_1_get_Current_m4279678504_AdjustorThunk
D3b:__ZN8Renderer28HandleParentHierarchyChangesEPK23TransformAccessReadOnlyj
Cfa:__ZL31DeleteLastPathNameComponentImplRKN4core12basic_stringIcNS_20StringStorageDefaultIcEEEEPKc
a$b:__Z13RegisterClassI18DelayedCallManagerEvv
Jod:__ZN18UnityConnectClient15GetCloudServiceEv
yKb:__Z18Transfer_BlittableI24GenerateTypeTreeTransferLb0EiEvRK29SerializationCommandArgumentsR31RuntimeSerializationCommandInfo
JXc:__ZN15b2CircleContact6CreateEP9b2FixtureiS1_iP16b2BlockAllocator
RDb:__ZL28SerializationCommandGroupForRK31TransferFunctionScriptingTraits17ScriptingClassPtr17ScriptingFieldPtrRK20CoreScriptingClasses
Tib:__ZN10TagManager32RegisterDefaultTagsAndLayerMasksEv
pkh:_PlayableHandle_SetDuration_m1990009798_AdjustorThunk
mKj:__ZN15dense_hashtableINSt3__24pairIK10KeyWrapperIPKcEP11Il2CppClassEES5_N6il2cpp5utils11StringUtils12StringHasherIS4_EEN14dense_hash_mapIS5_S8_SE_NS5_14EqualsComparerINSB_13VmStringUtils21CaseSensitiveComparerEEENS0_9allocatorIS9_EEE9SelectKeyESJ_SL_E15insert_noresizeERKS9_
Eig:_SynchronizationLockException__ctor_m549086841
Emd:__Z56Register_UnityEngine_Analytics_CustomEventData_AddUInt32v
y5d:_ArrayList_InsertRange_m1478230997
DFa:__ZN4gles8InitCapsEP7ApiGLESP12GraphicsCapsR16GfxDeviceLevelGL
qpa:__ZN6prcore14BlitImageFloatERK14ImageReferenceRS0_NS0_8BlitModeE
Wwa:__Z24CalculateVertexLightDataRK15SharedLightDataR14GfxVertexLight
igh:_Matrix4x4_Equals_m1321236479_AdjustorThunk
wi:_glEnable
Bsa:__ZN15dense_hashtableINSt3__24pairIKiiEEi21InstanceIDHashFunctorN14dense_hash_mapIiiS4_NS0_8equal_toIiEE13stl_allocatorIS3_L18MemLabelIdentifier1ELi16EEE9SelectKeyES7_SA_E12maybe_shrinkEv
xYa:__ZNK25CameraStackRenderingState21GetImageEffectTextureEb
_ag:_RuntimeMethodHandle__ctor_m2437574937_AdjustorThunk
ftc:__Z35Transfer_Blittable_FixedBufferFieldI9JSONWriteiEvRK29SerializationCommandArgumentsR31RuntimeSerializationCommandInfo
hng:_UInt16_System_IConvertible_ToInt64_m2835280558_AdjustorThunk
Adi:__ZL53g_UnityEngine_Assembly_CustomAttributesCacheGeneratorP21CustomAttributesCache
Dnj:_Predicate_1_BeginInvoke_m3926587117_gshared
WKc:__ZN11TrailModuleD2Ev
zBb:__ZNSt3__26vectorI4PPtrI6ObjectE13stl_allocatorIS3_L18MemLabelIdentifier51ELi16EEE6assignINS_11__wrap_iterIPS3_EEEENS_9enable_ifIXaasr21__is_forward_iteratorIT_EE5valuesr16is_constructibleIS3_NS_15iterator_traitsISD_E9referenceEEE5valueEvE4typeESD_SD_
Ax:__ZN26AnimatorControllerPlayable17ProcessRootMotionEP35AnimationPlayableEvaluationConstantP32AnimationPlayableEvaluationInputP33AnimationPlayableEvaluationOutput
ihf:_List_1_get_Item_m1231764300_gshared
Drg:__Z94RuntimeInvoker_Boolean_t3825574718_Int32_t2071877448_SByte_t454417549_ExceptionU26_t1467204777PFvvEPK10MethodInfoPvPS4_
hQd:_DefaultControls_CreateToggle_m1568873127
BPh:_Dictionary_2_InitArrays_m2270022740_gshared
rnd:__ZN11UnityEngine7Connect15DeviceInfoEvent16CollectExtraInfoEv
mgg:_UnicodeEncoding_GetChars_m3765282346
$Oe:_IntPtr__ctor_m4104029105
B0i:_InternalEnumerator_1_System_Collections_IEnumerator_get_Current_m771161214_AdjustorThunk
TXe:_MonoType_get_attributes_m1493788675
Cik:__ZN6il2cpp6icalls8mscorlib6System10Reflection9FieldInfo25internal_from_handle_typeE12Il2CppIntPtrS5_
Gee:_Convert_ToDouble_m4236754739
xRd:_Dropdown_CreateItem_m2702141380
BZh:__ZL48Stack_t1043988394_CustomAttributesCacheGeneratorP21CustomAttributesCache
To:FUNCTION_TABLE_viifi
Uo:FUNCTION_TABLE_viiff
tU:__Z75AudioPlayableGraphExtensions_CUSTOM_INTERNAL_CALL_InternalCreateAudioOutputR14HPlayableGraphP12Il2CppStringP15HPlayableOutput
g4g:_MonoEvent_GetAddMethod_m4289563120
HXh:__ZL37Type_t_CustomAttributesCacheGeneratorP21CustomAttributesCache
bed:_UNITY_tt_face_free_hdmx
SYc:__ZNSt3__26__sortIRN18Overlap2DQueryBase29ColliderHitsByDepthComparitorEPP10Collider2DEEvT0_S7_T_
SQj:__ZN6il2cpp2vm14TypeNameParser5ParseEb
jGi:_ReflectionMethodsCache__ctor_m1835220
Uqd:__ZN23UnityPurchasingSettingsC2Ev
Ume:_Double_ToString_m1864290157
Sva:__ZL37stbir__resample_horizontal_downsampleP11stbir__infoiPf
Zsa:__ZNK5Unity9Component38MarkGameObjectAndComponentDependenciesER27GarbageCollectorThreadState
F$:__ZL16OutOfMemoryErrorjj18MemLabelIdentifieriPKc
a7d:_SynchronizedArrayListWrapper_Contains_m2259439339
M4:__ZNK11TypeManager15ClassNameToRTTIEPKcb
ORb:__Z18Transfer_BlittableI18StreamedBinaryReadILb0EELb1EdEvRK29SerializationCommandArgumentsR31RuntimeSerializationCommandInfo
XKe:_Guid__ctor_m2599802704
FRe:_FileStream_get_CanRead_m4148920720
gIa:__ZN4crnd12symbol_codec32decode_receive_static_data_modelERNS_25static_huffman_data_modelE
A0b:__ZN18ScriptingArguments8AddFloatEf
qJe:_GregorianCalendar_set_CalendarType_m2438362222
Hre:_Array_InternalArray__ICollection_Contains_TisVector2_t2243707579_m3625698589_gshared
Ztc:__Z18Transfer_BlittableI9JSONWriteLb0EaEvRK29SerializationCommandArgumentsR31RuntimeSerializationCommandInfo
HV:__ZN11UnityEngine15CloudWebService14DataDispatcher34OnSessionContainerArchivedAndReadyERNS0_16SessionContainerE
oUc:__ZN7b2World11CreateJointEPK10b2JointDef
$Je:_NumberFormatInfo_GetFormat_m3247563525
qHc:__ZN23ParticleSystemParticles20SetUsesTriggerEventsEb
BMf:_CipherSuiteCollection__ctor_m2154226461
GMb:__Z18Transfer_BlittableI19StreamedBinaryWriteILb0EELb0E8Vector3fEvRK29SerializationCommandArgumentsR31RuntimeSerializationCommandInfo
E8g:_RectOffset__ctor_m2227510254
PTb:__ZN14SafeBinaryRead19TransferSTLStyleMapINSt3__23mapIN4core12basic_stringIcNS3_20StringStorageDefaultIcEEEEiNS1_4lessIS7_EENS1_9allocatorINS1_4pairIKS7_iEEEEEEEEvRT_17TransferMetaFlags
K5c:_gray_move_to
Hdg:_DSAParameters_t1872138834_marshal_pinvoke
vTi:_ConstructionCall_InitDictionary_m4046452035
WVj:__ZN6il2cpp2vm10Reflection14GetEventObjectEP11Il2CppClassPK9EventInfo
UNf:_TlsStream_Write_m2271546135
xbc:__Z30RegisterValidateMethodCallbackiPF18ScriptingMethodPtrS_17ScriptingClassPtrP6ObjectEPKc
Rpe:_CultureInfo_ConstructInternalLocaleFromCurrentLocale_m1342751405
jIc:__Z25GetTransformationMatricesPN4math8float3x3ES1_bbRK10Matrix4x4fS4_
rfg:_Latin1Encoding_GetString_m3553289597
g7c:_tt_cmap_init
La:invoke_viidi
O5j:__ZN15dense_hashtableI10KeyWrapperIP18Il2CppGenericClassES3_N6il2cpp8metadata22Il2CppGenericClassHashEN14dense_hash_setIS3_S6_NS3_14EqualsComparerINS5_25Il2CppGenericClassCompareEEENSt3__29allocatorIS3_EEE8IdentityESA_SD_E12maybe_shrinkEv
e0b:__ZN9TextAssetC2E18MemLabelIdentifier18ObjectCreationMode
DDh:_Display_RecreateDisplayList_m3412638488
_Bk:_emscripten_glCheckFramebufferStatus__wrapper
E_j:__ZNK15dense_hashtableINSt3__24pairIK10KeyWrapperIP11Il2CppClassES4_EES5_N6il2cpp8metadata16SZArrayClassHashEN14dense_hash_mapIS5_S4_SA_NS5_14EqualsComparerINS9_19SZArrayClassCompareEEENS0_9allocatorIS7_EEE9SelectKeyESE_SG_E12test_deletedEj
Fwc:__Z18Transfer_BlittableI8JSONReadLb0EdEvRK29SerializationCommandArgumentsR31RuntimeSerializationCommandInfo
lPg:__Z83RuntimeInvoker_Boolean_t3825574718_NavigationU26_t3929175072_Navigation_t1571958496PFvvEPK10MethodInfoPvPS4_
Yig:_Thread_ClrState_m822263449
I$e:_SimpleCollator_LastIndexOfOrdinalIgnoreCase_m550798345
ddh:_GUIStyle_INTERNAL_CALL_Internal_GetCursorStringIndex_m3074318281
aBa:__ZNK9GfxDevice13GetViewMatrixEv
jta:__ZN17RemapPPtrTransferC2E24TransferInstructionFlagsb
H5:__ZN8TypeTree8BlobReadERPKhS1_ib
WMh:_Dictionary_2_System_Collections_Generic_ICollectionU3CSystem_Collections_Generic_KeyValuePairU3CTKeyU2CTValueU3EU3E_Remove_m3080541539_gshared
uta:__ZN18LoadSceneOperation23GetAllowSceneActivationEv
Qjb:__ZN6CameraD0Ev
h1e:_ModulusRing_Multiply_m386339435
Mba:__ZN31CanvasBatchIntermediateRenderer16StaticInitializeEPv
PTd:_GraphicRaycaster_U3CRaycastU3Em__0_m3971200721
rCf:_ReadOnlyCollection_1_System_Collections_IList_RemoveAt_m3004588099_gshared
Mw:__ZN7mecanim12AndValueMaskILb0EEEvPKNS_14ValueArrayMaskEPS1_
mee:_Decimal_op_Implicit_m4246329390
P8e:_ArgumentNullException__ctor_m2252076819
y9a:__ZN10GameObjectC2E18MemLabelIdentifier18ObjectCreationMode
M4c:_raccess_guess_apple_double
iVf:_ListDictionary_GetEnumerator_m1511032609
x9f:_SerializationInfo__ctor_m4016423422
cJa:__ZL18ProgramUniform1uivPK7ApiGLESjiihPKv
fAc:__ZN27ShapeModulePropertyBindings13GetFloatValueERK14ParticleSystemi
i3b:__ZN14Texture2DArray13RebuildMipMapEv
gGj:__ZN13Il2CppHashSetIPK17Il2CppGenericInstN6il2cpp8metadata21Il2CppGenericInstHashENS4_24Il2CppGenericInstCompareENSt3__29allocatorI10KeyWrapperIS2_EEEEC2EjRKS5_RKS6_
EGb:__Z18Transfer_BlittableI14SafeBinaryReadLb1EaEvRK29SerializationCommandArgumentsR31RuntimeSerializationCommandInfo
yak:__ZN6il2cpp2gc16GarbageCollector14RemoveWeakLinkEPPv
RXb:__ZN9ShaderLab20SerializedSubProgram14AddVectorParamEPKcii15ShaderParamTypei
_Ef:_ReadOnlyCollection_1_System_Collections_IEnumerable_GetEnumerator_m1734360860_gshared
cOi:_ResourceSet_ReadResources_m1669023823
Y6e:_PKCS12_RemoveCertificate_m1590055870
q$j:__ZN6il2cpp2vm6Thread7SetNameEP12Il2CppThreadP12Il2CppString
Oga:__ZN13ScreenManager18SetAllowCursorLockEb
$W:__ZN11UnityEngine15CloudWebService10RestClientINS0_23WebRequestRestHeaderMapEE16SetRequestHeaderERKN4core12basic_stringIcNS4_20StringStorageDefaultIcEEEESA_
pCb:__ZN30RuntimeInitializeOnLoadManager15ClassMethodInfo8TransferI14SafeBinaryReadEEvRT_
cGc:__ZN23ParticleSystemParticles14element_assignEjj
SBi:__ZL73CanvasScaler_t2574720772_CustomAttributesCacheGenerator_m_ScreenMatchModeP21CustomAttributesCache
BT:__ZL22InitializeModule_Audiov
Keb:__ZN16MemoryFileSystem8IsLockedERK13FileEntryData
Nhj:_Vector2_get_Item_m2792130561_AdjustorThunk
P3g:_MonoCMethod_Invoke_m931478014
btg:__Z86RuntimeInvoker_Int32_t2071877448_Int16_t4041245914_Int32_t2071877448_Int32_t2071877448PFvvEPK10MethodInfoPvPS4_
jOi:_SatelliteContractVersionAttribute__ctor_m2605651717
dl:_emscripten_glBindRenderbuffer
Vpc:__Z32GUIStyle_Set_Custom_PropClippingP12Il2CppObjecti
Hgk:_GC_dirty_init
D$d:_Array_Copy_m1969461849
R8f:_MessageFormatter_ReadMethodResponse_m4134629501
l7j:__ZN6il2cpp2vm5Field14GetValueObjectEP9FieldInfoP12Il2CppObject
rid:__ZNK2UI6Canvas16GetTargetDisplayEv
zkj:_PKCS12_GetSymmetricAlgorithm_m3196291685
$Ai:__ZL68Selectable_t1490392188_CustomAttributesCacheGenerator_m_InteractableP21CustomAttributesCache
aoe:_Environment_get_OSVersion_m1247315981
v9:__ZN6Object17FindObjectsOfTypeEPKN5Unity4TypeER13dynamic_arrayIPS_Lj4EEb
oDb:__ZN13MonoBehaviour17RemoveFromManagerEv
pkb:__ZN12ImageFilters14AddImageFilterERK11ImageFilter
Vsb:__ZL11DecodeValuePPKcS0_
oIh:_ShimEnumerator_MoveNext_m2013866013_gshared
r_:__ZN13MemoryManagerC2Ev
$La:__ZN12SkinMeshInfo10DeallocateEPS_
Wgj:_Transform_SetParent_m1963830867
ETa:__ZN20ArchiveStorageReader28AcquireAndPrefillUnusedBlockEjPNS_11CacheResultE
b3b:__Z12NHxRoughnessIA4_tEvP9Texture2DPT_iiii
W9:__ZN18AsyncUploadManagerD2Ev
FZb:__ZN9Transform5ResetEv
rMb:__Z22TransferField_NonArrayI24GenerateTypeTreeTransfer16Converter_StringEvRK23StaticTransferFieldInfoR31RuntimeSerializationCommandInfoRT0_
Z6c:_UNITY_FT_CMap_New
Ega:__Z17MainLoopKeepalivePv
k6i:_MatchCollection__ctor_m1944681790
Ytd:_HMACSHA512__ctor_m1667460019
u6a:__Z24ScheduleCullingAllGroupsR8JobFenceRK22SceneCullingParameters4PPtrI6CameraERK13CullingOutputRK13dynamic_arrayIP12CullingGroupLj4EERKS_
Imk:_printf_core
G5a:__Z14CalcHullBoundsPK8Vector3fPKhhRK5PlaneRK10Matrix4x4fR10MinMaxAABB
R6f:_RealProxy__ctor_m2147093603
MQ:__ZNK14SoundHandleAPI12GetFrequencyEv
t_a:__Z19SetupLODFadeKeywordR17ShaderPassContexti
lfk:_GC_set_fl_marks
uLa:__ZL25CheckCopyTextureArgumentsRK7ApiGLESP11GLESTextureS3_
tAc:__ZN24UVModulePropertyBindings13AddPropertiesER10vector_mapIi22ParticleModulePropertyNSt3__24lessIiEENS2_9allocatorINS2_4pairIiS1_EEEEE
P9:__ZN13dynamic_arrayI26EnlightenSystemInformationLj8EE6insertEPS0_PKS0_S4_
D6c:_tt_name_entry_ascii_from_utf16
XYe:_MulticastNotSupportedException__ctor_m2164514827
hhe:_DateTime_System_IConvertible_ToChar_m2489529194_AdjustorThunk
WLb:__Z29Transfer_Blittable_ArrayFieldI24GenerateTypeTreeTransferyEvRT_R9ArrayInfoRK23StaticTransferFieldInfo
bM:__ZN4FMOD7SystemI9playSoundE17FMOD_CHANNELINDEXPNS_5SoundEbPPNS_7ChannelE
Jwh:_AttributeHelperEngine_GetRequiredComponents_m120894667
WZ:__GLOBAL__sub_I_runtime_graphics_mesh2_lump_cpp
Lw:__ZN27AnimationLayerMixerPlayable17LayerMixerProcessEP35AnimationPlayableEvaluationConstantP32AnimationPlayableEvaluationInputP33AnimationPlayableEvaluationOutputM17AnimationPlayableFvS1_S3_S5_EMS_FvS1_S3_S5_ESA_MS_FvS5_S1_S3_S5_ifE
PQj:__ZN6il2cpp2os4File4ReadEPNS0_10FileHandleEPciPi
FK:__ZN12AudioManager23VirtualRedirectTransferER18StreamedBinaryReadILb0EE
xvb:__ZN10VertexData13SwapEndianessEv
cpk:_realloc
rzc:__ZN27ColorModulePropertyBindings13GetFloatValueERK14ParticleSystemi
Xlc:__Z57Register_UnityEngine_Transform_INTERNAL_get_localRotationv
ylg:_Type_get_IsInterface_m3583817465
ftk:dynCall_viif
z4g:_MonoField_get_DeclaringType_m1591666235
y3f:_Enumerator_MoveNext_m4234629003
obd:_cf2_hint_lock
KJb:__ZL26Transfer_SimpleNativeClassI17RemapPPtrTransfer8GradientLb0EEvRK29SerializationCommandArgumentsR31RuntimeSerializationCommandInfo
mOc:__ZL32TransformParticleMeshAnimatedUVsILb1EEvRK16ParticleMeshDataiRK22ParticleSystemTempDataRK31ParticleSystemParticlesTempData11ColorRGBA32RK26ParticleSystemRendererDataRK21ParticleSystemModulesRK10Matrix4x4fRK10Matrix3x3fRK8Vector3fRK23ParticleSystemParticlesjPPhPPf
bQg:__Z59RuntimeInvoker_Boolean_t3825574718_RaycastHit2D_t4063908774PFvvEPK10MethodInfoPvPS4_
UXe:_MonoType_GetDefaultConstructor_m925465120
mmg:_Type_IsArrayImpl_m3073208555
JX:__ZN13UploadHandlerD2Ev
trk:dynCall_viiiiiffi
Oc:_emscripten_glBlendFuncSeparate
d2:__Z20scripting_string_newPKc
pkc:__Z43Material_CUSTOM_Internal_CreateWithMaterialP12Il2CppObjectS0_
AQe:_Directory_GetCurrentDirectory_m44486537
Zpf:_Collection_1_System_Collections_ICollection_CopyTo_m1047946700_gshared
ZWc:__ZN16PhysicsManager2D20GetRigidBodyVelocityERK11Rigidbody2D
$Yf:_AsnEncodedData_Default_m4197142414
DQj:__ZN6il2cpp2os4File17GetFileAttributesERKNSt3__212basic_stringIcNS2_11char_traitsIcEENS2_9allocatorIcEEEEPi
UB:__ZNSt3__26__sortIRPFbPKN8Animator11AnimatorJobES4_EPS4_EEvT0_S9_T_
VJ:__ZN17AudioCustomFilterD2Ev
jI:__Z91Register_UnityEngine_Animations_AnimatorControllerPlayable_INTERNAL_CALL_ResetTriggerStringv
akh:_PlayableHandle_GetPlayState_m514486667
yoc:__ZNK8GUIStyle13GetLineHeightEv
EKa:__ZN18GfxFramebufferGLES18ReleaseFramebufferEP17RenderSurfaceBaseP14GfxContextGLES
ERi:_Context_GetDynamicPropertyCollection_m1987747444
m_f:_X509Certificate2_get_Version_m1927399907
$4b:__ZN13ProduceHelperI6CameraLb0EE7ProduceE18MemLabelIdentifier18ObjectCreationMode
vVd:_Image_RadialCut_m3229543088
fZ:__ZN19CloudServiceHandler34HandleSaveFileWebRequestPlayerLoopEv
ay:__ZN7mecanim21ValueArrayReverseCopyEPKNS_18ValueArrayConstantEPKNS_10ValueArrayES2_PS3_PKi
GJ:__Z31GetParentSampleClipFromInstancePN11SoundHandle8InstanceE
H0b:__ZNK28RectTransformPropertyBinding13GetFloatValueERKN11UnityEngine9Animation10BoundCurveE
w8a:__ZN6Camera22StandaloneCustomRenderENS_10RenderFlagEP6ShaderRKN4core12basic_stringIcNS3_20StringStorageDefaultIcEEEEPNS_21PerformRenderFunctionE
wlk:__ZN6il2cpp2os16ThreadLocalValue8GetValueEPPv
tKj:__ZN6il2cpp2vm13MetadataCache14GetGenericInstEPKPK10Il2CppTypej
Bxd:_SHA384Managed_Initialize_m712692291
eQi:_ChannelInfo__ctor_m2502026239
Wb:invoke_iiidii
omc:__Z52Object_CUSTOM_GetOffsetOfInstanceIDInCPlusPlusObjectv
Ap:setThrew
V2b:__ZL21BuildEmptyCubeTexturePKci11ColorRGBA3217TextureColorSpace
STb:__ZN14SafeBinaryRead21TransferSTLStyleArrayINSt3__26vectorIN9ShaderLab20SerializedSubProgramENS1_9allocatorIS4_EEEEEEvRT_17TransferMetaFlags
Mvc:__Z15Transfer_StringI8JSONReadLb1EEvRK29SerializationCommandArgumentsR31RuntimeSerializationCommandInfo
Mqa:__ZN6prcoreL17RemapGenericFloatI17TexFormatRGBFloat15TexFormatRGHalfEEvPKNS_9InnerInfoE
L$a:__Z25DoForwardShaderRenderLoopR17RenderLoopContextR13dynamic_arrayI16RenderObjectDataLj4EERK11CullResultsbbbN6Camera10RenderFlagE
yGe:_GameObject_GetComponent_TisRuntimeObject_m2812611596_gshared
b6c:_sfnt_load_face
f6e:_PKCS12_GetSymmetricAlgorithm_m1812022677
lhg:_UTF8Encoding_GetByteCount_m2372933408
BRi:_Context_get_NeedsContextSink_m1907794755
U5c:_UNITY_ft_service_list_lookup
oJf:_ARC4Managed_GenerateKey_m716135508
boc:__ZN5IMGUI21SelectReceivingWindowER8GUIStateb
qF:__ZNK26AnimatorControllerPlayable17ValidateGoToStateERiS0_
g0i:_InternalEnumerator_1_get_Current_m3179981210_gshared
agb:__ZN13BaseAllocator13TryDeallocateEPv
n$d:_Array_CreateInstance_m1054139389
Dah:_GUIStyleState_GetGUIStyleState_m2816150617
ERc:__ZNK12b2MotorJoint17GetReactionTorqueEf
ykb:__ZNSt3__26vectorIN12FlareManager10FlareEntryENS_9allocatorIS2_EEE21__push_back_slow_pathIKS2_EEvRT_
$Xg:_Default_check_arguments_with_score_m1714931543
Ysd:_SHA1_Create_m4086509717
i5g:_MonoMethodInfo_GetMethodInfo_m3298558752
qK:__ZN13AudioListener17RemoveFromManagerEv
Id:_glAttachShader
BRd:_Dropdown_SetAlpha_m2769981009
nZa:__ZNK6Camera19GetProjectionMatrixEv
eCj:_Predicate_1_BeginInvoke_m1856151290_gshared
Ule:_StackTrace__ctor_m2404985356
V3:__Z38PreallocateObjectFromPersistentManagerib
vhe:_DateTime_System_IConvertible_ToSingle_m3927769066
YZ:__GLOBAL__sub_I_runtime_interfaces_lump_cpp
Zob:__ZNK9Texture2D20GetUnscaledTextureIDEv
Gfe:_Convert_ToSByte_m883113940
azk:_glFenceSync__wrapper
woe:_Exception_get_Message_m173095527
mI:__Z103Register_UnityEngine_Animations_AnimatorControllerPlayable_INTERNAL_CALL_IsParameterControlledByCurveIDv
opf:_Queue_1_Peek_m1463479953_gshared
Rzc:__ZNK14ParticleSystem7GetLoopEv
oxh:_AudioClipPlayable_INTERNAL_CALL_GetStartDelayInternal_m3715907549
pzi:__ZL53InputField_t1631627530_CustomAttributesCacheGeneratorP21CustomAttributesCache
aNd:_ButtonClickedEvent__ctor_m938038541
ESb:__ZN18StreamedBinaryReadILb0EE21TransferSTLStyleArrayI13dynamic_arrayI4AABBLj4EEEEvRT_17TransferMetaFlags
hAg:__Z119RuntimeInvoker_Int32_t2071877448_RuntimeObject_Int32_t2071877448_Int32_t2071877448_CharU26_t1894467670_SByte_t454417549PFvvEPK10MethodInfoPvPS4_
bng:_UInt16_System_IConvertible_ToDouble_m4100549304_AdjustorThunk
Yta:__Z29ClearRepeatingLogMessageStatev
fCd:_Single_System_IConvertible_ToInt16_m962677079
j9:__ZN21EnlightenSceneMappingaSERKS_
Olk:__ZNK6il2cpp8metadata21Il2CppGenericInstHashclEPK17Il2CppGenericInst
tCd:_Single_System_IConvertible_ToUInt32_m2447833283
VDf:_ReadOnlyCollection_1_System_Collections_IList_Add_m3806843030_gshared
tPa:__ZN7ApiGLESD2Ev
hab:__ZN9Transform47ClearTransformHierarchyAndApplyToSerializedDataEv
D_i:_InternalEnumerator_1_get_Current_m4083613828_AdjustorThunk
dzh:_Bounds_op_Equality_m2161830280
Udb:__ZN17PersistentManager9AddStreamEv
ytk:dynCall_fidi
$Sj:__ZN15dense_hashtableINSt3__24pairIK10KeyWrapperINS1_IPK9FieldInfoP11Il2CppClassEEEjEES9_17ReflectionMapHashIS8_EN14dense_hash_mapIS9_jSD_NS9_14EqualsComparerINS0_8equal_toIS8_EEEENS0_9allocatorISB_EEE9SelectKeyESI_SK_E12resize_deltaEjj
Uqc:__Z47Register_UnityEngine_GUIStyle_set_imagePositionv
vqc:__Z49GUIStyle_CUSTOM_INTERNAL_CALL_Internal_DrawCursor13Il2Cpp_IntPtrRK5RectTIfEP12Il2CppObjectiRK10ColorRGBAf
fnh:_RectTransform_set_anchorMin_m4247668187
sbc:__ZNK13MonoBehaviour13GetScriptTypeEv
Gia:__ZN13RenderTexture12SetDimensionE16TextureDimension
tdj:_ScriptableObject_CreateInstance_m3921674852
QJf:_MD4Managed__ctor_m796835377
xe:_SDL_FreeRW
w4e:_PKCS1_OS2IP_m1273945439
bxd:_SHA1Internal_FillBuff_m891541953
Kjd:__Z34CanvasRenderer_Get_Custom_PropCullP12Il2CppObject
SP:__ZN20SoundChannelInstance8getDelayE14FMOD_DELAYTYPEPjS1_
AWd:_InputField_set_customCaretColor_m3534590098
gIi:_ScrollRect_set_viewport_m323693490
xIe:_NumberFormatter_FormatExponential_m3975285307
q1c:__ZNSt3__26vectorIN20TextRenderingPrivate8FontImpl13CharacterInfoE13stl_allocatorIS3_L18MemLabelIdentifier1ELi16EEE8__appendEj
v:tempBigInt
Fe:_emscripten_glVertexAttrib1fv
wUb:__ZNSt3__26vectorIN9ShaderLab20SerializedSubProgram12UAVParameterENS_9allocatorIS3_EEE7reserveEj
Joh:_AnimationCurve_Init_m1486386337
aCh:_Component_GetComponents_m3712441745
o7h:__ZL99Thread_t241561612_CustomAttributesCacheGenerator_Thread_t241561612____ExecutionContext_PropertyInfoP21CustomAttributesCache
Ppj:_UnityAction_4_Invoke_m3312096275_gshared
lcj:_RectTransformUtility_ScreenPointToRay_m1842507230
K7a:__ZN16ReflectionProbes16UpdateSampleDataEv
DIc:__Z9UpdateTplIL27ParticleSystemCurveEvalMode1EEvRK11MinMaxCurveR23ParticleSystemParticlesjjPKN4math8floatNx3E
sFb:__ZN14SafeBinaryRead21TransferSTLStyleArrayI10vector_setI4PPtrI10MonoScriptENSt3__24lessIS4_EE13stl_allocatorIS4_L18MemLabelIdentifier76ELi16EEEEEvRT_17TransferMetaFlags
xPi:_SafeHandle_Finalize_m1839546519
rxc:__ZN8JSONRead21TransferSTLStyleArrayINSt3__26vectorI10RectOffset13stl_allocatorIS3_L18MemLabelIdentifier1ELi16EEEEEEvRT_S5_17TransferMetaFlags
kSi:_Context_AllocateNamedDataSlot_m3200404053
vJf:_CryptoConvert_ToHex_m2874017189
kZf:_X509EnhancedKeyUsageExtension_Decode_m3866320499
tIe:_NumberFormatter_AppendIntegerStringWithGroupSeparator_m1401773574
af:_JS_Sound_Play
KVd:_Image_IsRaycastLocationValid_m864962354
qwg:__Z181RuntimeInvoker_Void_t1841601450_RuntimeObject_Int32_t2071877448_Int32_t2071877448_RuntimeObject_Int32_t2071877448_Int32_t2071877448_RuntimeObject_Int32_t2071877448_Int32_t2071877448PFvvEPK10MethodInfoPvPS4_
tTb:__ZN9ShaderLab16SerializedShader8TransferI14SafeBinaryReadEEvRT_
mB:__ZN7mecanim8skeleton13SkeletonAlignEPKNS0_8SkeletonERKN4math7_float4ES7_i
O3b:__ZN19ShaderPropertySheet16SetVectorIndexedEN9ShaderLab16FastPropertyNameEifRK8Vector4fNS_8SetFlagsE
Tq:__ZN14SafeBinaryRead21TransferSTLStyleArrayIN4core12basic_stringIcNS1_20StringStorageDefaultIcEEEEEEvRT_17TransferMetaFlags
l7f:_RemotingConfiguration_RegisterWellKnownServiceType_m2491506630
_1h:__ZL55_TypeBuilder_t2783404358_CustomAttributesCacheGeneratorP21CustomAttributesCache
pif:_List_1_System_Collections_IList_IndexOf_m4061554721_gshared
OY:__ZN11UnityEngine15CloudWebService14DataDispatcher4StopEv
eqh:_AnimationLayerMixerPlayable_SetLayerAdditive_m4206337590_AdjustorThunk
LBc:__ZN15CollisionModule16CheckConsistencyEv
yUb:__ZNSt3__26vectorIN9ShaderLab20SerializedSubProgram12UAVParameterENS_9allocatorIS3_EEE8__appendEj
jzd:_X509Certificate_ToString_m1582581274
eKh:_Enumerator_get_Current_m2986380627_gshared
qla:__ZN17ScriptingGCHandle7AcquireE18ScriptingObjectPtr25ScriptingGCHandleWeakness
lRi:_LifetimeServices_set_LeaseTime_m1487876644
lZg:_ConstructorBuilder_not_supported_m3687319507
NT:__ZN19AudioPlayableOutputC2EjP13PlayableGraph
kCd:_Single_System_IConvertible_ToInt64_m3555853323_AdjustorThunk
lsk:dynCall_iifiii
Cva:__Z21HasAlphaTextureFormat13TextureFormat
KS:__ZN12AudioManager6UpdateEv
xva:__ZN14ImageReference9BlitImageERKS_NS_8BlitModeE
Ns:__ZN8Animator12AddToManagerEv
o9b:__Z26ApplyBlendShapesToVerticesR12SkinMeshInfoRKN4math5_int4EPNS1_8floatNx3ES6_
kEb:__ZN23CachedSerializationDataD2Ev
o7a:__ZNK25CameraStackRenderingState31CalculateStereoCameraTargetTypeEv
Nmb:__ZN14RenderSettings23VirtualRedirectTransferER14SafeBinaryRead
_Pc:__ZNK13b2CircleShape5CloneEP16b2BlockAllocator
x9j:__ZN6il2cpp2os10ThreadImpl15CurrentThreadIdEv
ure:_Array_InternalArray__ICollection_Contains_TisColor32_t874517518_m2818328910_gshared
ged:_UNITY_tt_face_load_fpgm
Xyb:__ZN12InputManagerD0Ev
Hjk:__ZN6il2cpp6icalls8mscorlib6System11Diagnostics10StackTrace9get_traceEP15Il2CppExceptionib
VPd:_DefaultControls_CreateUIObject_m2810394112
och:_GUIStyle_get_overflow_m1125058093
Xua:__ZNK16LightmapSettings14GetLightProbesEv
ggg:_UnicodeEncoding_GetBytes_m1337660232
kRb:__Z18Transfer_BlittableI18StreamedBinaryReadILb0EELb1EtEvRK29SerializationCommandArgumentsR31RuntimeSerializationCommandInfo
hpk:_posix_memalign
c4b:__ZN13ProduceHelperI12MeshRendererLb0EE7ProduceE18MemLabelIdentifier18ObjectCreationMode
N3i:_InternalEnumerator_1_get_Current_m747506907_AdjustorThunk
pzh:_Camera_get_eventMask_m4241372419
_4:__ZNK15MonoScriptCache7ReleaseEv
XEj:__ZN6il2cpp2vm5Class13HasReferencesEP11Il2CppClass
pg:_glBindTexture
wnk:_snprintf
gjg:_ThreadAbortException__ctor_m1623816114
hXd:_InputField_set_caretPosition_m888572237
C0g:_ILGenerator__cctor_m3943061018
o6d:_ArrayListWrapper_Clone_m1506311066
jEh:_Event_get_character_m3740896233
Jsa:__Z36scripting_liveness_calculation_begin17ScriptingClassPtriPFvPP12Il2CppObjectiPvES3_PFvvES7_
pNa:__ZN16UniformCacheGLES6CreateERK20GpuProgramParameters
uhg:_UTF8Encoding_Fallback_m811555654
jpg:_UInt64_CompareTo_m3513742483
Uwe:_Array_InternalArray__IndexOf_TisPlayableBinding_t2498078091_m398853908_gshared
Xeg:_Encoding_GetString_m1894033578
QCf:_ReadOnlyCollection_1_System_Collections_IList_Clear_m1918003010_gshared
qwk:_emscripten_glGetProgramInfoLog__wrapper
RD:__ZN25AnimatedPropertyEvaluator29BindCurveToScriptingObjectPtrERKN13AnimationClip10FloatCurveEj18ScriptingObjectPtrb
yhg:_UTF8Encoding_InternalGetChars_m373801468
Q6:__ZN17PersistentManager23DestroyFromFileInternalEi
Rje:_Decimal_System_IConvertible_ToChar_m2425091200_AdjustorThunk
X$a:__Z19SetupMotionMatricesR6CameraR18RPDataMotionVector
Une:_Enum_ToString_m2112979707
lfj:_TextGenerator_ValidatedSettings_m1640214759
W4f:_MonoMethodMessage_get_MethodName_m3580519713
BC:__ZN26AnimatorControllerPlayable18PrepareForPlaybackERN7mecanim6memory9AllocatorE
Kve:_Array_FindLastIndex_TisRuntimeObject_m986818300_gshared
phg:_UTF8Encoding_GetBytes_m4170182058
kma:__ZN22CreateGpuProgramOutputC2Ev
W$f:_X509Chain__ctor_m2242540866
SSe:_MemoryStream_InternalConstructor_m2423667240
R5f:_SoapMethodAttribute_SetReflectionObject_m3431595769
IKi:_Slider_set_maxValue_m2951480075
hmd:__Z38CustomEventData_CUSTOM_InternalDestroyP12Il2CppObject
H4b:__ZN8GUILayer12CleanupClassEv
vYd:_InputField_OnSubmit_m2856515494
WEj:__ZN6il2cpp2vm5Class4InitEP11Il2CppClass
ha:invoke_vidi
Rhd:__ZN2UI14CanvasRenderer17SyncDirtyElementsER8JobFence
MOd:_ColorBlock_op_Inequality_m1517672458
Dck:__ZN6il2cpp5utils11StringUtils15StringDuplicateEPKc
n9a:__Z15CanAddComponentR10GameObjectPKN5Unity4TypeE
Dla:__ZNK9ShaderLab21ShaderRasterStateDesc16ToGfxRasterStateEPK19ShaderPropertySheetS3_R14GfxRasterState
e$:_tlsf_memalign
Ocg:_CspParameters__ctor_m2480441577
Dlk:__ZN6il2cpp2os9EventImplC2Ebb
QJc:__Z12RangedRandomR5RandNRKiS2_
NRi:_DynamicPropertyCollection_NotifyMessage_m840388347
Taj:_Uri_ParseUri_m5711497
yFg:__Z98RuntimeInvoker_RuntimeObject_RuntimeObject_RayU26_t3651946800_Single_t2076509932_Int32_t2071877448PFvvEPK10MethodInfoPvPS4_
Q$:__Z20IsMatrixBuiltinParamPKcPi
xtf:_Collection_1_CheckWritable_m2467777750_gshared
v3b:__ZN8Renderer19PostInitializeClassEv
NVi:_InternalEnumerator_1_get_Current_m1943362081_AdjustorThunk
Oij:_Vector3_get_sqrMagnitude_m1814096310_AdjustorThunk
Rhk:__ZN6il2cpp6icalls8mscorlib6System8Delegate23CreateDelegate_internalEP20Il2CppReflectionTypeP12Il2CppObjectP22Il2CppReflectionMethodb
VXg:_Default_check_type_m2363631305
ADb:__ZN18DelayedCallManager18CancelCallDelayed2E4PPtrI6ObjectEPF15CallObjectStatePS1_PvES7_
fgb:__ZN25ThreadsafeLinearAllocator10ReallocateEPvji
ZFb:__Z18Transfer_BlittableI14SafeBinaryReadLb1E11QuaternionfEvRK29SerializationCommandArgumentsR31RuntimeSerializationCommandInfo
Cda:__ZN18SpriteAtlasManagerD0Ev
Wwe:_Array_InternalArray__IndexOf_TisRaycastHit2D_t4063908774_m3739817942_gshared
I5g:_MonoProperty_GetAccessors_m3704698731
shk:_GC_disable
Lvb:__ZN10Matrix4x4f8TransferI14SafeBinaryReadEEvRT_
hWe:_UnmanagedMemoryStream_ReadByte_m2501145010
$8f:_ObjectRecord_UnchainFixup_m3025030310
h7:__Z6AppendRKN4core12basic_stringIcNS_20StringStorageDefaultIcEEEEPKc
wOb:__Z18Transfer_BlittableI18StreamedBinaryReadILb1EELb0E8Vector3fEvRK29SerializationCommandArgumentsR31RuntimeSerializationCommandInfo
xFg:__Z81RuntimeInvoker_RuntimeObject_Ray_t2469606224_Single_t2076509932_Int32_t2071877448PFvvEPK10MethodInfoPvPS4_
rGa:__ZN7ApiGLES18ClearBufferSubDataEjN2gl12BufferTargetEll
Rec:__Z37Camera_Get_Custom_PropAllCamerasCountv
Yub:__ZN14Texture2DArray8TransferI18StreamedBinaryReadILb0EEEEvRT_
A$j:__ZN6il2cpp6icalls8mscorlib6System5Array9GetLengthEP11Il2CppArrayi
p4a:__Z18ApplyOcclusionMaskR19ProbeOcclusionCacheRK17LightProbeContextRK10RenderNodeb
kSe:_FileStreamAsyncResult__ctor_m1096228032
J8c:_Split_Cubic
ib:invoke_fiiii
rje:_DBNull_System_IConvertible_ToSByte_m1228193074
csf:_Collection_1__ctor_m2818834331_gshared
kGe:_Array_InternalArray__get_Item_TisUICharInfo_t3056636800_m3872982785_gshared
DEg:__Z68RuntimeInvoker_UInt16_t986882611_UInt16_t986882611_UInt16_t986882611PFvvEPK10MethodInfoPvPS4_
$kf:_List_1__ctor_m2168280176_gshared
ath:_AnimatorControllerPlayable_INTERNAL_CALL_GetLayerIndexInternal_m2875146206
zkk:__ZN6il2cpp2vm14MetadataLoader16LoadMetadataFileEPKc
z9j:__ZN6il2cpp2os10ThreadImpl22CreateForCurrentThreadEv
MRe:_FileStream_FlushBuffer_m2594140542
nrc:__Z64Register_UnityEngine_GUIStyle_GetFontInternalDuringLoadingThreadv
v8c:_ft_black_render
pdk:__ZN6il2cpp2vm8Profiler12GCHeapResizeEx
Gtk:dynCall_viiifi
gKa:__ZN18GfxFramebufferGLES20ActiveContextChangedEPP17RenderSurfaceBaseS2_
cKa:__Z19PluginsRenderMarkeri
qE:__ZN10HumanTrait18InitializeBoneNameEv
Qkj:_X509CertificateEnumerator_get_Current_m3129374511
b5j:__ZNSt3__214__split_bufferIN6il2cpp2vm5Image20EmbeddedResourceDataERNS_9allocatorIS4_EEEC2EjjS7_
zUd:_HorizontalOrVerticalLayoutGroup_get_spacing_m2859152439
j1h:__ZL57DispIdAttribute_t607560947_CustomAttributesCacheGeneratorP21CustomAttributesCache
cK:__ZN12AudioManager17RemoveAudioSourceEP11AudioSource
$xk:_emscripten_glBindProgramARB__wrapper
SCh:_CullingGroup_Finalize_m3172731580
ogh:_Matrix4x4__cctor_m3092679229
_Fe:_Array_InternalArray__get_Item_TisUInt64_t2909196914_m2580870875_gshared
G1b:__ZN13ProduceHelperI14SpriteRendererLb0EE7ProduceE18MemLabelIdentifier18ObjectCreationMode
IU:__ZN5physx14PxLightCpuTask12addReferenceEv
fYc:__Z10b2DistanceP16b2DistanceOutputP14b2SimplexCachePK15b2DistanceInput
_qb:__ZN21EnlightenSceneMapping8TransferI19StreamedBinaryWriteILb0EEEEvRT_
C6j:__ZN6il2cpp2gc16GarbageCollector19InitializeFinalizerEv
cy:__ZN7mecanim8skeleton18CreateSkeletonMaskEjPKNS0_19SkeletonMaskElementERNS_6memory9AllocatorE
Hnc:__ZN10GUIManager10DoGUIEventER10InputEventb
YKb:__Z35Transfer_Blittable_FixedBufferFieldI24GenerateTypeTreeTransferxEvRK29SerializationCommandArgumentsR31RuntimeSerializationCommandInfo
R0:__Z20CalculateSqrDistanceRK8Vector3fRK4AABB
R7j:__ZN6il2cpp2vm12GenericClass8GetClassEP18Il2CppGenericClass
UN:__Z32AudioMixerDuckingProcessCallbackP21UnityAudioEffectStatePfS1_jii
IYg:_CustomAttributeTypedArgument_GetHashCode_m999147081_AdjustorThunk
y2b:__ZN26CustomRenderTextureManagerD2Ev
VRe:_FileStream_Read_m3880951166
KK:__ZN12AudioManager8TransferI24GenerateTypeTreeTransferEEvRT_
ELc:__ZN16CustomDataModuleD0Ev
lpa:__Z25GetBytesFromTextureFormat13TextureFormat
Owh:_AudioClipPlayable__ctor_m1273139759
KD:__ZN16MecanimAnimation25RegisterIAnimationBindingEPKN5Unity4TypeEiP17IAnimationBinding
W4:__Z32scripting_class_get_assemblyname17ScriptingClassPtr
kYc:__ZN9b2Simplex9ReadCacheEPK14b2SimplexCachePK15b2DistanceProxyRK11b2TransformS5_S8_
tMh:_Dictionary_2_Resize_m2532139610_gshared
Cej:_StackTraceUtility__cctor_m1132099289
Ekg:_TimeSpan_Equals_m2029123271_AdjustorThunk
SKj:__ZN6il2cpp2vm13MetadataCache23GetInvokerMethodPointerEPK10MethodInfoPK20Il2CppGenericContext
xOa:__ZN9GfxDevice21RegisterNativeTextureE9TextureIDi16TextureDimension
Npe:_CultureInfo__ctor_m456863818
Uik:__ZN6il2cpp6icalls8mscorlib6System10Reflection4Emit11TypeBuilder20create_generic_classEP27Il2CppReflectionTypeBuilder
Ibf:_Enumerator_MoveNext_m2504790928_gshared
Tah:_GUISkin_set_button_m412653849
dj:_emscripten_glUniformMatrix4fv
rYb:__ZN12ScriptMapperD2Ev
OBc:__ZN9SubModule8TransferI14SafeBinaryReadEEvRT_
gzc:__ZN14ParticleSystem15AddCustomLightsERK27LocalLightCullingParametersRK11CullResultsR12ActiveLightsRi9LightType
Dtd:_KeyedHashAlgorithm_Dispose_m1864300576
Jkj:_X509Certificate_PEM_m49854707
euh:_AnimatorControllerPlayable_GetParameter_m4243058543_AdjustorThunk
nZf:_X509BasicConstraintsExtension__ctor_m3320418592
Tjj:_ExtendedKeyUsageExtension_Decode_m901297139
mlc:__Z52Register_UnityEngine_RenderTexture_Internal_GetWidthv
cgk:_GC_check_leaked
ZWb:__ZN9ShaderLab20SerializedSubProgram16TextureParameter8TransferI19StreamedBinaryWriteILb0EEEEvRT_
BAe:_Array_InternalArray__Insert_TisVector4_t2243707581_m1643342708_gshared
Ahb:__ZNK7Hash12812PackToUInt32Ev
WY:__ZN11UnityEngine15CloudWebService16SessionContainer8AddEventEPNS0_14CloudEventInfoE
rNa:__Z4TrimRKN4core12basic_stringIcNS_20StringStorageDefaultIcEEEES5_
QLi:_Text_set_resizeTextMaxSize_m4034967714
gYh:__ZL55GuidAttribute_t222072359_CustomAttributesCacheGeneratorP21CustomAttributesCache
e8g:_GUIStyle_SetDefaultFont_m2095841351
tYg:_CustomAttributeNamedArgument_Equals_m2691468532
ttb:__ZN10VertexData8TransferI14SafeBinaryReadEEvRT_
XL:__ZN4FMOD8ChannelI8setDelayE14FMOD_DELAYTYPEjj
sbe:_Stack__ctor_m2410583781
TXg:_Default_GetBetterMethod_m4255740863
wZg:_ConstructorBuilder_GetILGenerator_m1731893569
d5j:__ZNSt3__214__split_bufferIN6il2cpp2vm5Image20EmbeddedResourceDataERNS_9allocatorIS4_EEED2Ev
a3:__ZL20SortItemByInstanceIDRKN18AwakeFromLoadQueue4ItemES2_
a2g:_TypeBuilder_create_runtime_class_m2719530260
$vd:_RNGCryptoServiceProvider_RngClose_m2921734810
lKc:__ZN14ParticleSystem24StartParticlesProceduralERS_R23ParticleSystemParticlesfffjj
wy:__ZNK34AnimationStateMachineMixerPlayable26GetInterruptedPosePlayableEv
Opd:__ZN20UnityConnectSettings8TransferI24GenerateTypeTreeTransferEEvRT_
PA:__ZN34BlobWriteTransferSTLStyleArrayImplI22OffsetPtrArrayTransferIbEEclERS1_17TransferMetaFlagsR9BlobWrite
W_e:_SimpleCollator_IsHalfKana_m4255579023
aqf:_Collection_1_System_Collections_IList_Contains_m3365884450_gshared
jTa:__Z16FlaggedAsSkippedIN4core12basic_stringIcNS0_20StringStorageDefaultIcEEEEEbRK13FileEntryInfoRKT_19FileEnumerationFlag
$8:__ZL31InitializeRendererUpdateManagerPv
kCg:__Z106RuntimeInvoker_RuntimeObject_Int16_t4041245914_RuntimeObject_BooleanU26_t3168250738_BooleanU26_t3168250738PFvvEPK10MethodInfoPvPS4_
mOf:_ClientSessionInfo_Dispose_m2571428025
FZd:_LayoutGroup_DelayedSetDirty_m4276695617
yRf:_RecordProtocol_decryptRecordFragment_m2510859489
Mzb:__ZN11TimeManager8TransferI19StreamedBinaryWriteILb0EEEEvRT_
BSe:_DelegatePInvokeWrapper_ReadDelegate_t3184826381
I9c:_compare_uni_maps
Wnd:__ZN11UnityEngine15PlatformWrapper27GetGraphicsCapsSupportFlagsEv
Ike:_Decimal_Equals_m1115043331
fOb:__ZN12NativeBufferI16Converter_StringE15SetupForWritingER9ArrayInfo
svk:___cxa_end_catch__wrapper
ZNc:__ZL24GenerateParticleGeometryIL24ParticleSystemRenderMode0ELb1ELb0EL25ParticleSystemRenderSpace4EEvPfRK22ParticleSystemTempDataRK26ParticleSystemRendererDataRK21ParticleSystemModulesRK23ParticleSystemParticlesRK31ParticleSystemParticlesTempData
sLh:_ValueCollection_System_Collections_Generic_ICollectionU3CTValueU3E_Clear_m231380274_gshared
GId:_Entry__ctor_m1176697586
X8a:__ZN13MonoBehaviour22DoScriptRebuildWarningEv
Tec:__Z38Camera_CUSTOM_INTERNAL_CALL_RaycastTryP12Il2CppObjectRK3Rayfi
ZLi:_Text_get_verticalOverflow_m3134063496
K5b:__ZNK10GameObject22GetComponentPtrAtIndexEi
SOi:_GCHandle_get_Target_m2327042781
gNd:_Button_OnFinishSubmit_m1646528571
Wqk:_llvm_cttz_i32
IZf:_PublicKey_DecodeDSA_m1169363495
Poc:__ZN11IMGUIModule25GetGUIStyleScriptingClassEv
Gcd:_tt_get_interface
QCe:_Array_Sort_TisRuntimeObject_m143182644_gshared
y0j:__ZN6il2cpp5utils9PathUtils7CombineIcEENSt3__212basic_stringIT_NS3_11char_traitsIS5_EENS3_9allocatorIS5_EEEERKSA_SC_
JVf:_NameObjectCollectionBase_BaseGet_m667273025
bzg:__Z104RuntimeInvoker_RuntimeObject_Byte_t3683104436_RuntimeObject_SByte_t454417549_RuntimeObject_RuntimeObjectPFvvEPK10MethodInfoPvPS4_
Bvc:__ZN9JSONWrite8TransferI13dynamic_arrayIiLj4EEEEvRT_PKc17TransferMetaFlags
g2:__Z18ConvertUTF16toUTF8PPKtS0_PPhS2_15ConversionFlags
Uak:__ZN6il2cpp2os20PathErrnoToErrorCodeERKNSt3__212basic_stringIcNS1_11char_traitsIcEENS1_9allocatorIcEEEEi
Ulg:_TypeLoadException__ctor_m1903359728
MCj:__ZL16my_g_bit_nth_msfj
aud:_KeySizes__ctor_m3526899007
aMe:_Int16_System_IConvertible_ToInt32_m191782913_AdjustorThunk
ohj:_SpriteAtlasManager__cctor_m1344469326
Oti:__ZL69ArgumentCache_t4810721_CustomAttributesCacheGenerator_m_FloatArgumentP21CustomAttributesCache
Vdg:_EncoderReplacementFallback__ctor_m2208438262
gZa:__Z23SetupStereoFlareElementP11FlareVertexRK8Vector2fS3_S3_RK11ColorRGBA32RK10Matrix4x4fRK8Vector3fb
Ua:invoke_iiiifiiii
eCf:_ReadOnlyCollection_1_System_Collections_Generic_ICollectionU3CTU3E_Remove_m3751131234_gshared
Lyc:__ZN9rapidjson8internal6u64toaEyPc
LQe:_Directory_GetFiles_m4036267478
pG:__Z64AnimationOffsetPlayable_CUSTOM_INTERNAL_CALL_GetRotationInternalR9HPlayableR11Quaternionf
KKa:__ZL19BlitFramebufferImplRN4gles23BlitFramebufferDrawQuadER9GfxDevice9TextureIDRK8Vector4f
BTj:__ZN15dense_hashtableINSt3__24pairIK10KeyWrapperIPK10Il2CppTypeEjEES6_N6il2cpp8metadata14Il2CppTypeHashEN14dense_hash_mapIS6_jSB_NS6_14EqualsComparerINSA_26Il2CppTypeEqualityComparerEEENS0_9allocatorIS8_EEE9SelectKeyESF_SH_E4findERS7_
DAf:_ReadOnlyCollection_1_System_Collections_IList_Add_m2333231354_gshared
f3c:_UNITY_FT_List_Add
S1g:_OpCodes__cctor_m939885911
AG:__Z87Register_UnityEngine_Animations_AnimationPlayableOutput_INTERNAL_CALL_InternalGetTargetv
bcj:_UriParser_InitializeAndValidate_m251943319
syd:_SymmetricAlgorithm_set_Padding_m3081984460
vzb:__ZN9InputAxis8TransferI18StreamedBinaryReadILb0EEEEvRT_
yBc:__ZN11ForceModule8TransferI14SafeBinaryReadEEvRT_
Gag:_StreamingContext_t1417235061_marshal_pinvoke_back
B5d:_ArrayList_RemoveAt_m2578928333
DGb:__Z18Transfer_BlittableI14SafeBinaryReadLb0EaEvRK29SerializationCommandArgumentsR31RuntimeSerializationCommandInfo
Jzf:_ReadOnlyCollection_1_System_Collections_IList_set_Item_m1233322304_gshared
_jj:_GeneralNames_get_DNSNames_m2721668874
YIc:__ZN11NoiseModule17CalculateNoiseJobILi3ELb1ELb1EEEvP12NoiseJobData
gne:_Enum_System_IConvertible_ToByte_m38374586
rzf:_ReadOnlyCollection_1_System_Collections_Generic_IListU3CTU3E_RemoveAt_m1592158292_gshared
Cuk:_emscripten_glFrustum__wrapper
QRf:_ReceiveRecordAsyncResult_get_CompletedWithError_m2670396551
tke:_Decimal_Equals_m1798565377
Z8b:__ZNSt3__26vectorINS_4pairI11ShaderTagIDS2_EENS_9allocatorIS3_EEE6assignIPS3_EENS_9enable_ifIXaasr21__is_forward_iteratorIT_EE5valuesr16is_constructibleIS3_NS_15iterator_traitsISA_E9referenceEEE5valueEvE4typeESA_SA_
I_g:_TypeBuilder_check_created_m2929267877
WCg:__Z121RuntimeInvoker_Int64_t909078037_Int32_t2071877448_Int32_t2071877448_Int32_t2071877448_Int32_t2071877448_Int32_t2071877448PFvvEPK10MethodInfoPvPS4_
_Va:__Z20SyncFenceCullResultsR11CullResults
gMa:__ZN15TextureTFMethod20IsBoneCountSupportedEi
sF:__ZN26AnimatorControllerPlayable9GotoStateEiifff
hbh:_GUISkin_set_horizontalScrollbarThumb_m2119687595
gte:_PlayableHandle_IsPlayableOfType_TisAudioMixerPlayable_t1831808911_m1065481197_AdjustorThunk
Mmb:__ZN14RenderSettings23VirtualRedirectTransferER24GenerateTypeTreeTransfer
uhe:_DateTime_System_IConvertible_ToSByte_m2575078084_AdjustorThunk
nKb:__Z22TransferField_NonArrayI17RemapPPtrTransfer27Converter_SimpleNativeClassI8GUIStyleEEvRK23StaticTransferFieldInfoR31RuntimeSerializationCommandInfoRT0_
Hvh:_AnimatorStateInfo_IsTag_m1529621725_AdjustorThunk
b1b:__ZNK17AnimationCurveTplIfE20EvaluateWithoutCacheEfRf
_8j:__ZN6il2cpp2os6Thread12QueueUserAPCEPFvPvES2_
Hma:__ZN19ShaderPropertySheet10SetTextureERK23FastTexturePropertyNameP7Texture
Udh:_GUIStyleState__ctor_m3611888666
Ksf:_Collection_1_IsValidItem_m1304951912_gshared
y8b:__ZN4Mesh10SetNormalsEPK8Vector3fj
Q$c:__Z66Register_UnityEngine_Physics2D_INTERNAL_CALL_GetRayIntersectionAllv
Hde:_Convert_ToDateTime_m4161927553
O_g:_TypeBuilder_GetConstructors_m774120094
uck:__ZNSt3__212basic_stringIDsNS_11char_traitsIDsEENS_9allocatorIDsEEE9__grow_byEjjjjjj
Sr:__ZN17AnimationCurveTplIfE8TransferI14SafeBinaryReadEEvRT_
yOc:__ZN22ParticleSystemRenderer15InitializeClassEv
Moe:_Calendar_get_EraNames_m452820602
Dsb:__ZNSt3__26vectorIN15QualitySettings14QualitySettingENS_9allocatorIS2_EEE6assignIPS2_EENS_9enable_ifIXaasr21__is_forward_iteratorIT_EE5valuesr16is_constructibleIS2_NS_15iterator_traitsIS9_E9referenceEEE5valueEvE4typeES9_S9_
rXa:__ZNK19ShaderPropertySheet11HasPropertyERKN9ShaderLab16FastPropertyNameE
fhe:_DateTime_System_IConvertible_ToByte_m2670443498_AdjustorThunk
j_:__GLOBAL__sub_I_runtime_utilities4_lump_cpp
gIf:_BigInteger_op_Addition_m1734797151
Rgf:_List_1_CheckMatch_m1814522134_gshared
h$g:_EnumBuilder_CreateNotSupportedException_m62763134
Ard:__ZNK12HeaderHelper3GetERKN4core12basic_stringIcNS0_20StringStorageDefaultIcEEEE
FWe:_Math_Log_m3371716878
s8g:_GUILayoutUtility_Layout_m3812180708
mzb:__ZN9InputAxis8TransferI14SafeBinaryReadEEvRT_
p3:__ZNK21ExecutionOrderManager30GetCustomAwakeFromLoadQueueForEPKN5Unity4TypeE
Xqd:__Z27RegisterModule_UnityConnectv
g9d:_Hashtable__ctor_m4280223555
g6g:_ParameterInfo_get_IsRetval_m1881464570
Wyh:_Bounds_get_size_m1728027642_AdjustorThunk
M6f:_RealProxy__ctor_m3041043303
NHe:_NumberFormatter_Init_m2654758994
Ntd:_HMACSHA1__ctor_m1168389339
FWc:__ZNK17Physics2DSettings22GetTypeVirtualInternalEv
bG:__Z96Register_UnityEngine_Animations_AnimationClipPlayable_INTERNAL_CALL_SetRemoveStartOffsetInternalv
pN:__ZN10ObjectPoolIN4FMOD12ChannelGroupENS0_13ChannelGroupIEE7SetSizeEi
P1e:_PrimalityTest_BeginInvoke_m966469054
lda:__ZN15dense_hashtableINSt3__24pairIKN4core12basic_stringIcNS2_20StringStorageDefaultIcEEEE13dynamic_arrayI4PPtrI6SpriteELj4EEEES6_20StringHash32FunctionIS6_EN14dense_hash_mapIS6_SC_SF_NS0_8equal_toIS6_EE13stl_allocatorISD_L18MemLabelIdentifier79ELi16EEE9SelectKeyESI_SL_E9copy_fromERKSO_j
Vog:_UInt64_System_IConvertible_ToInt16_m2797150165_AdjustorThunk
MFe:_Array_InternalArray__get_Item_TisLabelData_t3712112744_m863115768_gshared
GNe:_Int32_Parse_m753946802
Gfh:_Material_DisableKeyword_m1204728089
Jmf:_List_1_RemoveAt_m2331128844_gshared
Crh:_AnimatorControllerPlayable_GetFloatString_m3678921564
y2g:_UnmanagedMarshal_ToMarshalAsAttribute_m3695569337
_Hb:__Z14resize_trimmedINSt3__26vectorI17AnimationCurveTplIfE13stl_allocatorIS3_L18MemLabelIdentifier1ELi16EEEEEvRT_j
n7a:__ZN25CameraStackRenderingState19SetupLastEyeCamerasERK11CameraStack
udc:__Z12GUIDToStringRK9UnityGUID
Lsd:__GLOBAL__sub_I_runtime_vr_plugininterface_lump_cpp
DJ:__ZN11SoundHandleC2ERKS_
rEi:_Mask_OnEnable_m501850981
qJc:__Z9UpdateTplIL27ParticleSystemCurveEvalMode2EEvRK11MinMaxCurveR23ParticleSystemParticlesPfRKN4math7_float4Ejj
aAh:_Canvas_get_targetDisplay_m316548313
WG:__Z75AnimatorControllerPlayable_CUSTOM_INTERNAL_CALL_GetAnimatorClipInfoInternalR9HPlayableihP12Il2CppObject
u1e:_BigInteger_op_Addition_m1196561843
rRi:_FormatterData__ctor_m3974986124
lvd:_RijndaelManagedTransform_get_CanReuseTransform_m3735256596
D8d:_Comparer__cctor_m1327316974
GQe:_MonoIO_ExistsFile_m1421941572
Eie:_DateTime_op_GreaterThanOrEqual_m3818963848
Ov:__ZN17AnimationPlayable18DeallocateBindingsEv
oab:__ZN6Camera25StandaloneRenderToCubemapEP7TextureiPFvPK9SceneNodePK4AABBR9IndexListPvESA_j
YPd:_DefaultControls_SetDefaultTextValues_m1707718380
XLd:_TouchInputModule_UseFakeInput_m2112019004
YHd:_EventSystem_get_baseEventDataCache_m4294741599
ZJi:_Selectable_IsInteractable_m3245596965
Rmb:__ZN14RenderSettings18TransferDeprecatedI14SafeBinaryReadEEvRT_
E$:__ZN12TLSAllocatorI14StackAllocatorE8AllocateEji
k4:__ZN16ScriptingManager18GetMonoScriptCacheEi
Pug:__Z62RuntimeInvoker_Void_t1841601450_RuntimeObject_Int64_t909078037PFvvEPK10MethodInfoPvPS4_
u9g:_GUIStyle_get_stretchHeight_m3396762700
pGj:__ZN15dense_hashtableINSt3__24pairIK10KeyWrapperIPK11Il2CppClassEPKcEES6_N6il2cpp5utils11PointerHashIS3_EEN14dense_hash_mapIS6_S9_SE_NS6_14EqualsComparerINS0_8equal_toIS5_EEEENS0_9allocatorISA_EEE9SelectKeyESJ_SL_E15set_deleted_keyERKSA_
dUd:_GridLayoutGroup_CalculateLayoutInputHorizontal_m2355123124
KGb:__Z18Transfer_BlittableI14SafeBinaryReadLb1EyEvRK29SerializationCommandArgumentsR31RuntimeSerializationCommandInfo
zHc:__ZNSt3__27__sort5IR31SortCollisionEventsByGameObjectP22ParticleCollisionEventEEjT0_S5_S5_S5_S5_T_
fsc:__ZN8JSONRead8TransferIfEEvRT_PKc17TransferMetaFlagsb
dUi:_U3CGetEnumeratorU3Ec__Iterator0_Reset_m2980566576_gshared
Hpk:__ZNSt3__212basic_stringIcNS_11char_traitsIcEENS_9allocatorIcEEE6appendEPKcj
t$h:__ZL54TypeBuilder_t3308873219_CustomAttributesCacheGeneratorP21CustomAttributesCache
$qa:__ZN6prcoreL17RemapGenericFloatI18TexFormatARGBFloat17TexFormatRGBAHalfEEvPKNS_9InnerInfoE
iuf:_Collection_1_CheckWritable_m691269733_gshared
SO:__ZN11AudioSource21ApplyCachedParametersE12SoundChannel
L$g:_GenericTypeParameterBuilder_GetAttributeFlagsImpl_m3338182267
eV:__ZN13Simd4iFactoryIN6detail9FourTupleEEC2Eiiii
$Ue:_SynchronizedReader__ctor_m1408327515
enj:_X509Store_LoadCrl_m1146720614
aFf:_ReadOnlyCollection_1_System_Collections_IList_Clear_m1858417639_gshared
Aqb:__ZN15SerializeTraitsI33EnlightenTerrainChunksInformationE8TransferI14SafeBinaryReadEEvRS0_RT_
oZc:__ZN6b2Body12SetTransformERK6b2Vec2f
L3b:__ZNK32RendererMaterialAnimationBinding9BindValueER6ObjectRKN11UnityEngine9Animation14GenericBindingERNS3_10BoundCurveE
Anb:__Z13GetIAnimationv
Yva:__ZL18stbir__support_onef
Aff:_List_1_System_Collections_IList_Remove_m2040310137_gshared
tCj:_U3CsoltarEnemigoU3Ec__Iterator0_MoveNext_m308364678
nuc:__Z26Transfer_UnityEngineObjectI9JSONWriteLb0EEvRK29SerializationCommandArgumentsR31RuntimeSerializationCommandInfo
jLc:__ZN14VelocityModuleD2Ev
Gna:__ZNSt3__26vectorIN4core12basic_stringIcNS1_20StringStorageDefaultIcEEEE13stl_allocatorIS5_L18MemLabelIdentifier1ELi16EEE6assignINS_11__wrap_iterIPS5_EEEENS_9enable_ifIXaasr21__is_forward_iteratorIT_EE5valuesr16is_constructibleIS5_NS_15iterator_traitsISF_E9referenceEEE5valueEvE4typeESF_SF_
aog:_UInt32_System_IConvertible_ToInt16_m2251335934_AdjustorThunk
chd:__ZNSt3__27__sort5IRNS_6__lessIN2UI14DepthSortEntryES3_EEPS3_EEjT0_S7_S7_S7_S7_T_
PLc:__Z39ParticleSystemRenderer_RenderBillboardsIL21SpriteMaskInteraction0EEvRK15RenderNodeQueuej17ShaderChannelMaski
a1d:_Boolean_System_IConvertible_ToType_m3990189691
Ca:invoke_vdd
Ln:FUNCTION_TABLE_fiii
Gme:_Double_System_IConvertible_ToUInt32_m624993430
On:FUNCTION_TABLE_fiif
_1b:__ZNK30SpriteRendererAnimationBinding12GetPPtrValueERKN11UnityEngine9Animation10BoundCurveE
Ted:__ZZ29InitializeTextRenderingModulevEN27cleanupAfterLoadRegistrator7ForwardEv
zjg:_Scheduler_Add_m376749205
Kw:__ZN27AnimationLayerMixerPlayable24ProcessAnimationLayerMixEP33AnimationPlayableEvaluationOutputP35AnimationPlayableEvaluationConstantP32AnimationPlayableEvaluationInputS1_if
M6a:__Z29PluginsIssueRenderingExtEvent26UnityRenderingExtEventTypePv
l4j:__ZN15dense_hashtableINSt3__24pairIK10KeyWrapperINS1_IPKcS4_EEEiEES6_24NamespaceAndNamePairHashN14dense_hash_mapIS6_iS9_NS6_14EqualsComparerI26NamespaceAndNamePairEqualsEENS0_9allocatorIS8_EEE9SelectKeyESD_SF_E12resize_deltaEjj
L2b:__Z14RandomRotationP9Texture2DPhiiii
d$e:_SimpleCollator_IsIgnorable_m2485013022
kkf:_List_1_System_Collections_IList_Insert_m2036969360_gshared
FXd:_InputField_GetUnclampedCharacterLineFromPosition_m1912794077
zsh:_AnimatorControllerPlayable_SetTrigger_m2446912300
bje:_DateTimeOffset_ToString_m2121173678_AdjustorThunk
KCg:__Z74RuntimeInvoker_RuntimeObject_RuntimeObject_Int16_t4041245914_RuntimeObjectPFvvEPK10MethodInfoPvPS4_
rj:_JS_WebRequest_SetResponseHandler
LAk:_glDeleteProgram__wrapper
_ec:__Z50Register_UnityEngine_Camera_INTERNAL_get_pixelRectv
rqa:__ZN6prcoreL18BlitFloatToIntegerERK14ImageReferenceRS0_
o7e:_X509CertificateCollection_get_Item_m410866272
B9g:_Rect_get_yMax_m2915146103
pY:__ZN11UnityEngine15CloudWebService14RestDownloader17OnCompleteContentEv
xUd:_LayoutGroup_SetChildAlongAxis_m1615929339
OCg:__Z75RuntimeInvoker_RuntimeObject_RuntimeObject_Double_t4078015681_RuntimeObjectPFvvEPK10MethodInfoPvPS4_
bCg:__Z200RuntimeInvoker_Boolean_t3825574718_RuntimeObject_RuntimeObject_RuntimeObject_Int32_t2071877448_DateTimeU26_t3448131235_SByte_t454417549_BooleanU26_t3168250738_SByte_t454417549_ExceptionU26_t1467204777PFvvEPK10MethodInfoPvPS4_
Ta:invoke_viffi
dba:__ZNSt3__26vectorI20ProcessCallbackGroupNS_9allocatorIS1_EEEC2ERKS4_
Iy:__ZN17AnimationPlayable28UpdateInternalStateRecursiveILi1ELb0EEEvPK35AnimationPlayableEvaluationConstant
Wa:invoke_vifff
Fhc:__Z53Register_UnityEngine_Input_INTERNAL_get_mousePositionv
wzk:_glGetVertexAttribiv__wrapper
$e:_emscripten_request_fullscreen
Yea:__ZN20LocalFileSystemWebGL6DeleteER13FileEntryDatab
fke:_Decimal_System_IConvertible_ToUInt16_m1621568250
bf:_emscripten_glDisableVertexAttribArray
En:FUNCTION_TABLE_iiiifiiii
ukg:_TimeSpan_get_TotalMinutes_m1645177229_AdjustorThunk
yc:invoke_fifffi
SGa:__ZN4gles23ClearCurrentFramebufferEP7ApiGLESbbbRK10ColorRGBAffi
jx:__ZN7mecanim12statemachine20CreateStateWorkspaceEjjjRNS_6memory9AllocatorE
tWi:_InternalEnumerator_1_System_Collections_IEnumerator_get_Current_m3680087284_gshared
nf:_emscripten_glDeleteObjectARB
HIa:__Z14DecompressDXT3iiiPKjPj
RVe:_UnexceptionalStreamReader_Read_m3839775235
aGc:__ZN12LightsModule5StartER23ParticleSystemParticlesjj
JGe:_Dropdown_GetOrAddComponent_TisRuntimeObject_m2875934266_gshared
sra:__ZN6prcoreL17RemapGenericFloatI17TexFormatRGBAHalf18TexFormatARGBFloatEEvPKNS_9InnerInfoE
mne:_Enum_System_IConvertible_ToInt32_m2459904362
roc:__ZNK8GUIStyle21DrawWithTextSelectionER8GUIStateRK5RectTIfER10GUIContentbbbbbiiRK10ColorRGBAfSA_
RCg:__Z61RuntimeInvoker_RuntimeObject_Double_t4078015681_RuntimeObjectPFvvEPK10MethodInfoPvPS4_
UYc:__ZNSt3__27__sort4IRN18Overlap2DQueryBase29ColliderHitsByDepthComparitorEPP10Collider2DEEjT0_S7_S7_S7_T_
Foc:__Z14GetBuiltinSkini
hGd:_DecoderReplacementFallbackBuffer_Reset_m2576819665
UGd:_BaseInput_set_compositionCursorPos_m2632248731
vvj:_Enumerator_System_Collections_IEnumerator_Reset_m2573763156_gshared
uQe:_DirectoryInfo_Initialize_m2216118894
ZAd:_WindowsIdentity_Dispose_m2649088337
bZb:__ZN2UI13RectTransform23VirtualRedirectTransferER14SafeBinaryRead
roj:_InvokableCall_1__ctor_m54675381_gshared
FVb:__ZNSt3__26vectorIN9ShaderLab20SerializedSubProgramENS_9allocatorIS2_EEE6assignIPS2_EENS_9enable_ifIXaasr21__is_forward_iteratorIT_EE5valuesr16is_constructibleIS2_NS_15iterator_traitsIS9_E9referenceEEE5valueEvE4typeES9_S9_
mwc:__Z18Transfer_BlittableI8JSONReadLb0E8BitFieldEvRK29SerializationCommandArgumentsR31RuntimeSerializationCommandInfo
U7f:_SoapServices_RegisterInteropXmlType_m2949236705
rPb:__ZL17Transfer_GUIStyleI18StreamedBinaryReadILb1EELb0EEvRK29SerializationCommandArgumentsR31RuntimeSerializationCommandInfo
cFd:_String_CharCopy_m2550399897
CDg:__Z234RuntimeInvoker_RuntimeObject_Int16_t4041245914_RuntimeObject_Int32_t2071877448_Int32_t2071877448_Int32_t2071877448_SByte_t454417549_SByte_t454417549_SByte_t454417549_SByte_t454417549_Int16_t4041245914_SByte_t454417549_SByte_t454417549PFvvEPK10MethodInfoPvPS4_
OTb:__ZN9ShaderLab14SerializedPass8TransferI14SafeBinaryReadEEvRT_
xpc:__Z71Register_UnityEngine_GUILayoutUtility_INTERNAL_CALL_Internal_MoveWindowv
IS:__ZN12AudioManager16SetListenerPauseEb
IUc:__ZNSt3__26__sortIRN10ClipperLib12LocMinSorterEPNS1_12LocalMinimumEEEvT0_S6_T_
H0j:__ZN6il2cpp2vm9Exception25RaiseOutOfMemoryExceptionERKNS_5utils10StringViewIDsEE
Zrf:_Collection_1_IsValidItem_m2254106115_gshared
X_g:_TypeBuilder_GetEvent_m3876348075
eLi:_Slider_OnMove_m641164662
ea:invoke_viiiiiiiiiii
hmk:___syscall_ret
Cjg:_Scheduler__ctor_m3716265742
s4e:_MACAlgorithm_Final_m4076939925
bRj:__ZNSt3__212basic_stringIcNS_11char_traitsIcEENS_9allocatorIcEEE6assignINS_11__wrap_iterIPKcEEEENS_9enable_ifIXaasr21__is_forward_iteratorIT_EE5valuesr38__libcpp_string_gets_noexcept_iteratorISC_EE5valueERS5_E4typeESC_SC_
Hmd:__Z56Register_UnityEngine_Analytics_CustomEventData_AddDoublev
_tb:__ZN11ChannelInfo8TransferI19StreamedBinaryWriteILb0EEEEvRT_
$Vi:_InternalEnumerator_1_System_Collections_IEnumerator_get_Current_m3583252352_gshared
y_g:_EnumBuilder_get_FullName_m2818393911
ZZa:__ZN14qsort_internal13Partition3WayIP17RODataReplacementi19ROSorterReplacementEENSt3__24pairIT_S6_EES6_S6_T0_T1_
_gc:__Z34Register_UnityEngine_Gradient_Initv
L4f:_DictionaryEnumerator_get_Entry_m1597857786
U8b:__Z15WriteLineVertexILb0EEvRPhRKN4math8float4x4ERKNS2_7_float3ERK11ColorRGBA32RKffRKNS2_7_float2E
YCc:__ZN13InitialModule8TransferI17RemapPPtrTransferEEvRT_
vHd:_BaseInputModule_GetAxisEventData_m3903709281
$Fe:_Array_InternalArray__get_Item_TisUriScheme_t1876590943_m1821482697_gshared
jHf:_BigInteger__ctor_m3239748086
tea:__ZN13ScreenManager23SetIsOrientationEnabledE18EnabledOrientationb
Qw:__ZN7mecanim5human25HumanPoseAddOverrideLayerERNS0_9HumanPoseERKS1_fRKNS_6bitsetILj70EEE
U0b:__ZN13ProduceHelperI9TransformLb0EE7ProduceE18MemLabelIdentifier18ObjectCreationMode
orc:__Z45Register_UnityEngine_GUIStyle_GetFontInternalv
hCh:_Component_SendMessageUpwards_m19741277
lye:_Array_InternalArray__ICollection_Add_TisHitInfo_t1761367055_m2956071622_gshared
iAc:__ZN33SizeBySpeedModulePropertyBindings13GetFloatValueERK14ParticleSystemi
J9a:__ZN10GameObject23VirtualRedirectTransferER18StreamedBinaryReadILb0EE
Dg:_glFrontFace
P9f:_ObjectRecord_get_IsUnsolvedObjectReference_m2202692850
t1f:_FactoryCache_Cleanup_m4130035987
VCc:__ZN14ParticleSystem8TransferI17RemapPPtrTransferEEvRT_
bF:__ZN26AnimatorControllerPlayable14SetLayerWeightEif
KJc:__Z11StartCircleILN11ShapeModule14MultiModeValueE3EEvRS0_R23ParticleSystemParticlesRK19ParticleSystemStateRK27ParticleSystemEmissionStateRKN4math8float3x3ERKNSB_8float4x4Ejbj
S$b:__ZN13ProduceHelperI19LowerResBlitTextureLb0EE7ProduceE18MemLabelIdentifier18ObjectCreationMode
b3a:__ZNSt3__26vectorI16ShadowCasterData13stl_allocatorIS1_L18MemLabelIdentifier2ELi16EEE21__push_back_slow_pathIKS1_EEvRT_
Wse:_PlayableHandle_IsPlayableOfType_TisAnimationClipPlayable_t4099382200_m682525715_AdjustorThunk
fpj:_UnityAction_1_Invoke_m1279802577_gshared
Eog:_UInt32_ToString_m1783596809
rcj:_Vector3_get_forward_m1201659139
Afd:__Z51Register_UnityEngine_TextGenerator_GetLinesInternalv
Qvj:_HashSet_1_Init_m1258286688_gshared
Amj:_X509ExtensionCollection_get_Item_m4212651995
wFc:__Z8EvaluateRK11MinMaxCurveRKN4math7_float4ES5_
nBh:_Collision2D_get_gameObject_m4234358314
Jqa:__ZN6prcoreL17RemapGenericFloatI17TexFormatRGBFloat18TexFormatRGBAFloatEEvPKNS_9InnerInfoE
Jog:_UInt64_System_IConvertible_ToBoolean_m3012279573_AdjustorThunk
wmg:_Type_get_IsGenericTypeDefinition_m2147901038
TRa:__ZN12HandlerChain10ToAbsoluteEPKc
jHe:_GregorianCalendar__ctor_m3794576475
zog:_UInt32_TryParse_m4283512434
$Wc:__ZN16PhysicsManager2D12BeginContactEP9b2Contact
uJ:__ZN9AudioClip11CreateSoundEv
clh:_Quaternion_Internal_MakePositive_m2921671247
OHh:_ShimEnumerator_MoveNext_m3313047792_gshared
Lsf:_Collection_1_ConvertItem_m2185647560_gshared
$kg:_TimeSpan_op_Inequality_m257547441
hig:_ExecutionContext_GetObjectData_m1456913356
MYj:__ZN14dense_hash_mapI10KeyWrapperINSt3__24pairIPK9FieldInfoP11Il2CppClassEEEj17ReflectionMapHashIS8_ENS9_14EqualsComparerINS1_8equal_toIS8_EEEENS1_9allocatorINS2_IKS9_jEEEEEC2EjRKSB_RKSF_
Ghh:_Object_set_hideFlags_m2204253440
mUj:__ZNK15dense_hashtableINSt3__24pairIK10KeyWrapperINS1_IPK10MethodInfoP11Il2CppClassEEEjEES9_17ReflectionMapHashIS8_EN14dense_hash_mapIS9_jSD_NS9_14EqualsComparerINS0_8equal_toIS8_EEEENS0_9allocatorISB_EEE9SelectKeyESI_SK_E13find_positionERSA_
cEa:__ZN13GfxDeviceGLES20CreateComputeProgramEPKhj
cJe:_DateTimeFormatInfo_get_RoundtripPattern_m562440017
oqd:__ZN11UnityEngine7Connect16PersistentValues13RestoreValuesER8JSONRead
zTa:__ZN20ArchiveStorageReader31TryToReadDirectoryFromBlockDataEyPKvj
lme:_Double_System_IConvertible_ToByte_m3004284950_AdjustorThunk
u3j:__ZN6il2cpp2vmL11GetIdentityEP14Il2CppIUnknown
T3e:_SmallXmlParser_ReadCDATASection_m2558307107
Nfk:_GC_push_gc_structures
qWf:_ServicePointManager_get_ServerCertificateValidationCallback_m1409951209
_Nj:__ZN6il2cpp6icalls8mscorlib6SystemL8IsPublicEPK9EventInfo
mbe:_Enumerator_get_Current_m1271212567
Yck:__ZThn4_N6il2cpp2vm13ComObjectBase18ReleaseMarshalDataEP13Il2CppIStream
Oeh:_Input_set_compositionCursorPos_m1615567306
KNc:__ZN22ParticleSystemRenderer23UpdateVertexInputLayoutEv
eXf:_IPAddress_ParseIPV6_m2209709575
KHi:_U3CClickRepeatU3Ec__Iterator0_MoveNext_m1747924386
$Gf:_Comparison_1_Invoke_m1670081898_gshared
zMi:_Toggle_set_group_m3833595685
YZd:_LayoutRebuilder_ForceRebuildLayoutImmediate_m566681977
rub:__ZNSt3__213__stable_sortIRNS_4lessI4PPtrI11SpriteAtlasEEENS_11__wrap_iterIPS4_EEEEvT0_SA_T_NS_15iterator_traitsISA_E15difference_typeEPNSD_10value_typeEi
tye:_Array_InternalArray__ICollection_Add_TisVector4_t2243707581_m698578249_gshared
g1:__ZN8keywords6CreateEPKc
S:Math_imul
Zbh:_GUIStyle_set_active_m2896743432
Ryb:__ZN14SpriteRenderer15SetupPropertiesEv
Rsb:__ZN11PlayerPrefs6GetIntERKN4core12basic_stringIcNS0_20StringStorageDefaultIcEEEEi
NIj:__ZN6il2cpp5utils13dynamic_arrayIPK10Il2CppTypeLj4EEC2ERKS5_
ifd:__Z45TextGenerator_CUSTOM_INTERNAL_get_rectExtentsP12Il2CppObjectP5RectTIfE
DLf:_CertificateValidationCallback_Invoke_m2500463874
rte:_SetPropertyUtility_SetStruct_TisChar_t3454481338_m2333420724_gshared
asf:_Collection_1_IsSynchronized_m2601980439_gshared
H9d:_Hashtable_ContainsKey_m2716576664
M6i:_PatternCompiler_EmitCategory_m1696942454
xAc:__ZN30VelocityModulePropertyBindings13GetFloatValueERK14ParticleSystemi
qke:_Decimal_decimalFloorAndTrunc_m3655683429
Nye:_Array_InternalArray__ICollection_CopyTo_TisInt32_t2071877448_m984622488_gshared
Y1:__ZN18ScriptingArguments9AddObjectE18ScriptingObjectPtr
ljd:__Z39CanvasGroup_Get_Custom_PropInteractableP12Il2CppObject
qWc:__ZN16CircleCollider2D23VirtualRedirectTransferER18StreamedBinaryReadILb0EE
gHa:__ZN17GenericDynamicVBOC2ER9GfxDevice13GfxBufferModejj
RRi:_Context_get_HasDynamicSinks_m1998518649
gZc:__Z28GetPhysics2DScriptingClassesv
Cnc:__ZZN10GUIManager14InitGUIManagerEvEN41PreUpdateIMGUISendQueuedEventsRegistrator7ForwardEv
Ksh:_AnimatorControllerPlayable_ResetTrigger_m758725835_AdjustorThunk
UW:__ZN11UnityEngine15CloudWebService17SessionEventQueue10PurgeItemsEj
v8a:__ZN6Camera16StandaloneRenderENS_10RenderFlagEP6ShaderRKN4core12basic_stringIcNS3_20StringStorageDefaultIcEEEE
q_d:_Array_System_Collections_IList_get_Item_m2088124007
K_d:_Array_GetLength_m2083296647
q7d:_SynchronizedArrayListWrapper_ToArray_m1522185111
NOb:__Z18Transfer_BlittableI18StreamedBinaryReadILb1EELb1EtEvRK29SerializationCommandArgumentsR31RuntimeSerializationCommandInfo
mCa:__ZN9GfxDevice20DeallocRenderSurfaceEP17RenderSurfaceBase
xqg:_ValueType_ToString_m3796301715
MJa:__ZN20GpuProgramParameters36UpdatePrepareValuesMaximumBufferSizeEv
N5j:__ZNK15dense_hashtableI10KeyWrapperIP18Il2CppGenericClassES3_N6il2cpp8metadata22Il2CppGenericClassHashEN14dense_hash_setIS3_S6_NS3_14EqualsComparerINS5_25Il2CppGenericClassCompareEEENSt3__29allocatorIS3_EEE8IdentityESA_SD_E12test_deletedEj
Yhc:__Z53Register_UnityEngine_Quaternion_INTERNAL_CALL_Inversev
D8g:_GUILayoutGroup__ctor_m992523271
xjb:__ZN12BaseRenderer23RendererBecameInvisibleEv
y1c:__ZN20TextRenderingPrivate8FontImpl13CharacterInfo8TransferI18StreamedBinaryReadILb0EEEEvRT_
sMb:__Z29Transfer_Blittable_ArrayFieldI24GenerateTypeTreeTransferfEvRT_R9ArrayInfoRK23StaticTransferFieldInfo
jvg:__Z76RuntimeInvoker_RuntimeObject_RuntimeObject_SByte_t454417549_SByte_t454417549PFvvEPK10MethodInfoPvPS4_
ibb:__ZN19CustomRenderTexture9AddParentE4PPtrIS_E
Grb:__ZN8Gradient8TransferI14SafeBinaryReadEEvRT_
Fqj:_UnityEvent_1_Invoke_m1533100983_gshared
Fna:__ZNSt3__26vectorIN4core12basic_stringIcNS1_20StringStorageDefaultIcEEEE13stl_allocatorIS5_L18MemLabelIdentifier1ELi16EEE7reserveEj
uWf:_FileWebRequest__ctor_m4003648606
wBi:__ZL71SpriteState_t1353336012_CustomAttributesCacheGenerator_m_DisabledSpriteP21CustomAttributesCache
one:_Enum_System_IConvertible_ToSByte_m3488526280
thh:_MonoBehaviour_StopAllCoroutines_m1675795839
SJj:__ZNK15dense_hashtableI10KeyWrapperIPK19Il2CppGenericMethodES4_N6il2cpp8metadata23Il2CppGenericMethodHashEN14dense_hash_setIS4_S7_NS4_14EqualsComparerINS6_26Il2CppGenericMethodCompareEEENSt3__29allocatorIS4_EEE8IdentityESB_SE_E4findERKS4_
gsh:_AnimatorControllerPlayable_GetIntegerString_m2944800090
Rea:__ZNK20LocalFileSystemPosix9IsSymLinkERK13FileEntryData
Hek:_GC_new_free_list_inner
XPh:_DefaultComparer_Equals_m85211180_gshared
$Xe:_MonoType_InternalGetEvent_m532443236
Iuf:_Collection_1_IndexOf_m2700825189_gshared
axc:__ZN8JSONRead8TransferI10RectOffsetEEvRT_PKc17TransferMetaFlagsb
CW:__ZN9JSONWrite8TransferIN11UnityEngine15CloudWebService14DataErrorEvent15FileErrorDetailEEEvRT_PKc17TransferMetaFlags
EFd:_Decoder__ctor_m2623573910
kM:__ZN12SoundManager20RegisterModifiedClipEP10SampleClip
LO:__ZN11AudioSource4PlayEd
G7j:__ZN6il2cpp2vm6Object16GetVirtualMethodEP12Il2CppObjectPK10MethodInfo
Yvj:_HashSet_1_Add_m199171953_gshared
JHj:__ZN15dense_hashtableI10KeyWrapperIPK17Il2CppGenericInstES4_N6il2cpp8metadata21Il2CppGenericInstHashEN14dense_hash_setIS4_S7_NS4_14EqualsComparerINS6_24Il2CppGenericInstCompareEEENSt3__29allocatorIS4_EEE8IdentityESB_SE_E13set_empty_keyERKS4_
Vqh:_AnimationOffsetPlayable_INTERNAL_CALL_SetRotationInternal_m2809009466
d4e:_SmallXmlParser_IsNameChar_m1561000202
slj:_X501__cctor_m2610532554
UGh:_Enumerator_VerifyState_m3173176371_gshared
Gmf:_List_1_CheckCollection_m2220107869_gshared
Uob:__ZN7Cubemap23VirtualRedirectTransferER18StreamedBinaryReadILb0EE
SNf:_RecordProtocol_EncodeRecord_m3884270352
oxd:_SHA256_Create_m896954069
kdd:_Read_CVT
tge:_Convert_ToUInt32_m776714429
tQa:__ZN12FileAccessor4SeekEx10FileOrigin
mLb:__ZL26Transfer_SimpleNativeClassI24GenerateTypeTreeTransfer17AnimationCurveTplIfELb0EEvRK29SerializationCommandArgumentsR31RuntimeSerializationCommandInfo
Oqb:__ZN24GenerateTypeTreeTransfer8TransferI13dynamic_arrayI33EnlightenTerrainChunksInformationLj4EEEEvRT_PKc17TransferMetaFlags
rGc:__Z9UpdateTplIL27ParticleSystemCurveEvalMode2EEvRK11MinMaxCurveR23ParticleSystemParticlesjjbjRK8Vector2f
h9:__ZN16LightmapSettings20DidChangeActiveSceneEP10UnitySceneS1_
KDi:__ZL59g_AssemblyU2DCSharp_Assembly_CustomAttributesCacheGeneratorP21CustomAttributesCache
mOj:__ZN6il2cpp5utils9PathUtils8BasenameIcEENSt3__212basic_stringIT_NS3_11char_traitsIS5_EENS3_9allocatorIS5_EEEERKSA_
BN:__ZN10AudioMixer11SetupGroupsEv
jpc:__Z35Register_UnityEngine_Event_get_typev
S4e:_PrivateKeyInfo_DecodeRSA_m1427048948
T0j:__ZN6il2cpp2vm9Exception23GetInvalidCastExceptionERKNS_5utils10StringViewIDsEE
VWg:_Assembly_FillName_m1934025015
ZDd:_String_IndexOf_m2126171214
VOe:_Int64_ToString_m1544341651_AdjustorThunk
Jy:__ZN8Animator28BuildControllerPlayableCacheEv
UKe:_Guid_CheckNull_m2903986431
tNc:__ZN14ParticleSystem15InitializeClassEv
e3:__Z63ThreadAndSerializationSafeCheckGetMonoBehaviourBeingTransferredv
rhk:_GC_enable
NPf:_TlsClientCertificateVerify_ProcessAsSsl3_m3377063356
oLd:_StandaloneInputModule_set_repeatDelay_m2820945738
Jng:_UInt16_ToString_m4213290405
Ahc:__Z37Register_UnityEngine_Input_GetAxisRawv
lQi:_ChannelServices_RegisterChannel_m3832858065
vne:_Enum_GetName_m1226611481
kBj:_Func_2_Invoke_m4121137703_gshared
xO:__ZN11AudioSource5ResetEv
Hub:__ZN14Texture2DArray23VirtualRedirectTransferER18StreamedBinaryReadILb0EE
p9i:_Literal_CompileLiteral_m276843152
UYb:__ZN2UI13RectTransform13AwakeFromLoadE17AwakeFromLoadMode
z2a:__ZN14qsort_internal30FindAndMovePivotToLastPositionIP20ShadowCasterSortDatai26ShadowCasterSortDataSorterEEvT_S4_T0_T1_
nIj:__ZNK15dense_hashtableI10KeyWrapperIPK19Il2CppGenericMethodES4_N6il2cpp8metadata23Il2CppGenericMethodHashEN14dense_hash_setIS4_S7_NS4_14EqualsComparerINS6_26Il2CppGenericMethodCompareEEENSt3__29allocatorIS4_EEE8IdentityESB_SE_E3endEv
KFb:__Z18Transfer_BlittableI14SafeBinaryReadLb1EiEvRK29SerializationCommandArgumentsR31RuntimeSerializationCommandInfo
_xa:__ZN17PersistentManager13GetAllFileIDsERKN4core12basic_stringIcNS0_20StringStorageDefaultIcEEEER13dynamic_arrayIxLj8EE
K$d:_Array_LastIndexOf_m4096535198
r5d:_ArrayList_Add_m1719188324
Bme:_Double_System_IConvertible_ToSByte_m1653690240_AdjustorThunk
ADg:__Z59RuntimeInvoker_RuntimeObject_Byte_t3683104436_RuntimeObjectPFvvEPK10MethodInfoPvPS4_
Lk:_glGetStringi
z5j:__ZNK15dense_hashtableI10KeyWrapperIP18Il2CppGenericClassES3_N6il2cpp8metadata22Il2CppGenericClassHashEN14dense_hash_setIS3_S6_NS3_14EqualsComparerINS5_25Il2CppGenericClassCompareEEENSt3__29allocatorIS3_EEE8IdentityESA_SD_E10test_emptyERK30dense_hashtable_const_iteratorIS3_S3_S6_SF_SA_SD_E
fE:__ZZN8Animator15InitializeClassEvEN43FunctorImpl_420kDidModifyAnimatorController4CallEPviR11MessageData
fqe:_CultureInfo_set_NumberFormat_m1618950525
avb:__ZN18StreamedBinaryReadILb0EE21TransferSTLStyleArrayI13dynamic_arrayI8Vector4fLj4EEEEvRT_17TransferMetaFlags
b$f:_X509Store__ctor_m1573680316
q$f:_X509Chain_get_CertificateCollection_m324631835
kTh:_EqualityComparer_1__cctor_m1011898363_gshared
nMd:_AnimationTriggers__ctor_m2623627182
bwe:_Array_InternalArray__IndexOf_TisClientCertificateType_t4001384466_m1168139450_gshared
oX:__ZN11UnityEngine15CloudWebService20WebRequestRestClient18GetResponseHeadersEv
P6b:__ZN16PropertyAccessorC2Ev
Tsb:__ZNSt3__23mapIN4core12basic_stringIcNS1_20StringStorageDefaultIcEEEE9PrefValueNS_4lessIS5_EENS_9allocatorINS_4pairIKS5_S6_EEEEEixERSB_
o6b:__ZN15DirectorManager22ConstructPlayableGraphEv
lyd:_SymmetricAlgorithm_set_IV_m4262655606
zLi:_StencilMaterial__cctor_m2963056855
evh:_AnimatorControllerPlayable_Play_m614561002_AdjustorThunk
CYg:_CustomAttributeNamedArgument_GetHashCode_m3715408876_AdjustorThunk
pfd:__Z38Register_UnityEngine_Font_HasCharacterv
v_f:_X509Certificate2_AppendBuffer_m3517242299
E6a:__Z35IntersectSpherePlaneBoundsOptimizedRKN4math7_float4EPS1_i
bqe:_CultureInfo_get_IsNeutralCulture_m3874876470
ele:_Delegate_CreateDelegate_m3813023227
Abj:_Uri_get_AbsoluteUri_m2120317928
Jzc:__ZN37InheritVelocityModulePropertyBindings13GetFloatValueERK14ParticleSystemi
l8j:__ZN6il2cpp2os5posix15PosixWaitObject13InterruptWaitEv
pPd:_ColorTween_TweenValue_m3279916815
J8:__Z22CleanupLODGroupManagerPv
mye:_Array_InternalArray__ICollection_Add_TisContentType_t1028629049_m2984242302_gshared
fpc:__Z21Event_CUSTOM_PopEventP12Il2CppObject
U5j:__ZN6il2cpp8metadata15GenericMetadata20RegisterGenericClassEP18Il2CppGenericClass
ul:_glUniform3fv
tBb:__ZNSt3__218__insertion_sort_3IRN15ResourceManager10Dependency6SorterEPS2_EEvT0_S6_T_
icf:_Enumerator_System_Collections_IEnumerator_Reset_m3796537546_AdjustorThunk
ved:_UNITY_FT_Init_Class_tt_service_gx_multi_masters
ZCg:__Z53RuntimeInvoker_Int32_t2071877448_TimeSpan_t3430258949PFvvEPK10MethodInfoPvPS4_
_9b:__ZNK8Gradient19InitializeOptimizedER17OptimizedGradient
ctg:__Z64RuntimeInvoker_RuntimeObject_Int32_t2071877448_Int16_t4041245914PFvvEPK10MethodInfoPvPS4_
KXe:_IntComparer_Compare_m3057931085
f1a:__ZNK16LightmapSettings31GetRealtimeLightmapDecodeValuesEv
_N:__ZN5audio5mixer12SetSuspendedERNS0_16AudioMixerMemoryEb
ota:__ZN17PersistentManager21UnloadNonDirtyStreamsEv
I1j:__ZN6il2cpp2vm13LivenessStateC2EP11Il2CppClassjPFvPP12Il2CppObjectiPvES7_PFvvESB_
fHe:_Array_ConvertAll_TisRuntimeObject_TisRuntimeObject_m2423585546_gshared
bXa:__ZN12ImageFilters4BlitER17ShaderPassContextP7TextureP13RenderTextureiPK18SharedMaterialDataPKcP6ShaderiNS_9BlitFlagsE11CubemapFaceRK8Vector2fSH_
LYf:_Oid__ctor_m1936781897
Zhh:_Object_INTERNAL_CALL_Internal_InstantiateSingleWithParent_m1401308849
cX:__ZN11UnityEngine15CloudWebService10RestClientINS0_23WebRequestRestHeaderMapEED2Ev
WNi:_ResourceSet__ctor_m1222864106
jqf:_Collection_1_System_Collections_IList_get_Item_m3376056117_gshared
tta:__ZN18LoadSceneOperationD0Ev
rph:_AnimationClipPlayable_INTERNAL_CALL_CreateHandleInternal_m218917601
hcf:_Enumerator_VerifyState_m3639069574_gshared
kIa:__ZN4crnd25static_huffman_data_model22prepare_decoder_tablesEv
Jpf:_Enumerator_MoveNext_m689054299_gshared
PHf:_ModulusRing_Difference_m662924064
TNd:_CanvasUpdateRegistry_ObjectValidForUpdate_m855695984
IWd:_InputField_set_onValueChanged_m2406388125
Oda:__ZL22CleanupUnityWebStreamsPv
$Qb:__Z18Transfer_BlittableI18StreamedBinaryReadILb0EELb0E10ColorRGBAfEvRK29SerializationCommandArgumentsR31RuntimeSerializationCommandInfo
lVf:_ListDictionary_Add_m4276262662
m9:__Znaj
Nvd:_RIPEMD160Managed_GGG_m1639995340
jBk:_emscripten_glEnableClientState__wrapper
k0:__ZN17MessageIdentifierC2EPKcNS_7OptionsEPKN5Unity4TypeES1_
cH:__Z76AnimatorControllerPlayable_CUSTOM_INTERNAL_CALL_CrossFadeInFixedTimeInternalR9HPlayableifif
CJh:_Enumerator_System_Collections_IEnumerator_get_Current_m1648049763_gshared
Ujk:__ZN6il2cpp6icalls8mscorlib4Mono8Security12Cryptography18KeyPairPersistence15_ProtectMachineEP12Il2CppString
krk:dynCall_viiifiii
D_d:_Array_System_Collections_IList_Remove_m2438892375
CUe:_TextWriter__ctor_m2225796097
Rhb:__ZN14SafeBinaryRead8TransferI14ConstantStringEEvRT_PKc17TransferMetaFlags
sdj:_ScriptableObject_Internal_CreateScriptableObject_m1778903390
Kka:__ZNK6Camera16GetStereoEnabledEv
m3b:__ZN12LightManager15InitializeClassEv
Kla:__ZN9ShaderLab11shaderprops16GetComputeBufferEPK19ShaderPropertySheetS3_NS_16FastPropertyNameE
xch:_GUIStyle_GetFontInternal_m3509743324
j2:__ZN18ScriptingArgumentsC2Ev
hlg:_TimeZone_IsDaylightSavingTime_m875882154
Dwk:_emscripten_glBlendFuncSeparate__wrapper
EMf:_CipherSuiteCollection_System_Collections_IList_set_Item_m750275607
Orh:_AnimatorControllerPlayable_SetFloatID_m3806317182
GFa:__Z17HasSampledTexture14GraphicsFormat13formatSupport
wYa:__ZNK25CameraStackRenderingState27GetStereoImageEffectTextureEb
Vwd:_SHA1CryptoServiceProvider__ctor_m3127563759
lq:__ZN8Vector3f8TransferI14SafeBinaryReadEEvRT_
mDi:__ZL103BaseVertexEffect_t2504093552_CustomAttributesCacheGenerator_BaseVertexEffect_ModifyVertices_m3446986347P21CustomAttributesCache
Ro:FUNCTION_TABLE_ii
fqh:_AnimationLayerMixerPlayable_SetLayerMaskFromAvatarMask_m2582039992
ljb:__ZN10TagManager8TransferI18StreamedBinaryReadILb0EEEEvRT_
Ptc:__Z18Transfer_BlittableI9JSONWriteLb0E8BitFieldEvRK29SerializationCommandArgumentsR31RuntimeSerializationCommandInfo
Dog:_UInt32_ToString_m3894907091_AdjustorThunk
Xpe:_CultureInfo_get_TextInfo_m1582311326
pxe:_Array_ForEach_TisRuntimeObject_m1849351808_gshared
Adh:_GUIStyle_get_contentOffset_m1904924583
J3e:_SmallXmlParser_Error_m1832158746
Kk:_glDeleteVertexArrays
feb:__Z24CreateDirectoryRecursiveRKN4core12basic_stringIcNS_20StringStorageDefaultIcEEEE
Tuk:b41
AWb:__ZN9ShaderLab20SerializedSubProgram8TransferI18StreamedBinaryReadILb0EEEEvRT_
cUe:_StreamAsyncResult_get_AsyncWaitHandle_m4218169359
xnc:__Z22MonoGUIContentToNative18ScriptingObjectPtrR10GUIContent
cGe:_Array_InternalArray__get_Item_TisContactPoint2D_t3659330976_m825151777_gshared
Tfd:__ZN2UI13CanvasManager9AddCanvasEPNS_6CanvasE
vwa:__ZN9Texture3D8TransferI19StreamedBinaryWriteILb0EEEEvRT_
BZa:__ZNK6Camera22CalculateRenderingPathEv
hvc:__ZN9JSONWrite8TransferI5RectTIfEEEvRT_PKc17TransferMetaFlags
Hph:_AnimationClipPlayable_INTERNAL_CALL_GetRemoveStartOffsetInternal_m3895628593
aLa:__Z13ConvertMipmap14GraphicsFormatPKvS_Pviiii
Fxd:_SHA384Managed_processBlock_m3232296629
f7e:_X509Certificate_get_PublicKey_m714501701
O6c:_tt_sbit_decoder_load_image
pja:__Z14IsHalfRTFormat19RenderTextureFormat
mEd:_String_LastIndexOf_m290475879
Pnc:__ZNSt3__24listIN10GUIManager12SortedScriptE11memory_poolIS2_EE6__sortI13OldSortScriptEENS_15__list_iteratorIS2_PvEESA_SA_jRT_
Nog:_UInt64_System_IConvertible_ToChar_m1930853313_AdjustorThunk
IPf:_TlsClientCertificate_SendCertificates_m1096074091
tae:_SyncHashtable_get_Item_m408601391
IBf:_ReadOnlyCollection_1_System_Collections_IEnumerable_GetEnumerator_m1401363518_gshared
Ppf:_Stack_1_System_Collections_ICollection_CopyTo_m2104527616_gshared
_fg:_StringBuilder_AppendFormat_m1666670800
z3a:__ZN18DeferredRenderLoop13RenderGBufferEP13RenderTexturePS1_b8JobFencePK25DeferredRenderLoopScratchRi
JJg:__Z97RuntimeInvoker_Boolean_t3825574718_RuntimeObject_TextGenerationSettings_t2543476768_RuntimeObjectPFvvEPK10MethodInfoPvPS4_
Tmh:_Rect_Equals_m3806390726
YVg:__Z80RuntimeInvoker_RuntimeObject_RaycastResult_t21186376_RuntimeObject_RuntimeObjectPFvvEPK10MethodInfoPvPS4_
S$j:__ZN6il2cpp6icalls8mscorlib6System9ThreadingL11ThreadStartEPv
mba:__ZN15DirectorManager12OnSampleTimeEv
_Df:_ReadOnlyCollection_1_System_Collections_IList_Remove_m3878418841_gshared
NWd:_InputField_EnforceContentType_m1902926812
ika:__ZN12CachedReader10Align4ReadEv
oXc:__ZN15b2WorldManifold10InitializeEPK10b2ManifoldRK11b2TransformfS5_f
l1j:__ZN6il2cpp2vm9Exception28GetMarshalDirectiveExceptionEPKc
PYe:_MulticastDelegate_GetObjectData_m3187757658
thb:__ZNK9Behaviour22GetTypeVirtualInternalEv
IEf:_ReadOnlyCollection_1_System_Collections_IList_get_Item_m887129009_gshared
G7a:__Z21GetScriptingArraySize17ScriptingArrayPtr
S0c:__ZN20TextRenderingPrivate8FontImpl8TransferI14SafeBinaryReadEEvRT_
FNc:__ZNSt3__27__sort4IRN10vector_mapIi22ParticleModulePropertyNS_4lessIiEENS_9allocatorINS_4pairIiS2_EEEEE13value_compareEPS7_EEjT0_SD_SD_SD_T_
loa:__Z35UnityPropertySheet_MakeSortedColorsRKNSt3__23mapIN9ShaderLab16FastPropertyNameE10ColorRGBAfNS_4lessIS2_EENS_9allocatorINS_4pairIKS2_S3_EEEEEER10vector_mapIS2_S3_S5_NS6_INS7_IS2_S3_EEEEE
zKg:__Z116RuntimeInvoker_Void_t1841601450_Rect_t3681755626_RuntimeObject_Int32_t2071877448_Int32_t2071877448_Int32_t2071877448PFvvEPK10MethodInfoPvPS4_
Ech:_GUIStyle_Draw_m4006459684
iDa:__ZN9GfxDevice17ImmediateTexCoordEifff
J7i:_Parser_ParseRegularExpression_m2390577313
lVc:__ZN10ClipperLib7Clipper13AppendPolygonEPNS_5TEdgeES2_
h0d:_Array_double_swapper_m1175307080
S$f:_X509CertificateEnumerator_System_Collections_IEnumerator_Reset_m327358896
uAd:_Hash__ctor_m2554411450
iIe:_NumberFormatter_AppendDigits_m1308372770
aCd:_Single_System_IConvertible_ToDateTime_m2510003459_AdjustorThunk
xle:_Delegate_RemoveImpl_m3666700529
uuk:_emscripten_glUniform4f__wrapper
FVf:_NameObjectCollectionBase_OnDeserialization_m3478980442
zWd:_InputField_set_caretColor_m2252440840
zU:__Z78Register_UnityEngine_Audio_AudioPlayableOutput_INTERNAL_CALL_InternalSetTargetv
pD:__ZN8Animator8TransferI19StreamedBinaryWriteILb0EEEEvRT_
Z$a:__ZNK6Camera16GetProjectionFarEv
mr:__Z24InverseTransformRotationRK23TransformAccessReadOnlyRKN4math7_float4E
NWe:_MissingFieldException__ctor_m1161042282
owe:_Array_InternalArray__IndexOf_TisSlot_t2267560602_m1912863273_gshared
ard:__Z31GetPerformanceReportingSettingsv
Hnb:__ZNK14PlayableOutput11DerivesFromE17ScriptingClassPtr
Awa:__ZN7Texture34CreateFileTextureUploadInstructionE18TextureUploadFlagsj
SWa:__ZN13ComputeShader14SetBufferParamEjRKN9ShaderLab16FastPropertyNameE15ComputeBufferID
NDf:_ReadOnlyCollection_1_System_Collections_Generic_IListU3CTU3E_Insert_m3054305464_gshared
gD:__ZN8Animator8TransferI14SafeBinaryReadEEvRT_
Fwe:_Array_InternalArray__IndexOf_TisTypeTag_t141209596_m2882894956_gshared
LKi:_Slider_get_value_m4182660424
IPc:__ZNK14b2CapsuleShape5CloneEP16b2BlockAllocator
Gt:__ZN17AnimationPlayable34CollectAnimatorControllerPlayablesER13dynamic_arrayIP26AnimatorControllerPlayableLj4EE
rT:__ZN16BaseVideoTexture19UpdateVideoTexturesEv
dmb:__Z28BuildSingleStreamChannelInfo17ShaderChannelMaskRK20VertexChannelsLayoutS_S2_P11ChannelInfo
Zua:__ZNK16LightmapSettings23HasLightProbeTetrahedraEv
eHc:__ZNK18ColorBySpeedModule12UpdateSingleERK22ParticleSystemParticleR11ColorRGBA32
VOf:_Context_get_WriteSequenceNumber_m243492531
$sb:__ZN6Sprite23VirtualRedirectTransferER19StreamedBinaryWriteILb0EE
eEd:_String_LastIndexOfAny_m1473637802
xlc:__Z38Transform_CUSTOM_INTERNAL_set_positionP12Il2CppObjectRK8Vector3f
pTj:__ZNK15dense_hashtableINSt3__24pairIK10KeyWrapperINS1_IPK9FieldInfoP11Il2CppClassEEEjEES9_17ReflectionMapHashIS8_EN14dense_hash_mapIS9_jSD_NS9_14EqualsComparerINS0_8equal_toIS8_EEEENS0_9allocatorISB_EEE9SelectKeyESI_SK_E5beginEv
ama:__ZNK9ShaderLab7Program19HasMatchingVariantsERK13dynamic_arrayI16ShaderKeywordSetLj4EE
eB:__ZN15SerializeTraitsIN4math4trsXEE8TransferI8BlobSizeEEvRS1_RT_
lGa:__ZN14DataBufferGLES11CopySubDataEPKS_jjj
te:_emscripten_glVertexPointer
yPa:__ZNSt3__26__treeI20DeviceDepthStateGLES11memcmp_lessIS1_S1_ENS_9allocatorIS1_EEE7destroyEPNS_11__tree_nodeIS1_PvEE
Khd:__ZN2UI13PrepareOutputERNS_7BatchesEjjNS_30AdditionalCanvasShaderChannelsE
zOj:__ZN6il2cpp2vm7Runtime47RaiseExecutionEngineExceptionIfMethodIsNotFoundEPK10MethodInfo
f3a:__Z17GetFrustumPortionPK8Vector3fffPS_
S2j:__ZN15dense_hashtableINSt3__24pairIK10KeyWrapperIP14Il2CppIUnknownEjEES5_N6il2cpp5utils11PointerHashIS3_EEN14dense_hash_mapIS5_jSB_NS5_14EqualsComparerINS0_8equal_toIS4_EEEENS0_9allocatorIS7_EEE9SelectKeyESG_SI_E14squash_deletedEv
ivi:__ZL60MovedFromAttribute_t922195725_CustomAttributesCacheGeneratorP21CustomAttributesCache
qQd:_DefaultControls_CreateDropdown_m1384069408
gKd:_PointerEventData_get_clickCount_m4064532478
koe:_EventArgs__cctor_m1350395667
RMc:__Z9UpdateTplIL22MinMaxGradientEvalMode1EL12GradientMode0ELS1_1EEvRK23ParticleSystemParticlesP11ColorRGBA32RK14MinMaxGradientRK23OptimizedMinMaxGradient
Kzc:__ZN37InheritVelocityModulePropertyBindings13SetFloatValueER14ParticleSystemif
Qoe:_CCGregorianCalendar_is_leap_year_m567513478
I0d:_Attribute_IsDefined_m2118467641
R4e:_PrivateKeyInfo_Normalize_m3959595934
jWi:_InternalEnumerator_1_System_Collections_IEnumerator_get_Current_m3125080595_gshared
wwf:_Collection_1_System_Collections_IList_Add_m2091889616_gshared
c7b:__ZN16StreamedResource8TransferI24GenerateTypeTreeTransferEEvRT_
wRc:__ZN11b2GearJoint4DumpEv
MRd:_DropdownItem_OnPointerEnter_m761897861
$ph:_AnimationLayerMixerPlayable_INTERNAL_CALL_IsLayerAdditiveInternal_m364677421
TH:__Z90Register_UnityEngine_Animations_AnimatorControllerPlayable_INTERNAL_CALL_CrossFadeInternalv
DMa:__ZN10Matrix3x3f15InvertTransposeEv
hEc:__ZN14EmissionModule8TransferI19StreamedBinaryWriteILb0EEEEvRT_
Tre:_Array_InternalArray__ICollection_Remove_TisKeyValuePair_2_t1174980068_m2768765894_gshared
Brh:_AnimatorControllerPlayable_GetFloat_m1229536053
euf:_Collection_1_set_Item_m2199807215_gshared
KIb:__Z29Transfer_Blittable_ArrayFieldI14SafeBinaryRead8Vector3fEvRT_R9ArrayInfoRK23StaticTransferFieldInfo
Png:_UInt32_System_IConvertible_ToBoolean_m91295134
nig:_Monitor_Monitor_test_synchronised_m1542589500
K1c:__ZN20TextRenderingPrivate8FontImpl18ResetCachedTextureEv
E5e:_SymmetricTransform_TransformFinalBlock_m4192185386
HKe:_TextInfo__ctor_m1263401274
igj:_TouchScreenKeyboard_Open_m913506328
pfk:_GC_print_finalization_stats
qLh:_ValueCollection__ctor_m927733289_gshared
RSc:__ZNK12b2WheelJoint10GetAnchorBEv
Cec:__Z53Register_UnityEngine_Behaviour_get_isActiveAndEnabledv
vXf:_IPAddress_ToString_m267966740
Rq:__ZNSt3__26vectorIN4core12basic_stringIcNS1_20StringStorageDefaultIcEEEENS_9allocatorIS5_EEE8__appendEj
RAb:__ZN26PlayerSettingsSplashScreen8TransferI17RemapPPtrTransferEEvRT_
WZi:_InternalEnumerator_1_get_Current_m3922357178_gshared
iNj:__ZN6il2cpp6icalls8mscorlib6SystemL17CollectTypeFieldsINS_5utils10functional10TrueFilterEEEvP11Il2CppClassPKS7_iRNSt3__26vectorIP9FieldInfoNSB_9allocatorISE_EEEERKT_
$xi:__ZL72ColorBlock_t2652774230_CustomAttributesCacheGenerator_m_HighlightedColorP21CustomAttributesCache
zlg:_Type_get_IsValueType_m1733572463
t_b:__Z13GetTagManagerv
W_c:__ZN14PhysicsQuery2D7RaycastERK8Vector2fS2_fRKN10Collider2D13ContactFilterEPKS3_bP12RaycastHit2Di
tse:_Array_InternalArray__ICollection_Remove_TisUInt16_t986882611_m65494986_gshared
BCf:_ReadOnlyCollection_1_IndexOf_m3054637117_gshared
RCj:__ZL10roundUp128PyS_
lV:__ZN11UnityEngine15CloudWebService17CloudJobSchedulerD0Ev
$Cd:_String_System_IConvertible_ToBoolean_m2696751322
xta:__ZN18LoadSceneOperation7PerformEv
$8g:_GUILayer_INTERNAL_CALL_HitTest_m693512502
rgd:__ZNK2UI11CanvasGroup22GetTypeVirtualInternalEv
hEd:_String_LastIndexOfAny_m4281325295
jVc:__ZN10ClipperLib7Clipper14IntersectEdgesEPNS_5TEdgeES2_RNS_8IntPointE
UNg:__Z163RuntimeInvoker_Void_t1841601450_RuntimeObject_Int32_t2071877448_SByte_t454417549_SByte_t454417549_SingleU26_t4173844468_SingleU26_t4173844468_SingleU26_t4173844468PFvvEPK10MethodInfoPvPS4_
foc:__Z21CleanupGlobalGUIStatev
bkg:_TimeSpan__ctor_m1888018443_AdjustorThunk
wUg:__Z74RuntimeInvoker_Int32_t2071877448_UIVertex_t1204258818_UIVertex_t1204258818PFvvEPK10MethodInfoPvPS4_
oae:_SyncHashtable_get_Count_m3694444082
DRj:__ZNSt3__26vectorINS_12basic_stringIcNS_11char_traitsIcEENS_9allocatorIcEEEENS4_IS6_EEE8allocateEj
_Na:__ZN22VertexDeclarationCache5ClearEv
cAk:_emscripten_glUniform2i__wrapper
fcb:__ZN17PersistentManager12SetPathRemapERKN4core12basic_stringIcNS0_20StringStorageDefaultIcEEEES6_
aw:__Z27ProcessRootMotionEmptyMixerP35AnimationPlayableEvaluationConstantP32AnimationPlayableEvaluationInputP33AnimationPlayableEvaluationOutput
N4a:__ZN6Camera24PrepareCullingParametersERK23CameraCullingParameters13RenderingPathR11CullResults
P9b:__Z12SetIUISystemP9IUISystem
Jta:__ZN19RuntimeSceneManager22EndIntegrateMainThreadEP10UnitySceneNS_11LoadingModeE
cKb:__Z26Transfer_UnityEngineObjectI17RemapPPtrTransferLb0EEvRK29SerializationCommandArgumentsR31RuntimeSerializationCommandInfo
oEd:_String_IsNullOrEmpty_m2802126737
t3d:_Byte_Parse_m1442736478
DOe:_Int64_Parse_m3258022240
_Dd:_String_IndexOfOrdinal_m3591623977
Rfj:_Texture2D_get_whiteTexture_m1979591766
Hcg:_CryptoConfig_EncodeLongNumber_m2352037787
dmg:_Type_GetMethod_m475234662
JPi:_ActivationServices_get_ConstructionActivator_m1726426854
lMb:__Z29Transfer_Blittable_ArrayFieldI24GenerateTypeTreeTransfer4AABBEvRT_R9ArrayInfoRK23StaticTransferFieldInfo
z7h:__ZL52Activator_t1850728717_CustomAttributesCacheGeneratorP21CustomAttributesCache
rgk:_GC_adj_bytes_allocd
hye:_Array_InternalArray__ICollection_Add_TisKeyframe_t1449471340_m887263954_gshared
whj:_UIVertex__cctor_m803910084
Nze:_Array_InternalArray__Insert_TisDateTime_t693205669_m1484996356_gshared
MOc:__ZN15ParticlesModule11SyncAllJobsEv
uhf:_List_1_System_Collections_IList_Remove_m3933652540_gshared
oTe:_MonoIO_get_ConsoleInput_m2976499023
O1g:_OpCode_get_Size_m481593949_AdjustorThunk
K7d:_BitArrayEnumerator_checkVersion_m3839504595
Y_d:_Array_GetUpperBound_m1352329707
lSc:__ZN13b2PulleyJoint24SolveVelocityConstraintsERK12b2SolverData
a1b:__ZNK17AnimationCurveTplIfE20FindIndexForSamplingERKNS0_5CacheEfRiS4_
Da:invoke_fiiifii
qNf:_RecordProtocol__ctor_m168945279
Uie:_DateTimeOffset_Equals_m3728302791_AdjustorThunk
S2a:__ZN20SphericalHarmonicsL219AddDirectionalLightERKN4math7_float3ERKNS0_7_float4E
_kg:_TimeSpan_op_GreaterThanOrEqual_m3997050520
fba:__Z26ScheduleJobForEachInternalR8JobFencePFvPvjES1_iPFvS1_E11JobPriority
BZf:_OidEnumerator_MoveNext_m1889267785
HUa:__ZZ23InitPlayerLoopCallbacksvEN41PostLateUpdateProfilerEndFrameRegistrator7ForwardEv
Cac:__ZN9Scripting18RaiseMonoExceptionEPKcz
Kpb:__ZN9Texture2D8TransferI19StreamedBinaryWriteILb0EEEEvRT_
Lah:_GUISkin_set_box_m877476512
Drj:_TweenRunner_1_StartTween_m3792842064_gshared
M3b:__ZN9ShaderLab16FastPropertyName15InitBy28BitHashEj
iCd:_Single_System_IConvertible_ToInt32_m3269519527_AdjustorThunk
$wd:_SHA1Internal_ProcessBlock_m4070037334
dwa:__ZN17PersistentManager17IsObjectAvailableEi
Nhk:__ZN6il2cpp6icalls8mscorlib6System10Reflection14MonoMethodInfo15get_method_infoE12Il2CppIntPtrP16Il2CppMethodInfo
TAe:_Array_InternalArray__set_Item_TisDouble_t4078015681_m24756265_gshared
w6f:_ObjRef_GetObjectData_m3081609242
C0b:__ZN13ProduceHelperIN2UI13RectTransformELb0EE7ProduceE18MemLabelIdentifier18ObjectCreationMode
Fvb:__ZN17PackedFloatVector12UnpackFloatsEPfiiii
yJc:__Z16EmitterStoreDataRKN4math8float3x3ERKNS_8float4x4ER23ParticleSystemParticlesRK19ParticleSystemStatejRNS_8floatNx3ESC_R5RandNfffbb
Qzf:_ReadOnlyCollection_1__ctor_m3671019970_gshared
gz:__ZN17AnimationPlayable28UpdateInternalStateRecursiveILi3ELb0EEEvPK35AnimationPlayableEvaluationConstant
dEa:__ZN13GfxDeviceGLES21DestroyComputeProgramER12ObjectHandleI18ComputeProgram_TagPvE
_de:_Convert_ToDecimal_m2007036836
N8:__ZN17UniqueIDGenerator16DestroyPureIndexEj
X4:__ZL21AppendNestedClassName17ScriptingClassPtrRN4core17string_with_labelILi1EEE
oUb:__ZN14SafeBinaryRead21TransferSTLStyleArrayINSt3__26vectorIN9ShaderLab20SerializedSubProgram12UAVParameterENS1_9allocatorIS5_EEEEEEvRT_17TransferMetaFlags
QRi:_Context_NotifyDynamicSinks_m1367144344
uW:__ZN24TextDOMTransferWriteBaseI9JSONWriteE12PushMetaFlagEi
pPf:_Context_get_Current_m2717045324
YAc:__ZN16MinMaxPolyCurves26FindMinMaxDoubleIntegratedEv
Lra:__ZN6prcoreL26RemapGenericIntegerToFloatI17TexFormatARGB888815TexFormatRFloatEEvPKNS_9InnerInfoE
ZRi:_Context_GetServerContextSinkChain_m390126977
qRj:__ZN6il2cpp2vm17TypeNameParseInfoD2Ev
XUe:_StringReader_Read_m513112775
rrb:__ZNK8Renderer8GetLayerEv
dlb:__ZN12FlareManager11DeleteFlareEi
k$a:__ZNK6Camera20GetReplacementShaderEv
ewk:_glProgramBinary__wrapper
Eje:_Decimal__ctor_m569480123_AdjustorThunk
OWf:_HttpWebRequest__cctor_m3013631978
pjk:__ZNSt3__26__treeINS_12__value_typeINS_12basic_stringIcNS_11char_traitsIcEENS_9allocatorIcEEEEPFvvEEENS_19__map_value_compareIS7_SA_NS_4lessIS7_EELb1EEENS5_ISA_EEE4findIS7_EENS_15__tree_iteratorISA_PNS_11__tree_nodeISA_PvEEiEERKT_
BUb:__ZNSt3__26vectorIN9ShaderLab20SerializedSubProgram14ConstantBufferENS_9allocatorIS3_EEE7reserveEj
Ova:__ZL23stbir__calculate_memoryP11stbir__info
szg:__Z83RuntimeInvoker_Void_t1841601450_Int64_t909078037_Int32_t2071877448_Int64_t909078037PFvvEPK10MethodInfoPvPS4_
BHi:_Scrollbar_FindSelectableOnRight_m3219495255
vyc:__ZNK9rapidjson12GenericValueINS_4UTF8IcEE13JSONAllocatorE6AcceptINS_12PrettyWriterI16TempBufferWriterS2_S2_S3_EEEEbRT_
nXa:__ZNK6Camera18GetRenderRectangleEv
wze:_Array_InternalArray__ICollection_CopyTo_TisVector3_t2243707580_m509487340_gshared
xH:__Z82AnimatorControllerPlayable_CUSTOM_INTERNAL_CALL_IsParameterControlledByCurveStringR9HPlayableP12Il2CppString
vwc:__ZL26Transfer_SimpleNativeClassI8JSONRead10RectOffsetLb1EEvRK29SerializationCommandArgumentsR31RuntimeSerializationCommandInfo
tjd:__Z44CanvasRenderer_CUSTOM_INTERNAL_CALL_SetColorP12Il2CppObjectRK10ColorRGBAf
uGe:_Component_GetComponentInChildren_TisRuntimeObject_m1823576579_gshared
Sek:_GC_should_collect
XPi:_UrlAttribute_Equals_m1587451932
ztc:__Z18Transfer_BlittableI9JSONWriteLb1EsEvRK29SerializationCommandArgumentsR31RuntimeSerializationCommandInfo
bVc:__ZN10ClipperLib8JoinHorzEPNS_5OutPtES1_S1_S1_NS_8IntPointEb
Kmd:__Z48UnityAnalyticsHandler_CUSTOM_SendCustomEventNameP12Il2CppObjectP12Il2CppString
Jdg:_DSAParameters_t1872138834_marshal_pinvoke_cleanup
gdc:__ZN9Transform16SetLocalRotationERK11Quaternionf
lsh:_AnimatorControllerPlayable_INTERNAL_CALL_GetIntegerID_m1635852922
xZi:_InternalEnumerator_1_get_Current_m3206960238_AdjustorThunk
MVa:__ZN13RenderManager37RenderCamerasWithScriptableRenderLoopEi
f2e:_ASN1_Element_m2600236165
aaa:__ZN23InstancedPropInfoStaticL16RegisterCallbackEPv
nB:__ZN7mecanim8skeleton25SkeletonPoseComputeLocalQEPKNS0_8SkeletonEPKNS0_13SkeletonPoseTIN4math4trsXEEEPS7_ii
Z6j:__ZN6il2cpp2os19ReleaseSocketHandleEj
hxg:__Z92RuntimeInvoker_Void_t1841601450_DateTime_t693205669_DateTime_t693205669_TimeSpan_t3430258949PFvvEPK10MethodInfoPvPS4_
XS:__ZN11AudioModule16GetDSPSampleRateEv
HZg:_TypeBuilder_get_next_table_index_m1415870184
Kqk:___cxa_can_catch
AIf:_SequentialSearchPrimeGeneratorBase_GenerateNewPrime_m296245934
y4d:_Char_GetUnicodeCategory_m4273361321
PGc:__ZN14ParticleSystem4EmitEPS_RK21SubEmitterEmitCommand
AWe:_Math_Round_m565516458
HRi:_Identity_get_ClientDynamicProperties_m767245959
e8j:__ZN6il2cpp2os5posix15PosixWaitObjectC2ENS2_4TypeE
wZa:__ZN6Camera21PostMultiCustomRenderENS_10RenderFlagEb
Y1g:_TypeBuilder_create_generic_class_m986834171
BLa:__ZN12_GLOBAL__N_112UploadImagesEP7ApiGLESjji14GraphicsFormatPKhjS2_iiii16TextureUsageModePh
hza:__ZN23ShaderVariantCollection13WarmupShadersEv
IOf:_Context_set_ProtocolNegotiated_m1177527245
Tng:_UInt32_System_IConvertible_ToChar_m1056040486
C4:__Z25GetCommonScriptingClassesv
pUf:_TlsStream_get_Length_m1562309511
_ta:__Z27scripting_gc_collect_unsafei
aT:__ZN11AudioModule20SuspendVideoTexturesEv
h3b:__ZN12CubemapArrayC2E18MemLabelIdentifier18ObjectCreationMode
yce:_Convert_ToByte_m395020137
_ih:_Plane_ToString_m3541300360_AdjustorThunk
xxb:__Z26CalculateBlendedSkinMatrixILi2EEvRN4math8float4x4EPK10Matrix4x4fPKvj
Ibd:_UNITY_FT_GlyphLoader_CheckPoints
KVe:_TextWriter_WriteLine_m1754475888
Uwa:__ZN15SharedLightData7PrecalcEv
Mua:__ZN10Matrix4x4fmLERKS_
joj:_InvokableCall_1_Invoke_m769918017_gshared
EFe:_Array_InternalArray__get_Item_TisDouble_t4078015681_m2215331088_gshared
nMh:_Dictionary_2_Init_m3666073812_gshared
lTa:__ZN15ArchiveReadFileD0Ev
x5e:_SymmetricTransform_TransformBlock_m1524716432
jve:_Array_compare_TisColor32_t874517518_m3842009370_gshared
aod:__ZN11UnityEngine15PlatformWrapper18GetOperatingSystemEv
UEf:_ReadOnlyCollection_1_System_Collections_Generic_ICollectionU3CTU3E_Remove_m974176789_gshared
ble:_Delegate_return_type_match_m4278947849
nYd:_InputField_GenerateHightlight_m1346735465
$aj:_Uri_ParseNoExceptions_m1151989845
Rbe:_GC_SuppressFinalize_m953228702
Ebd:_FT_MSB
ydh:_GUIStyle_get_clipping_m2754700641
w_j:__ZN15dense_hashtableINSt3__24pairIK10KeyWrapperINS1_IP11Il2CppClassjEEES4_EES6_N6il2cpp8metadata14ArrayClassHashEN14dense_hash_mapIS6_S4_SB_NS6_14EqualsComparerINSA_17ArrayClassCompareEEENS0_9allocatorIS8_EEE9SelectKeyESF_SH_E3endEv
T7f:_SoapServices_PreLoad_m490411755
Kwg:__Z63RuntimeInvoker_RuntimeObject_Int32_t2071877448_SByte_t454417549PFvvEPK10MethodInfoPvPS4_
Sjk:__ZN6il2cpp6icalls8mscorlib4Mono8Security12Cryptography18KeyPairPersistence10_CanSecureEP12Il2CppString
XTi:_Action_1_Invoke_m4180501989_gshared
tKi:_Slider__ctor_m3124136916
fEc:__ZN13InitialModule8TransferI19StreamedBinaryWriteILb0EEEEvRT_
LAa:__ZN13GfxDeviceGLES14SetRasterStateEPK17DeviceRasterState
dXd:_InputField_set_caretPositionInternal_m231166704
vcj:_Transform_InverseTransformPoint_m2648491174
cOf:_TlsServerHello__ctor_m3032108168
tja:__ZN14SafeBinaryRead11EndTransferEv
i$h:__ZL98ILGenerator_t99948092_CustomAttributesCacheGenerator_ILGenerator_Mono_GetCurrentOffset_m3553856682P21CustomAttributesCache
fHb:__ZN14SafeBinaryRead8TransferI8MonoPPtrEEvRT_PKc17TransferMetaFlags
h2i:_InternalEnumerator_1_System_Collections_IEnumerator_get_Current_m1533037706_gshared
jFc:__ZN11MinMaxCurve11ResetCurvesEv
URf:_RecordProtocol_SendChangeCipherSpec_m3542001341
EBe:_Array_InternalArray__set_Item_TisVector3_t2243707580_m1390667454_gshared
tnc:__ZN12GUIClipState10BeginOnGUIER10InputEvent
o0j:__ZNSt3__26vectorIcNS_9allocatorIcEEEC2Ej
u3e:_KeyPairPersistence_CanSecure_m2251009700
Rw:__ZN7mecanim5human14HumanPoseClearERNS0_9HumanPoseERKNS_6bitsetILj70EEE
v5f:_ReturnMessage_get_Properties_m531965085
I$g:_GenericTypeParameterBuilder_IsSubclassOf_m563999142
Boe:_Exception_ToString_m627574695
o2c:__ZNSt3__26vectorIN20TextRenderingPrivate8FontImpl7IntRectE13stl_allocatorIS3_L18MemLabelIdentifier34ELi16EEE21__push_back_slow_pathIKS3_EEvRT_
$oc:__Z30Event_Get_Custom_PropModifiersP12Il2CppObject
Wt:__ZN7mecanim9animation16CreateClipOutputEPKNS0_4ClipERNS_6memory9AllocatorE
Oze:_Array_InternalArray__Insert_TisDecimal_t724701077_m1429254816_gshared
TCc:__ZN27ParticleSystemEmissionBurst8TransferI24GenerateTypeTreeTransferEEvRT_
fkg:_TimeSpan_get_Days_m1002111510
Kya:__ZNSt3__218__stable_sort_moveIRN10vector_mapI17ScriptingClassPtrPKN5Unity4TypeENS_4lessIS2_EENS_9allocatorINS_4pairIS2_S6_EEEEE13value_compareENS_11__wrap_iterIPSB_EEEEvT0_SJ_T_NS_15iterator_traitsISJ_E15difference_typeEPNSM_10value_typeE
iTb:__ZN6Shader21AwakeFromLoadThreadedEv
Nqa:__ZN6prcoreL17RemapGenericFloatI17TexFormatRGBFloat17TexFormatRGBAHalfEEvPKNS_9InnerInfoE
zzi:__ZL70InputField_t1631627530_CustomAttributesCacheGenerator_m_CharacterLimitP21CustomAttributesCache
gyc:__ZN8JSONRead21TransferSTLStyleArrayI13dynamic_arrayI8Vector2fLj4EEEEvRT_18MemLabelIdentifier17TransferMetaFlags
clk:__ZN6il2cpp2os9SemaphoreC2Eii
fWi:_InternalEnumerator_1_get_Current_m2960188445_AdjustorThunk
hHb:__ZNSt3__26vectorI8MonoPPtr13stl_allocatorIS1_L18MemLabelIdentifier1ELi16EEE8__appendEj
ULi:_Text_set_alignByGeometry_m1514652028
$Za:__ZN14qsort_internal30FindAndMovePivotToLastPositionIP17RODataReplacementi19ROSorterReplacementEEvT_S4_T0_T1_
wMa:__ZN15UniformTFMethod20IsBoneCountSupportedEi
Whh:_Object_Internal_InstantiateSingle_m2776302597
czd:_X509Certificate_GetExpirationDateString_m2351894475
ORe:_FileStream_get_Position_m465478322
bIj:__ZN14dense_hash_setI10KeyWrapperIPK19Il2CppGenericMethodEN6il2cpp8metadata23Il2CppGenericMethodHashENS4_14EqualsComparerINS6_26Il2CppGenericMethodCompareEEENSt3__29allocatorIS4_EEEC2EjRKS7_RKSA_
Vrk:dynCall_viidi
Sze:_Array_InternalArray__Insert_TisInt64_t909078037_m3039874636_gshared
EMi:_ToggleGroup_NotifyToggleOn_m997426227
cSf:_RSASslSignatureDeformatter_SetKey_m1150106904
u2:__ZN24ScriptingMethodFiltering17FilterOnSignatureENS_18MethodSearchFilterE
zEc:__ZN11TrailModule8TransferI19StreamedBinaryWriteILb0EEEEvRT_
lHi:_Scrollbar_ClickRepeat_m3403943364
fXc:__ZThn4_N16PhysicsManager2D12BeginContactEP9b2Contact
aea:__ZN18ScreenManagerWebGL13SetLockCursorE14CursorLockMode
abd:_cf2_arrstack_finalize
fYe:_MonoType_GetMethodsByName_m1854415088
hGh:_Enumerator_get_CurrentValue_m3147984131_gshared
QZg:_DerivedType_GetMethods_m165266904
c5e:_RSAManaged_EncryptValue_m4089823119
l0b:__ZN13MonoBehaviour19HandleNotificationsEPviR11MessageData
Flk:__ZN6il2cpp2os9EventImpl5ResetEv
fch:_GUIStyle_set_focused_m1547304893
CSe:_ReadDelegate_Invoke_m2091885836
Z_g:_TypeBuilder_GetField_m2112455315
yvk:b58
Bvk:b59
ivk:b52
jvk:b53
gvk:b50
hvk:b51
mvk:b56
nvk:b57
kvk:b54
lvk:b55
$ge:_DateTime__ctor_m3604679583_AdjustorThunk
r4e:_MACAlgorithm_Core_m2390605245
b1i:_InternalEnumerator_1_System_Collections_IEnumerator_get_Current_m30488070_gshared
f$b:__ZN10GameObject12CleanupClassEv
LOi:_DllImportAttribute__ctor_m1165454237
pBa:__ZN9GfxDevice25SetShaderPropertiesSharedERK19ShaderPropertySheet
Xqj:_IndexedSet_1_GetEnumerator_m3646001838_gshared
yEb:__ZN10MonoScript17MainThreadCleanupEv
DHa:__ZN18AsyncUploadManager19AsyncResourceUploadER9GfxDeviceii9TextureID
HFi:_VertexHelper_AddUIVertexTriangleStream_m4009409241
u4b:__ZL25InitializeDefaultMaterialv
Tjd:__Z53Register_UnityEngine_CanvasRenderer_get_materialCountv
Ujg:_WaitHandle_Dispose_m441403862
gNi:_VertexHelper_AddVert_m3290455716
Xxa:__ZN17PersistentManager12UnloadStreamERKN4core12basic_stringIcNS0_20StringStorageDefaultIcEEEEb
WLc:__Z43ParticleSystemRenderer_RenderMultipleMeshesIL21SpriteMaskInteraction2EEvRK15RenderNodeQueueRK18RenderMultipleData17ShaderChannelMask
cdg:_DESTransform__ctor_m4096028381
VPj:_il2cpp_unity_liveness_calculation_from_statics
yx:__ZNK26AnimatorControllerPlayable11DerivesFromE17ScriptingClassPtr
ujg:_Scheduler_get_Instance_m1989471839
yYf:_WebProxy_GetProxy_m1249556681
FYf:_WebRequest_System_Runtime_Serialization_ISerializable_GetObjectData_m3377822910
Srb:__ZN8Renderer8TransferI17RemapPPtrTransferEEvRT_
kVg:__Z76RuntimeInvoker_Boolean_t3825574718_UIVertex_t1204258818_UIVertex_t1204258818PFvvEPK10MethodInfoPvPS4_
Fuf:_Collection_1_Contains_m1299140035_gshared
Avk:_glBlitFramebuffer__wrapper
nye:_Array_InternalArray__ICollection_Add_TisUICharInfo_t3056636800_m968274080_gshared
fsj:_ObjectPool_1__ctor_m1532275833_gshared
uxj:__ZL24UnresolvedVirtualCall_71P12Il2CppObjectS0_S0_iS0_S0_S0_PK10MethodInfo
Dlf:_List_1_GetIndex_m3262928832_gshared
tPi:_SafeHandle_DangerousRelease_m2167699172
i8a:__Z24LookRotationToQuaternionRK8Vector3fS1_P11Quaternionf
g8a:__ZN16ReflectionProbes9GetCameraEv
Uth:_AnimatorControllerPlayable_ResolveHash_m3629783965_AdjustorThunk
GXb:__ZL18IsGpuProgramUsable20ShaderGpuProgramTypePK6Shader
tMc:__ZN22ParticleSystemRenderer8TransferI14SafeBinaryReadEEvRT_
G8e:_ArgumentException__ctor_m2105824819
tid:__ZN2UI6Canvas17SetSortingLayerIDEi
VMd:_BaseMeshEffect_get_graphic_m3358796463
b8j:__ZN6il2cpp2vm11MethodStack23CleanupForCurrentThreadEv
TBj:_Predicate_1_Invoke_m695569038_gshared
jaf:_Enumerator_VerifyState_m825848279_AdjustorThunk
Blb:__ZN20TierGraphicsSettings8TransferI24GenerateTypeTreeTransferEEvRT_
iJj:__ZN15dense_hashtableINSt3__24pairIK10KeyWrapperIN6il2cpp5utils13dynamic_arrayIPK10Il2CppTypeLj4EEEEPFvvEEESA_NS3_8metadata19Il2CppSignatureHashEN14dense_hash_mapISA_SD_SG_NSA_14EqualsComparerINSF_22Il2CppSignatureCompareEEENS0_9allocatorISE_EEE9SelectKeyESK_SM_E16reset_thresholdsEv
CIb:__ZN14SafeBinaryRead21TransferSTLStyleArrayI13dynamic_arrayI4AABBLj4EEEEvRT_17TransferMetaFlags
goa:__ZN18UnityPropertySheet8TransferI19StreamedBinaryWriteILb0EEEEvRT_
qQf:_TlsServerCertificate_checkServerIdentity_m3836435780
Vba:__ZNSt3__26__treeINS_12__value_typeIiN11TypeManager18TypeCallbackStructEEENS_19__map_value_compareIiS4_NS_4lessIiEELb1EEENS_9allocatorIS4_EEE7destroyEPNS_11__tree_nodeIS4_PvEE
e6e:_PKCS12_Decrypt_m2353135969
YEh:_PersistentCallGroup_Initialize_m3908067069
k4g:_MonoEvent_ToString_m386956596
dti:__ZL70RuntimePlatform_t1869584967_CustomAttributesCacheGenerator_FlashPlayerP21CustomAttributesCache
NCe:_Array_Sort_TisRuntimeObject_m3309514378_gshared
Lka:__ZL19GetCameraTargetRectRK6Camerabb
AIh:_Transform_1_BeginInvoke_m1786442111_gshared
QFc:__ZN14ParticleSystem8Update1bER24ParticleSystemUpdateDatafNS_11UpdateFlagsEi
$8a:__ZN13dynamic_arrayIN10GameObject13ComponentPairELj4EE6insertEPS1_RKS1_
sgb:__ZN21UnityDefaultAllocatorI17LowLevelAllocatorE10DeallocateEPv
IZ:__GLOBAL__sub_I_runtime_camera2_lump_cpp
Yr:__ZN15PackedIntVector8TransferI14SafeBinaryReadEEvRT_
J2g:_FieldInfo_get_IsLiteral_m267898096
qTf:_SslStreamBase_EndNegotiateHandshake_m1732321201
YIh:_Transform_1_BeginInvoke_m1167293475_gshared
sK:__ZN13AudioListener8DoUpdateEv
tce:__Z13bankers_roundd
IAb:__ZN14SafeBinaryRead8TransferI5RectTIfEEEvRT_PKc17TransferMetaFlags
Ci:_emscripten_glGenFramebuffers
z9d:_Hashtable_CopyTo_m2778915805
Qba:__ZN17BaseObjectManager16StaticInitializeEPv
eZg:_ConstructorBuilder_get_IsCompilerContext_m2796899803
Yve:_Array_IndexOf_TisUIVertex_t1204258818_m613887160_gshared
MBb:__ZN18StreamedBinaryReadILb0EE19TransferSTLStyleMapINSt3__28multimapIN4core12basic_stringIcNS4_20StringStorageDefaultIcEEEE4PPtrI6ObjectENS2_4lessIS8_EE13stl_allocatorINS2_4pairIKS8_SB_EEL18MemLabelIdentifier51ELi16EEEEEEvRT_17TransferMetaFlags
Uce:_DateTime_CoreParse_m2014268103
fjf:_List_1__ctor_m3698273726_gshared
cwh:_Application_InvokeOnBeforeRender_m799598445
duc:__Z18Transfer_BlittableI9JSONWriteLb0EyEvRK29SerializationCommandArgumentsR31RuntimeSerializationCommandInfo
Rka:__ZN13RenderTexture15ThreadedCleanupEv
hsd:__ZNK20UnityWebRequestProtoI19TransportJavaScript16AtomicRefCounter14RedirectHelper14ResponseHelper15DownloadHandler13UploadHandler12HeaderHelper14AsyncOperationE19GetDownloadProgressEv
Yue:_Array_BinarySearch_TisRuntimeObject_m3361740551_gshared
nob:__ZN12CubemapArray23VirtualRedirectTransferER14SafeBinaryRead
Zt:__ZN21AnimationClipPlayable16ProcessHumanPassEPK35AnimationPlayableEvaluationConstantPK32AnimationPlayableEvaluationInputP33AnimationPlayableEvaluationOutput
$Ef:_ReadOnlyCollection_1_System_Collections_IList_Add_m616574295_gshared
yMe:_Int32_ProcessTrailingWhitespace_m2812079777
Vjc:__Z43RectTransform_CUSTOM_INTERNAL_set_sizeDeltaP12Il2CppObjectRK13Vector2fIcall
tYf:_WebProxy__ctor_m3679722173
k4j:__ZN15dense_hashtableINSt3__24pairIK10KeyWrapperINS1_IPKcS4_EEEiEES6_24NamespaceAndNamePairHashN14dense_hash_mapIS6_iS9_NS6_14EqualsComparerI26NamespaceAndNamePairEqualsEENS0_9allocatorIS8_EEE9SelectKeyESD_SF_E6insertERKS8_
Xja:__ZN24GenerateTypeTreeTransfer18BeginArrayTransferEPKcS1_Ri17TransferMetaFlags
JHa:__Z16DecompressCrunchPKhRjR13TextureFormatiiii18MemLabelIdentifier
um:___syscall51
ym:___syscall54
zpj:_UnityAction_2_Invoke_m1994351568_gshared
Eoh:_UnityAnalyticsHandler_Dispose_m1048126775
eD:__ZNK8Animator20IsAnyRendererVisibleEv
Jbd:_cff_builder_add_point1
e5j:__ZN6il2cpp2vm5Image21GetCachedResourceDataEPK11Il2CppImageRKNSt3__212basic_stringIcNS5_11char_traitsIcEENS5_9allocatorIcEEEE
GUd:_HorizontalOrVerticalLayoutGroup_set_childControlWidth_m4209477792
aye:_Array_InternalArray__ICollection_Add_TisUInt32_t2149682021_m2629016323_gshared
_Fb:__Z18Transfer_BlittableI14SafeBinaryReadLb0E10ColorRGBAfEvRK29SerializationCommandArgumentsR31RuntimeSerializationCommandInfo
lLc:__ZN21InheritVelocityModuleD2Ev
Aa:invoke_iiiiiiiiii
CGe:_Object_Instantiate_TisRuntimeObject_m447919519_gshared
Gze:_Array_InternalArray__Insert_TisKeyValuePair_2_t888819835_m975554221_gshared
qzg:__Z59RuntimeInvoker_RuntimeObject_Int64_t909078037_RuntimeObjectPFvvEPK10MethodInfoPvPS4_
yta:__ZN18LoadSceneOperation19IntegrateTimeSlicedEi
Fjg:_Scheduler_SchedulerThread_m2209572785
j$e:_SortKeyBuffer_GetResultAndReset_m2516956577
ceb:__ZN10FileSystem19SetCurrentDirectoryERKN4core12basic_stringIcNS0_20StringStorageDefaultIcEEEE
Y4:__ZN16ScriptingManager24NotifyScriptCacheReleaseEi
tec:__Z47Register_UnityEngine_Coroutine_ReleaseCoroutinev
_K:__ZN15AudioReverbZone13SetFMODValuesEv
TBh:_Component_GetComponentInChildren_m3925629424
x1:__ZL19StaticDestroyShaderPv
oe:_glRenderbufferStorageMultisample
Ey:__ZN23AnimationPlayableOutput17SetTargetAnimatorEP8Animator
imj:_X509Chain__ctor_m1113875360
PIb:__Z35Transfer_Blittable_SingleValueFieldI14SafeBinaryReadfEvRT_R17GeneralMonoObjectRK23StaticTransferFieldInfo
LQf:_TlsServerHello_processProtocol_m1241336522
Sre:_Array_InternalArray__ICollection_Remove_TisKeyValuePair_2_t888819835_m1287715465_gshared
vSi:_ContextAttribute_IsContextOK_m3281216012
OTe:_PathTooLongException__ctor_m3212099251
dIc:__Z25EvaluateRandomGradientHDRIL12GradientMode0ELS0_0EEN4math8floatNx4ERK14MinMaxGradientRKNS1_7_float4ES8_
T9f:_ObjectManager_RaiseDeserializationEvent_m1611173032
srh:_AnimatorControllerPlayable_INTERNAL_CALL_CreateHandleInternal_m1836196929
fs:__ZN17PackedFloatVector8TransferI18StreamedBinaryReadILb0EEEEvRT_
Vob:__ZN7Cubemap23VirtualRedirectTransferER17RemapPPtrTransfer
hhc:__Z37Register_UnityEngine_Screen_get_widthv
V7b:__ZN22BlockMemoryCacheWriter11GetPathNameEv
$Sd:_Graphic_Rebuild_m2617722358
zie:_DateTime_ToString_m3108726445_AdjustorThunk
yV:__ZN19CloudServiceHandlerD2Ev
nFe:_Array_InternalArray__get_Item_TisTableRange_t2011406615_m602485977_gshared
gYd:_InputField_Append_m2623574152
z8e:_ApplicationException__ctor_m1120437222
wp:stackAlloc
Oec:__Z44Camera_CUSTOM_INTERNAL_CALL_ScreenPointToRayP12Il2CppObjectRK8Vector3fR3Ray
wRa:__ZN25SingleBlockMemoryFileData4LockEPPv
e1g:_MethodBuilder_GetHashCode_m1713271764
Fqf:_Collection_1_IsSynchronized_m1319022347_gshared
s_e:_MSCompatUnicodeTable_GetResource_m3816716847
Yfc:__Z32RectOffset_Get_Custom_PropBottomP12Il2CppObject
l$d:_Array_CreateInstance_m15016505
aIb:__ZNSt3__26vectorI17AnimationCurveTplIfE13stl_allocatorIS2_L18MemLabelIdentifier1ELi16EEE6assignINS_11__wrap_iterIPS2_EEEENS_9enable_ifIXaasr21__is_forward_iteratorIT_EE5valuesr16is_constructibleIS2_NS_15iterator_traitsISC_E9referenceEEE5valueEvE4typeESC_SC_
Mnk:_stat
tvd:_RijndaelTransform_Decrypt128_m1282993908
Czk:_glUniform2fv__wrapper
dze:_Array_InternalArray__ICollection_CopyTo_TisUInt16_t986882611_m3228377237_gshared
iAi:__ZL68Navigation_t1571958496_CustomAttributesCacheGenerator_m_SelectOnDownP21CustomAttributesCache
ezh:_Bounds_op_Inequality_m2315096783
fRc:__ZN15b2DistanceJoint23InitVelocityConstraintsERK12b2SolverData
J0i:_InternalEnumerator_1_System_Collections_IEnumerator_get_Current_m3065287496_gshared
xza:__ZNSt3__218__insertion_sort_3IRNS_4lessIN22BuiltinResourceManager8ResourceEEEPS3_EEvT0_S7_T_
nCh:_Component_BroadcastMessage_m1308086896
Nud:_RC2_set_KeySize_m2015782960
ma:invoke_iiiiiiiiiiii
U5e:_StrongName_get_PublicKey_m3777577320
Xse:_PlayableHandle_IsPlayableOfType_TisAnimationLayerMixerPlayable_t3057952312_m964258557_gshared
Ugc:__Z43Register_UnityEngine_GameObject_SendMessagev
e8:__ZNSt3__26__treeINS_12__value_typeIN4core12basic_stringIcNS2_20StringStorageDefaultIcEEEES6_EENS_19__map_value_compareIS6_S7_NS_4lessIS6_EELb1EEE13stl_allocatorIS7_L18MemLabelIdentifier12ELi16EEE7destroyEPNS_11__tree_nodeIS7_PvEE
PEj:__ZN6il2cpp2vm17SetupFieldsLockedEP11Il2CppClassRKNS_2os12FastAutoLockE
tO:__ZN11AudioSourceD0Ev
CAh:_CanvasRenderer_set_hasPopInstruction_m1388844875
pAc:__ZN27TrailModulePropertyBindings13SetFloatValueER14ParticleSystemif
Deb:__ZN16MemoryFileSystem4NameEv
IHd:_BaseRaycaster_OnEnable_m3641767070
TWe:_MissingMemberException_get_Message_m2763732423
vIf:_PrimeGeneratorBase_get_PrimalityTest_m308005118
hdh:_GUIStyle_Internal_CalcSize_m1309259680
Coc:__ZNK8GUIStyle8CalcSizeER10GUIContent
aff:_List_1_CheckIndex_m2328469916_gshared
PCg:__Z75RuntimeInvoker_RuntimeObject_RuntimeObject_Decimal_t724701077_RuntimeObjectPFvvEPK10MethodInfoPvPS4_
h3c:_UNITY_FT_New_Size
UH:__Z96Register_UnityEngine_Animations_AnimatorControllerPlayable_INTERNAL_CALL_PlayInFixedTimeInternalv
zIc:__Z9UpdateTplIL27ParticleSystemCurveEvalMode4EEvRK11MinMaxCurveS3_S3_R23ParticleSystemParticlesjjRKN4math8float3x3ERKNS6_7_float4E
Mof:_List_1_get_Item_m3157283227_gshared
Woj:_InvokableCall_4_Invoke_m1555001411_gshared
Zfe:_Convert_ToString_m2915777777
Zyc:__ZN35ClampVelocityModulePropertyBindings13SetFloatValueER14ParticleSystemif
Ioa:__ZNSt3__27__sort4IRPFbRKNS_4pairIN9ShaderLab16FastPropertyNameEN18UnityPropertySheet11UnityTexEnvEEES8_EPS6_EEjT0_SD_SD_SD_T_
Yad:_cf2_hintmap_build
wda:__ZN15dense_hashtableINSt3__24pairIKN4core12basic_stringIcNS2_20StringStorageDefaultIcEEEE10vector_setI4PPtrI11SpriteAtlasENS0_4lessISB_EE13stl_allocatorISB_L18MemLabelIdentifier79ELi16EEEEES6_20StringHash32FunctionIS6_EN14dense_hash_mapIS6_SH_SK_NS0_8equal_toIS6_EESE_ISI_LSF_79ELi16EEE9SelectKeyESN_SO_E5clearEv
M8c:_Line_Up
OYe:_MonoType_GetGenericTypeDefinition_m2363776160
SOf:_Context_set_SentConnectionEnd_m2641458842
ve:_emscripten_glBufferSubData
w2d:_Buffer_BlockCopyInternal_m2627156229
QUd:_Image_set_overrideSprite_m3362535904
rHd:_ExecuteEvents_get_pointerExitHandler_m3250605428
Ppa:__ZN6prcoreL12RemapGenericI15TexFormatRGB88817TexFormatARGB8888EEvPKNS_9InnerInfoE
Xp:__Z17CalculateGlobalRS23TransformAccessReadOnly
zzh:_Camera_ScreenPointToRay_m614889538
U0e:_Kernel_multiByteDivide_m735279869
aPh:_Dictionary_2_ToTValue_m542772656_gshared
daa:__ZN33InstancedMeshIntermediateRenderer13StaticDestroyEPv
djg:_Thread_GetNewManagedId_internal_m3211695465
f8g:_SkinChangedDelegate_Invoke_m2801964040
IGe:_ScriptableObject_CreateInstance_TisRuntimeObject_m926060499_gshared
qHa:__ZN17GenericDynamicVBO17DrawChunkInternalERK21DynamicVBOChunkHandle17ShaderChannelMaskS3_P17VertexDeclarationP16DrawBuffersRangeij
XSb:__ZN22MemoryCacherReadBlocks14LockCacheBlockEjPPhS1_
x1d:_Boolean_System_IConvertible_ToChar_m2637404801_AdjustorThunk
bBd:_SecurityContext_Capture_m2535194991
jng:_UInt16_System_IConvertible_ToSByte_m3044765342_AdjustorThunk
LBg:__Z66RuntimeInvoker_Void_t1841601450_Int64_t909078037_Int32_t2071877448PFvvEPK10MethodInfoPvPS4_
g2c:__ZN20TextRenderingPrivate8FontImpl16CacheFontForTextEPtiifjPK13dynamic_arrayINS_16TextFormatChangeELj4EE
ZBe:_Array_qsort_TisUIVertex_t1204258818_TisUIVertex_t1204258818_m512606409_gshared
Hud:__Z21ArrayElementTypeCheckP11Il2CppArrayPv
Vyk:_emscripten_glTexSubImage2D__wrapper
_Vf:_NameValueCollection_AsSingleString_m10599052
Fpk:__ZNSt3__212basic_stringIcNS_11char_traitsIcEENS_9allocatorIcEEE6appendEjc
PZe:_Object_InternalGetHashCode_m1371384246
yFi:_Navigation_get_defaultNavigation_m2185194207
o$c:__ZN16PhysicsManager2D20WorldContactFilter2D13ShouldCollideEP9b2FixtureS2_
lNe:_Int32_System_IConvertible_ToSByte_m1449623243_AdjustorThunk
T7e:_AccessViolationException__ctor_m1270251537
Zkd:__Z42Register_UnityEngine_Canvas_get_rootCanvasv
Bmj:_X509ExtensionCollection_IndexOf_m3972100651
eHb:__Z14resize_trimmedINSt3__26vectorI8MonoPPtr13stl_allocatorIS2_L18MemLabelIdentifier1ELi16EEEEEvRT_j
cf:_TTF_RenderText_Solid
dog:_UInt32_System_IConvertible_ToInt64_m3091851828
XWe:_MissingMethodException__ctor_m3898429715
s7f:_RemotingConfiguration_RegisterClientProviderTemplate_m514821425
WGh:_Enumerator_System_Collections_IEnumerator_Reset_m3085583937_gshared
d5e:_RSAManaged_ExportParameters_m2873993187
Ube:_Convert__cctor_m926133987
Cpf:_Enumerator__ctor_m2816143215_AdjustorThunk
Mqd:__ZN11UnityEngine7Connect16PersistentValuesC2Ev
l$f:_X509Chain_FindParent_m404663796
VWe:_MissingMemberException__ctor_m2164043278
_Cj:__ZL7log2_32j
S1f:_Interpreter_GetGroupInfo_m312421921
sKa:__Z15IsIEEE754Format14GraphicsFormat
hKb:__Z19TransferField_ArrayI17RemapPPtrTransfer27Converter_UnityEngineObjectEvRK23StaticTransferFieldInfoR31RuntimeSerializationCommandInfoRT0_
bb:invoke_iifiii
G1a:__ZN19ShaderPropertySheet24SetTextureFromTextureRefERK23FastTexturePropertyNamePK10TextureRef
Umb:__ZN14RenderSettings8TransferI18StreamedBinaryReadILb0EEEEvRT_
CCa:__ZN13GfxDeviceGLES15UploadTexture2DE9TextureID16TextureDimensionPKhiii14GraphicsFormati18TextureUploadFlags16TextureUsageMode
fPe:_IntPtr_System_Runtime_Serialization_ISerializable_GetObjectData_m21554269_AdjustorThunk
RM:__ZN4FMOD6System9createDSPEP20FMOD_DSP_DESCRIPTIONPPNS_3DSPE
Efh:_Material_HasProperty_m3175512802
gy:__ZN7mecanim9animation26DestroyControllerWorkspaceEPNS0_19ControllerWorkspaceERNS_6memory9AllocatorE
fJ:__ZN4FMOD8ChannelI11EndCallbackEv
Cyd:_ToBase64Transform_TransformBlock_m2201454137
qoc:__ZN8GUIStyle14SetDefaultFontEPN13TextRendering4FontE
BCc:__ZN11ForceModule8TransferI24GenerateTypeTreeTransferEEvRT_
J6i:_PatternCompiler_EmitCount_m3609178511
xsb:__ZN15QualitySettings23VirtualRedirectTransferER24GenerateTypeTreeTransfer
zBj:_U3CCreateWhereIteratorU3Ec__Iterator1D_1_System_Collections_Generic_IEnumerableU3CTSourceU3E_GetEnumerator_m2682676065_gshared
sGe:_Component_GetComponent_TisRuntimeObject_m4109961936_gshared
cdh:_GUIStyle_Internal_GetCursorStringIndex_m1491806746
AQj:__ZN6il2cpp2os10FileHandleC2Ev
Uic:__Z59Register_UnityEngine_MonoBehaviour_Internal_CancelInvokeAllv
zHj:__ZN30dense_hashtable_const_iteratorINSt3__24pairIK10KeyWrapperIPK19Il2CppGenericMethodEPK26Il2CppGenericMethodIndicesEES6_N6il2cpp8metadata23Il2CppGenericMethodHashEN14dense_hash_mapIS6_SA_SE_NS6_14EqualsComparerINSD_26Il2CppGenericMethodCompareEEENS0_9allocatorISB_EEE9SelectKeyESI_SK_EppEv
TUf:_HybridDictionary_Add_m1037587952
Lfh:_Mathf_Cos_m238853451
L2c:_UNITY_FT_Request_Metrics
I2j:__ZN6il2cpp6icalls8mscorlib6System10Reflection10MonoMethod29get_IsGenericMethodDefinitionEP22Il2CppReflectionMethod
o$j:__ZN6il2cpp2vm6Thread21AllocThreadStaticDataEi
Wce:_DateTime_YearMonthDayFormats_m4204607055
AOd:_ColorBlock_set_disabledColor_m3502887543_AdjustorThunk
xbk:__ZN30dense_hashtable_const_iteratorINSt3__24pairIK10KeyWrapperIPK19Il2CppGenericMethodEP10MethodInfoEES6_N6il2cpp8metadata23Il2CppGenericMethodHashEN14dense_hash_mapIS6_S9_SD_NS6_14EqualsComparerINSC_26Il2CppGenericMethodCompareEEENS0_9allocatorISA_EEE9SelectKeyESH_SJ_EppEv
wS:__Z13RegisterClassI13AudioListenerEvv
Tsj:_Aes__ctor_m4020215067
LF:__ZN23AnimationOffsetPlayable11GetPositionEv
otc:__Z18Transfer_BlittableI9JSONWriteLb0E8Vector3fEvRK29SerializationCommandArgumentsR31RuntimeSerializationCommandInfo
bg:_emscripten_glUniform4i
HNc:__ZNSt3__227__insertion_sort_incompleteIRN10vector_mapIi22ParticleModulePropertyNS_4lessIiEENS_9allocatorINS_4pairIiS2_EEEEE13value_compareEPS7_EEbT0_SD_T_
cMc:__ZN22ParticleSystemRenderer5ResetEv
ZSd:_Graphic_OnDisable_m2360886868
lsj:_ObjectPool_1_Release_m1615270002_gshared
of:_emscripten_glUniform4f
Gj:___unlock
LH:__Z105Register_UnityEngine_Animations_AnimatorControllerPlayable_INTERNAL_CALL_GetAnimatorClipInfoCountInternalv
UIi:_ScrollRect_InternalCalculateOffset_m3083065267
R7d:_Comparer_Compare_m4132969818
eP:__ZN20SoundChannelInstance19setReverbPropertiesEP29FMOD_REVERB_CHANNELPROPERTIES
gF:__ZNK26AnimatorControllerPlayable14IsInTransitionEi
UQh:_DefaultComparer_Equals_m2171836276_gshared
f1j:__ZN6il2cpp2vm9Exception18GetFormatExceptionEPKc
imc:__Z40Register_UnityEngine_Transform_IsChildOfv
Jch:_GUIStyle_Draw_m1435796321
J5d:_ArrayList_Sort_m923359189
Nfc:__Z45Register_UnityEngine_Display_GetSystemExtImplv
ev:__ZN7mecanim14ValueArrayLoopILb1EEEvRKNS_10ValueArrayES3_RKNS_14ValueArrayMaskERS1_f
Wu:__ZN7mecanim9animation23TransformValuesFromClipEiiiRKNS_10ValueArrayERKNS0_10ClipOutputERKNS0_12ClipBindingsERS1_RNS_14ValueArrayMaskEb
Uyh:_Bounds_set_center_m2069004927_AdjustorThunk
wqc:__Z46GUIStyle_CUSTOM_Internal_DrawWithTextSelectionP12Il2CppObjectR43MonoInternal_DrawWithTextSelectionArguments
XCj:__ZL17log2withScale_128yyi
dhd:__ZNSt3__218__insertion_sort_3IRNS_6__lessIN2UI14DepthSortEntryES3_EEPS3_EEvT0_S7_T_
I4g:_MonoField_CheckGeneric_m1527550038
jaa:__ZN13RuntimeStaticI15DirectorManagerLb0EE16StaticInitializeEPv
Rwc:__ZN8JSONRead8TransferI23ManagedObjectTransfererEEvRT_PKc17TransferMetaFlagsb
ejg:_Thread_get_ManagedThreadId_m1995754972
aHd:_BaseInput_get_touchCount_m998724785
Jzb:__ZN11TimeManager6UpdateEv
AYd:_InputField_get_preferredWidth_m3185355225
t8g:_GUIUtility_get_pixelsPerPoint_m2667928361
Xig:_Thread_SetState_m3198426726
b6d:_ArrayListWrapper_Contains_m1158465965
Tnk:_fflush
Jua:__ZN17LightProbeContext4InitERK16LightmapSettingsRK14RenderSettings
Ylk:__GLOBAL__sub_I_Error_cpp
W8i:_Alternation_GetWidth_m4218808325
ava:__ZN9Texture3DD2Ev
$4c:_ft_bitmap_glyph_bbox
fWf:_TypeConverterAttribute__ctor_m4061167050
dpf:_Enumerator_MoveNext_m3315718998_gshared
j7g:_Font_add_textureRebuilt_m1282639736
cCc:__ZN15SerializeTraitsIN9SubModule14SubEmitterDataEE8TransferI14SafeBinaryReadEEvRS1_RT_
mIc:__Z18MagnitudeUpdateTplIL27ParticleSystemCurveEvalMode2EEvRK11MinMaxCurveR23ParticleSystemParticlesjjRKN4math7_float4E
agk:_GC_reclaim_uninit
W5a:__Z34ProcessIndexListIsNodeVisibleStep2RK22SceneCullingParametersPK9SceneNodePK4AABBR9IndexList
wEb:__ZN10MonoScriptD2Ev
$Ki:_Slider_OnRectTransformDimensionsChange_m4109401172
zqg:_Version_CheckedSet_m76493673
pYf:_WebHeaderCollection_Get_m3391944907
phc:__Z39Input_CUSTOM_INTERNAL_get_mousePositionP8Vector3f
N7c:_tt_cmap13_char_next
dVa:__ZN9ShaderLab4Pass16SetupPassOptionsEv
Mqj:_UnityEvent_4__ctor_m3102731553_gshared
ph:_JS_Sound_ReleaseInstance
Usi:__ZL72IL2CPPStructAlignmentAttribute_t130316838_CustomAttributesCacheGeneratorP21CustomAttributesCache
DBa:__ZN13GfxDeviceGLES19DrawBuffersIndirectEP9GfxBufferPK18VertexStreamSourceiP17VertexDeclaration17ShaderChannelMask16GfxPrimitiveType15ComputeBufferIDj
nph:_AnimationClipPlayable__ctor_m1126286616
Scj:_Renderer_get_sortingLayerID_m2403577271
gQd:_DefaultControls_CreateScrollbar_m770089625
PAc:__ZL25CalculateCurveRangesValueRKN4math7_float2ERK17AnimationCurveTplIfE
Exk:_emscripten_glPixelStorei__wrapper
BEg:__Z98RuntimeInvoker_Void_t1841601450_Int32_t2071877448_Int32_t2071877448_SByte_t454417549_RuntimeObjectPFvvEPK10MethodInfoPvPS4_
hkc:__Z21Resources_CUSTOM_LoadP12Il2CppStringP12Il2CppObject
Mm:FUNCTION_TABLE_diddi
_Id:_ExecuteEvents_Execute_m2863348178
mkc:__Z26Material_CUSTOM_SetIntImplP12Il2CppObjectii
gMe:_Int16_System_IConvertible_ToSingle_m3277935657_AdjustorThunk
lvh:_AnimatorControllerPlayable_HasState_m3003093532_AdjustorThunk
Lgd:__ZNK2UI14CanvasRenderer22GetTypeVirtualInternalEv
XSi:_InternalRemotingServices__cctor_m3821625125
jgc:__Z42Register_UnityEngine_RectOffset_get_bottomv
$fg:_StringBuilder_Insert_m3322917127
_Ph:_DefaultComparer_Equals_m724229128_gshared
LHh:_Enumerator_VerifyCurrent_m1702320752_AdjustorThunk
zee:_Convert_ToDouble_m3520060872
$Hc:__Z25EvaluateRandomGradientHDRIL12GradientMode1ELS0_0EEN4math8floatNx4ERK14MinMaxGradientRKNS1_7_float4ES8_
Ywk:_emscripten_glUniform1f__wrapper
Crk:dynCall_di
iSf:_SslCipherSuite_ComputeServerRecordMAC_m1876572367
S1c:__ZN20TextRenderingPrivate19NativeTextGeneratorC2ERK11UTF16StringPNS_8FontImplE11ColorRGBA32ifRK8Vector2fbifiibffbbbP13dynamic_arrayIN2UI8UIVertexELj4EE
Xsc:__Z28RegisterModule_JSONSerializev
kig:_Interlocked_CompareExchange_m3227034792
jtd:_HashAlgorithm_get_Hash_m931854461
B4i:_DefaultComparer_Compare_m3564013922_gshared
iZb:__ZN2UI13RectTransform8TransferI14SafeBinaryReadEEvRT_
$tc:__Z35Transfer_Blittable_FixedBufferFieldI9JSONWriteaEvRK29SerializationCommandArgumentsR31RuntimeSerializationCommandInfo
ozc:__ZN34ColorBySpeedModulePropertyBindings13GetFloatValueERK14ParticleSystemi
H9b:__Z20IsHumanControllingUsv
qWa:__ZNK19RenderEventsContext21ExecuteCommandBuffersEijR17ShaderPassContextR15RenderNodeQueueP19ProfilerInformationi
I_:__ZNK20DynamicHeapAllocatorI17LowLevelAllocatorE10GetPtrSizeEPKv
aib:__ZN10systeminfo21GetPersistentDataPathEv
TQd:_Dropdown_set_value_m2945561009
uBa:__ZN13GfxDeviceGLES17DestroyGpuProgramEPK10GpuProgram
uJe:_GregorianCalendar_GetMonth_m523739832
CFb:__Z44InitializeTransferFunctionScriptingTraitsForI18StreamedBinaryReadILb0EEEvR31TransferFunctionScriptingTraits
U1a:__ZNSt3__218__insertion_sort_3IR23CompareReflectionProbesP31RuntimeReflectionProbeBlendInfoEEvT0_S5_T_
rKb:__ZN12NativeBufferI27Converter_SimpleNativeClassI8GradientEE15SetupForWritingER9ArrayInfo
Sca:__ZNSt3__213__stable_sortIRNS_4lessIN4core12basic_stringIcNS2_20StringStorageDefaultIcEEEEEENS_11__wrap_iterIPS6_EEEEvT0_SC_T_NS_15iterator_traitsISC_E15difference_typeEPNSF_10value_typeEi
x7g:_GameObject_AddComponent_m3757565614
Ida:__ZN12_GLOBAL__N_113StaticDestroyEPv
aHj:__ZN30dense_hashtable_const_iteratorINSt3__24pairIK10KeyWrapperIPKcEP11Il2CppClassEES5_N6il2cpp5utils11StringUtils12StringHasherIS4_EEN14dense_hash_mapIS5_S8_SE_NS5_14EqualsComparerINSB_13VmStringUtils21CaseSensitiveComparerEEENS0_9allocatorIS9_EEE9SelectKeyESJ_SL_EppEv
FLe:_Guid_ToString_m51661589
ync:__ZNK8GUIStyle4DrawER8GUIStateRK5RectTIfER10GUIContentbbbb
GLi:_Text_set_font_m1095513810
LBk:_glUnmapBuffer__wrapper
Ihe:_DateTime_System_IConvertible_ToUInt32_m1363211018_AdjustorThunk
TVd:_InputField_get_cachedInputTextGenerator_m881618486
dAh:_Canvas_get_rootCanvas_m1790974328
lic:__Z32Mesh_CUSTOM_ExtractArrayFromListP12Il2CppObject
KXg:_Binder_get_DefaultBinder_m965620943
uxc:__ZN8JSONRead21TransferSTLStyleArrayINSt3__26vectorI8Gradient13stl_allocatorIS3_L18MemLabelIdentifier1ELi16EEEEEEvRT_17TransferMetaFlags
eAb:__ZNSt3__218__insertion_sort_3IRNS_6__lessINS_4pairIPKN5Unity4TypeE7Hash128EES8_EEPS8_EEvT0_SC_T_
CMc:__Z9UpdateTplIL22MinMaxGradientEvalMode0EL12GradientMode0ELS1_1EEvRK23ParticleSystemParticlesP11ColorRGBA32RK14MinMaxGradientRK23OptimizedMinMaxGradientRK8Vector2f
TLb:__ZN10RectOffset8TransferI24GenerateTypeTreeTransferEEvRT_
l0d:_SimpleEnumerator_get_Current_m482975946
Pac:__Z18GetResourceManagerv
xok:_srand
Sgd:__ZN2UI13CanvasManager19RemoveDirtyRendererEPNS_6CanvasEPNS_14CanvasRendererE
yIj:__ZN15dense_hashtableI10KeyWrapperIPK17Il2CppGenericInstES4_N6il2cpp8metadata21Il2CppGenericInstHashEN14dense_hash_setIS4_S7_NS4_14EqualsComparerINS6_24Il2CppGenericInstCompareEEENSt3__29allocatorIS4_EEE8IdentityESB_SE_E12resize_deltaEjj
oyh:_AudioClip_InvokePCMSetPositionCallback_Internal_m2304858844
hFc:__ZN14MinMaxGradient5ResetE26ParticleSystemGradientMode
Ond:__ZN11UnityEngine15PlatformWrapper25GetGraphicsRendererStringEv
OXd:_InputField_KeyPressed_m3066588581
Wfj:_Time_get_unscaledTime_m862335845
eKi:_Selectable_DoStateTransition_m539253088
Lxd:_SHA512_Create_m439875055
cZ:__ZN11UnityEngine15CloudWebService17WebFileDownloaderINS0_20WebRequestRestClientENS0_23WebRequestRestHeaderMapEED2Ev
ac:invoke_vi
Dxd:_SHA384Managed_update_m2629600295
CVc:__ZNSt3__26vectorINS0_IN10ClipperLib8IntPointENS_9allocatorIS2_EEEENS3_IS5_EEE7reserveEj
kQa:__ZN15dense_hashtableINSt3__24pairIKN4core12basic_stringIcNS2_20StringStorageDefaultIcEEEEP20ArchiveStorageReaderEES6_20StringHash32FunctionIS6_EN14dense_hash_mapIS6_S9_SC_NS0_8equal_toIS6_EE13stl_allocatorISA_L18MemLabelIdentifier54ELi16EEE9SelectKeyESF_SI_ED2Ev
fzc:__ZN14ParticleSystem17RemoveFromManagerEv
dGc:__ZNK14RotationModule16UpdateProceduralERK19ParticleSystemStateR23ParticleSystemParticlesRKN4math7_float4E
_b:invoke_vd
yb:invoke_vf
D6:__ZNK10GameObject8IsActiveEv
gZe:_NumberFormatter__cctor_m1641464619
VEc:__ZN21InheritVelocityModule5ResetEv
Nbg:_SByte_System_IConvertible_ToUInt32_m4256495110
EJd:_PointerEventData_set_eligibleForClick_m2036057844
hKa:__ZN18GfxFramebufferGLES23SetupDefaultFramebufferEPP17RenderSurfaceBaseS2_N2gl6HandleILNS3_10ObjectTypeE9EEE
$nk:_mbsinit
rch:_GUIStyle_get_Internal_clipOffset_m4237737448
yvi:__ZL70EventSystem_t3466835263_CustomAttributesCacheGenerator_m_FirstSelectedP21CustomAttributesCache
qea:__ZN13ScreenManager18RequestOrientationE17ScreenOrientation
mFj:__ZN6il2cpp2vm5Class12SetupMethodsEP11Il2CppClass
tdc:__Z39DeleteLastPathNameComponentWithAnySlashRKN4core12basic_stringIcNS_20StringStorageDefaultIcEEEE
Anc:__ZN10GUIManager14InitGUIManagerEv
vzi:__ZL68InputField_t1631627530_CustomAttributesCacheGenerator_m_KeyboardTypeP21CustomAttributesCache
kNi:_VerticalLayoutGroup_CalculateLayoutInputHorizontal_m497637066
huh:_AnimatorControllerPlayable_CrossFadeInFixedTimeInternal_m1452579496
Hcj:_RectTransformUtility_PixelAdjustPoint_m560908615
R3f:_MethodCall__ctor_m4106494862
iwg:__Z167RuntimeInvoker_Void_t1841601450_SByte_t454417549_SByte_t454417549_SByte_t454417549_SByte_t454417549_SByte_t454417549_SByte_t454417549_SByte_t454417549_SByte_t454417549PFvvEPK10MethodInfoPvPS4_
Mqc:__Z37Register_UnityEngine_GUIStyle_Cleanupv
Pa:invoke_iiifii
Aej:_StackTraceUtility_ExtractStringFromExceptionInternal_m2568950546
UNj:__ZN6il2cpp6icalls8mscorlib6System8MonoType13IsPointerImplEP20Il2CppReflectionType
jee:_Convert_ToDecimal_m2284596541
bth:_AnimatorControllerPlayable_GetLayerIndex_m747049736
Zi:_emscripten_glFramebufferRenderbuffer
zOe:_Int64_GetHashCode_m4047499913
a9a:__ZN9Transform30EnsureTransformHierarchyExistsEv
FPj:_il2cpp_field_get_flags
lT:__ZN11AudioModule26SetDefaultMicrophoneDriverEPv
nqg:_UnitySerializationHolder_GetRealObject_m286267090
J0d:_Attribute_IsDefined_m216577166
N4d:_Char_ToUpper_m109978609
gG:__Z94Register_UnityEngine_Animations_AnimationLayerMixerPlayable_INTERNAL_CALL_CreateHandleInternalv
CZi:_InternalEnumerator_1_get_Current_m1089848479_gshared
yme:_Double_System_IConvertible_ToInt64_m3798425616
nLd:_StandaloneInputModule_get_repeatDelay_m3025279
Og:___cxa_find_matching_catch_4
pbc:__ZN13MonoBehaviour13StopCoroutineEPKc
Zbb:__ZNSt3__26vectorINS_4pairIN4core12basic_stringIcNS2_20StringStorageDefaultIcEEEEPK17MessageIdentifierEENS_9allocatorISA_EEE12__move_rangeEPSA_SE_SE_
nMc:__ZThn32_N22ParticleSystemRendererD1Ev
a_a:__ZN14qsort_internal17MedianOfThreeSwapIP17RODataReplacement19ROSorterReplacementEEvT_S4_S4_T0_
bFc:__ZN15CollisionModule5ResetEv
dEj:__ZNK15dense_hashtableINSt3__24pairIK10KeyWrapperIPK22Il2CppGenericParameterEP11Il2CppClassEES6_N6il2cpp5utils11PointerHashIS4_EEN14dense_hash_mapIS6_S9_SE_NS6_14EqualsComparerINS0_8equal_toIS5_EEEENS0_9allocatorISA_EEE9SelectKeyESJ_SL_E3endEv
pdc:__ZN17TransformInternal36OnScaleChangedCalculateTransformTypeE15TransformAccess
f7d:_SynchronizedArrayListWrapper_InsertRange_m709359548
ISa:__ZN17ArchiveFileSystem10ToAbsoluteEPKc
jIf:_BigInteger_op_Modulus_m13450242
$ee:_Convert_ToInt32_m2988544165
qCe:_Array_Resize_TisColor32_t874517518_m2219502085_gshared
Nz:__ZN7mecanim6CRCKeyENS_7eStringE
aUf:_SslStreamBase_get_CanWrite_m2069502593
d_b:__ZL12SetPrefValueRKN4core12basic_stringIcNS_20StringStorageDefaultIcEEEERK9PrefValue
w0:__ZN19ShaderPropertySheet20ReservePropertyCountEj
ick:__ZN6il2cpp5utils11StringUtils6PrintfEPKcz
k_j:__ZNSt3__26vectorIN6il2cpp8metadata18GenericArrayMethodENS_9allocatorIS3_EEE7reserveEj
Voa:__ZN15NameToObjectMapI6ShaderNSt3__23mapI4PPtrIS0_EN4core12basic_stringIcNS5_20StringStorageDefaultIcEEEENS1_4lessIS4_EENS1_9allocatorINS1_4pairIKS4_S9_EEEEEENS1_8multimapIS9_S4_NSA_IS9_EENSC_INSD_IKS9_S4_EEEEEEE4FindERSK_
THh:_ShimEnumerator_Reset_m98005789_gshared
owa:__ZN24GenerateTypeTreeTransfer21TransferResourceImageE19ActiveResourceImagePKcR13StreamingInfoPvjiPKN5Unity4TypeE
Xhh:_Object_INTERNAL_CALL_Internal_InstantiateSingle_m3932420250
_Fc:__ZN13InitialModule18GenerateProceduralERK27ParticleSystemReadOnlyStateR23ParticleSystemParticlesRK10Matrix4x4fRK8Vector3fRK24ParticleSystemEmitReplayRj
DDf:_ReadOnlyCollection_1_System_Collections_IList_set_Item_m1377990618_gshared
kEc:__ZN11ColorModule8TransferI19StreamedBinaryWriteILb0EEEEvRT_
E0g:_ILGenerator_make_room_m373147874
APh:_Dictionary_2_Init_m1045257495_gshared
fBk:_emscripten_glLinkProgram__wrapper
okh:_PlayableHandle_SetDurationInternal_m3359857977
e2d:_Boolean_CompareTo_m3691698947_AdjustorThunk
iwe:_Array_InternalArray__IndexOf_TisKeyValuePair_2_t888819835_m2660446234_gshared
E4e:_PKCS1_Verify_v15_m2571212635
Cmb:__ZNSt3__212__deque_baseI18ReflectionProbeJobNS_9allocatorIS1_EEED2Ev
jz:__ZN11UnityEngine9Animation27DestroyAnimationSetBindingsEPNS0_20AnimationSetBindingsERN7mecanim6memory9AllocatorE
fUb:__ZN15dense_hashtableINSt3__24pairIKiN4core17string_with_labelILi1EEEEEi18SInt32HashFunctionN14dense_hash_mapIiS5_S7_NS0_8equal_toIiEE13stl_allocatorIS6_L18MemLabelIdentifier1ELi16EEE9SelectKeyESA_SD_E13set_empty_keyERKS6_
bE:__ZN8Animator12CleanupClassEv
bGd:_DecoderReplacementFallbackBuffer__ctor_m1305504326
sxc:__Z13TransferFieldI8JSONReadLb0E27Converter_SimpleNativeClassI10RectOffsetEEvRK23StaticTransferFieldInfoR31RuntimeSerializationCommandInfoRT1_
YDd:_String_IndexOf_m570401060
ine:_Enum_System_IConvertible_ToDateTime_m2924690746
tRd:_Dropdown_CreateBlocker_m4109366440
etd:_HashAlgorithm_System_IDisposable_Dispose_m2106335965
f5j:__GLOBAL__sub_I_GenericMetadata_cpp
xlh:_RangeAttribute__ctor_m1657271662
Zmc:__ZNK8GUIStyle4DrawER8GUIStateRK5RectTIfER10GUIContentib
gNj:__ZN6il2cpp6icalls8mscorlib6System8MonoType18GetFields_internalEP20Il2CppReflectionTypeiS5_
v5a:__Z24CalculateSpotLightBoundsffRK10Matrix4x4fR15SpotLightBounds
v_e:_TailoringInfo__ctor_m2248501932
tV:__ZN23CloudWebServicesManager23VirtualRedirectTransferER14SafeBinaryRead
Pvg:__Z150RuntimeInvoker_Int32_t2071877448_RuntimeObject_Int32_t2071877448_Int32_t2071877448_RuntimeObject_Int32_t2071877448_Int32_t2071877448_Int32_t2071877448PFvvEPK10MethodInfoPvPS4_
D6d:_FixedSizeArrayListWrapper_InsertRange_m2690348965
OIc:__ZNK11NoiseModule14CalculateNoiseILi3ELb1ELb0EEEvR23ParticleSystemParticlesRK27ParticleSystemReadOnlyStatejjRKN4math7_float4E
MDb:__Z19ShouldTransferFieldR32SerializationCommandQueueBuilder17ScriptingClassPtriR18TransferField_InfoRK20CoreScriptingClasses
b2g:_FieldInfo_get_IsStatic_m1411173225
bTe:_MemoryStream_Read_m2289595005
WN:__ZN5audio5mixer22UpdateAudioMixerMemoryERKNS0_18AudioMixerConstantERNS0_16AudioMixerMemoryEfPN4FMOD6SystemEf
F0c:__ZL21InitializeCachedStripPv
ooh:_CustomEventData_Add_m4139356558
V$j:__ZN6il2cpp6icalls8mscorlib6System9Threading6Thread23GetCachedCurrentCultureEP12Il2CppThread
zJi:_Selectable_get_allSelectables_m3045831006
b_a:__ZNK6Camera22GetWorldToCameraMatrixEv
T7j:__ZN6il2cpp2vm12GenericClass11IsValueTypeEP18Il2CppGenericClass
$Cb:__ZN13MonoBehaviour7SetNameEPKc
dLf:_ContentInfo__ctor_m3579805263
OGj:__ZN15dense_hashtableINSt3__24pairIK10KeyWrapperIPKcEP11Il2CppClassEES5_N6il2cpp5utils11StringUtils12StringHasherIS4_EEN14dense_hash_mapIS5_S8_SE_NS5_14EqualsComparerINSB_13VmStringUtils21CaseSensitiveComparerEEENS0_9allocatorIS9_EEE9SelectKeyESJ_SL_E15set_deleted_keyERKS9_
HIi:_ScrollRect_get_verticalNormalizedPosition_m1701804869
Nta:__ZN18AwakeFromLoadQueue5ClearEv
fKh:_Enumerator_get_Current_m2986380627_AdjustorThunk
i4a:__ZNSt3__27__sort5IR15ReflProbeSorterPP15ReflectionProbeEEjT0_S6_S6_S6_S6_T_
Caa:__ZN8Playable10DisconnectEPS_i
TWi:_InternalEnumerator_1_get_Current_m1526874475_AdjustorThunk
Bk:_glGenTransformFeedbacks
xya:__ZN13LoadOperationD2Ev
k3e:_KeyPairPersistence__ctor_m1817312194
qAc:__ZN29TriggerModulePropertyBindings13AddPropertiesER10vector_mapIi22ParticleModulePropertyNSt3__24lessIiEENS2_9allocatorINS2_4pairIiS1_EEEEE
nre:_Array_InternalArray__ICollection_Contains_TisMark_t2724874473_m1640201705_gshared
Zra:__Z21PlayerStartFirstSceneb
t_g:_TypeBuilder_get_AssemblyQualifiedName_m2097258567
Joa:__ZNSt3__27__sort5IRPFbRKNS_4pairIN9ShaderLab16FastPropertyNameEN18UnityPropertySheet11UnityTexEnvEEES8_EPS6_EEjT0_SD_SD_SD_SD_T_
auh:_AnimatorControllerPlayable_GetParameterCount_m1050153685_AdjustorThunk
RFa:__ZNK7ApiGLES18GetExtensionStringEv
zMa:__ZN31TransformFeedbackSkinPoseBufferD0Ev
Zwk:_emscripten_glVertexAttrib1f__wrapper
RRa:__ZNK12HandlerChain4SizeERK13FileEntryData
wQh:_DefaultComparer_Equals_m1281232537_gshared
up:FUNCTION_TABLE_iiiiiiiii
$Wd:_InputField_set_asteriskChar_m619206227
Zcg:_DES_IsSemiWeakKey_m3967392585
GVc:__Z22GetPhysicsGroundBody2Dv
mMe:_Int16_System_IConvertible_ToUInt32_m883204517_AdjustorThunk
Ggj:_Transform_get_localRotation_m4001487205
E5g:_MonoProperty_get_PropertyType_m1921201152
NPd:_FloatTween_TweenValue_m3881535116_AdjustorThunk
Sta:__Z15UnloadGameScenev
GBk:_glCheckFramebufferStatus__wrapper
oHf:_BigInteger_get_Rng_m2525288368
Eah:_GUIStyleState_GetBackgroundInternal_m439046630
K0f:_X509ExtensionEnumerator_Reset_m3200687545
S7d:_CaseInsensitiveHashCodeProvider__ctor_m3775398833
S4i:_Comparer_1_System_Collections_IComparer_Compare_m674728644_gshared
bhc:__Z36Renderer_Get_Custom_PropSortingOrderP12Il2CppObject
HTj:__ZNK15dense_hashtableINSt3__24pairIK10KeyWrapperIPK10Il2CppTypeEjEES6_N6il2cpp8metadata14Il2CppTypeHashEN14dense_hash_mapIS6_jSB_NS6_14EqualsComparerINSA_26Il2CppTypeEqualityComparerEEENS0_9allocatorIS8_EEE9SelectKeyESF_SH_E13find_positionERS7_
Mia:__ZN7Texture5ResetEv
EPc:__ZNK14b2CapsuleShape7RayCastEP15b2RayCastOutputRK14b2RayCastInputRK11b2Transformi
CKb:__Z18Transfer_BlittableI24GenerateTypeTreeTransferLb1EhEvRK29SerializationCommandArgumentsR31RuntimeSerializationCommandInfo
S_c:__ZN10Collider2D16TransformChangedEi
Ecc:__ZNK16TypeTreeIterator10ByteOffsetEv
ESd:_Graphic_get_rectTransform_m2697395074
C9:__ZnwjRKSt9nothrow_t
CC:__ZN8Animator11ClearObjectEv
nCb:__ZNSt3__26vectorIi13stl_allocatorIiL18MemLabelIdentifier12ELi16EEE8__appendEj
NZf:_X500DistinguishedName_Decode_m3070515374
ana:__ZN14SafeBinaryRead19TransferSTLStyleMapINSt3__23mapI39DeprecatedFastPropertyNameSerializationN18UnityPropertySheet11UnityTexEnvENS1_4lessIS3_EENS1_9allocatorINS1_4pairIKS3_S5_EEEEEEEEvRT_17TransferMetaFlags
Zic:__Z45Register_UnityEngine_MonoBehaviour_IsInvokingv
wXf:_IPv6Address_set_ScopeId_m1442934355
U9f:_ObjectManager_RaiseOnDeserializedEvent_m512850179
xjc:__Z81Register_UnityEngine_Playables_PlayableHandle_INTERNAL_CALL_SetInputCountInternalv
zbc:__Z35UnregisterSerializationCacheBuilderPFv17ScriptingClassPtrR23CachedSerializationDataRbE
Ala:__Z30GetBuiltinVectorParamArraySize24BuiltinShaderVectorParam
RGc:__ZN13InitialModule18SetInheritedParamsERK11ColorRGBA32RK8Vector3fS5_S5_
g_e:_CodePointIndexer__ctor_m797342079
EO:__ZN11AudioSource6UpdateEv
e7a:__ZN21RendererUpdateManager11AddRendererER8Renderer
x$b:__Z13RegisterClassI15ResourceManagerEvv
eGb:__Z35Transfer_Blittable_FixedBufferFieldI14SafeBinaryReadsEvRK29SerializationCommandArgumentsR31RuntimeSerializationCommandInfo
Pvb:__ZN14SafeBinaryRead21TransferSTLStyleArrayI13dynamic_arrayIfLj4EEEEvRT_17TransferMetaFlags
jck:__ZN6il2cpp5utils11StringUtils11Utf16ToUtf8EPKDs
dod:__ZN11UnityEngine15PlatformWrapper20IsRootedOrJailbrokenEv
PUa:__ZZ23InitPlayerLoopCallbacksvEN52PreLateUpdateScriptRunBehaviourLateUpdateRegistrator7ForwardEv
n_f:_X509Certificate2_GetNameInfo_m402390219
q5a:__Z33IntersectAABBPlaneBoundsOptimizedRK4AABBPKN4math7_float4Ei
q0d:_Swapper_BeginInvoke_m2652511022
Ymh:_RectOffset_t3387826427_marshal_pinvoke_back
HBa:__ZN9GfxDevice19EndGeometryJobFrameEv
wKb:__ZN27Converter_SimpleNativeClassI17AnimationCurveTplIfEE17ScriptingToNativeER18ScriptingObjectPtrPS1_
Bkk:__ZN6il2cpp8metadata24Il2CppGenericInstCompare7CompareERK10KeyWrapperIPK17Il2CppGenericInstES8_
wHj:__ZNK15dense_hashtableINSt3__24pairIK10KeyWrapperIPK19Il2CppGenericMethodEPK26Il2CppGenericMethodIndicesEES6_N6il2cpp8metadata23Il2CppGenericMethodHashEN14dense_hash_mapIS6_SA_SE_NS6_14EqualsComparerINSD_26Il2CppGenericMethodCompareEEENS0_9allocatorISB_EEE9SelectKeyESI_SK_E5beginEv
VSd:_Graphic_get_materialForRendering_m2600868951
jt:__ZN27AnimationLayerMixerPlayable21UpdateLayerParametersEv
quf:_Collection_1_System_Collections_IList_Contains_m3210868188_gshared
wBc:__ZN21InheritVelocityModule8TransferI14SafeBinaryReadEEvRT_
$0b:__ZNK17AnimationCurveTplIfE8EvaluateEfPNS0_5CacheE
TTa:__Z31ManagerContextInitializeClassesv
dIe:_NumberFormatter_AppendIntegerString_m868842252
AZh:__ZL53SortedList_t3004938869_CustomAttributesCacheGeneratorP21CustomAttributesCache
n3c:_UNITY_FT_List_Finalize
e$a:__Z20LightAttenuateApproxRKfS0_
e4:__ZN9Scripting30SetCachedPtrOnScriptingWrapperE18ScriptingObjectPtrP6Object
yNb:__Z18Transfer_BlittableI19StreamedBinaryWriteILb0EELb0EdEvRK29SerializationCommandArgumentsR31RuntimeSerializationCommandInfo
tFd:_ASCIIEncoding_GetBytes_m3649277167
w8g:_GUILayoutUtility_Internal_GetWindowRect_m1287880151
brh:_AnimationPlayableOutput_get_Null_m577023
YRc:__ZN16b2PrismaticJoint4DumpEv
URi:_Context_GetProperty_m1664740450
kxa:__ZN18BlockRangeInternal16PopLastNodeIndexEP10BlockRangeji
Aqg:_Version__ctor_m2972638031
Naf:_Enumerator_System_Collections_IEnumerator_Reset_m886102771_AdjustorThunk
z1e:_Kernel_MultiplyByDword_m155008287
dvb:__ZN4MeshD0Ev
kzg:__Z121RuntimeInvoker_Void_t1841601450_Int64_t909078037_RuntimeObject_RuntimeObject_Int64_t909078037_RuntimeObject_RuntimeObjectPFvvEPK10MethodInfoPvPS4_
Qsd:__ZL42RequestRecreateEyeTexturesBeforeNextUpdatev
Qka:__ZNK6Camera20IsCurrentlyRenderingEv
Vu:__ZN21AnimationClipPlayable23ProcessRootMotionNoClipEPK35AnimationPlayableEvaluationConstantPK32AnimationPlayableEvaluationInputP33AnimationPlayableEvaluationOutput
Cjd:__Z36CanvasRenderer_CUSTOM_SetPopMaterialP12Il2CppObjectS0_i
guc:__Z18Transfer_BlittableI9JSONWriteLb0EdEvRK29SerializationCommandArgumentsR31RuntimeSerializationCommandInfo
uRc:__ZNK11b2GearJoint16GetReactionForceEf
jBf:_ReadOnlyCollection_1_System_Collections_IList_Insert_m3679749778_gshared
NMi:_Toggle_OnDidApplyAnimationProperties_m325835214
Qmk:_wctomb
Sec:__Z27Camera_CUSTOM_GetAllCamerasP11Il2CppArray
HDc:__ZN11ForceModule8TransferI18StreamedBinaryReadILb0EEEEvRT_
Vbe:_Convert_InternalFromBase64String_m3682756716
jd:___cxa_rethrow
Gvc:__Z18Transfer_BlittableI8JSONReadLb1EhEvRK29SerializationCommandArgumentsR31RuntimeSerializationCommandInfo
tuh:_AnimatorControllerPlayable_CrossFadeInFixedTimeInternal_m3383124488
$Yc:__ZN18Overlap2DQueryBase13ReportFixtureEP9b2Fixture
D8i:_Regex_System_Runtime_Serialization_ISerializable_GetObjectData_m4035555909
wkg:_TimeSpan_Add_m3228293154
zQh:_DefaultComparer_Equals_m4098991076_gshared
W8a:__ZN13MonoBehaviour8SetClassE17ScriptingClassPtr18ScriptingObjectPtr
KKf:_RC4__cctor_m523650203
ASi:_CrossContextDelegate_Invoke_m2908136830
yea:__ZN20LocalFileSystemPosix4ReadER13FileEntryDatayyPvPy
H2a:__ZNSt3__211__sift_downIRN23ForwardShaderRenderLoop18RenderObjectSorterILb0EEEP21ForwardRenderPassDataEEvT0_S7_T_NS_15iterator_traitsIS7_E15difference_typeES7_
eWe:_UnmanagedMemoryStream_get_Position_m4093669769
Gyg:__Z90RuntimeInvoker_Void_t1841601450_IntPtr_t_RuntimeObject_Int32_t2071877448_Int32_t2071877448PFvvEPK10MethodInfoPvPS4_
pDb:__ZN13MonoBehaviour5DoGUIENS_13GUILayoutTypeEii
n_g:_DerivedType_IsDefined_m555719351
V5i:_Mark_get_IsDefined_m3332701456
Pfb:__ZNK12TLSAllocatorI14StackAllocatorE8ContainsEPKv
Lzb:__ZN11TimeManager8TransferI18StreamedBinaryReadILb0EEEEvRT_
GYb:__ZN15SerializeTraitsINSt3__23mapI4PPtrI6ShaderEN4core12basic_stringIcNS5_20StringStorageDefaultIcEEEENS0_4lessIS4_EENS0_9allocatorINS0_4pairIKS4_S9_EEEEEEE8TransferI24GenerateTypeTreeTransferEEvRSH_RT_
idg:_DESTransform__cctor_m1179482644
rvb:__ZN14BlendShapeData8TransferI14SafeBinaryReadEEvRT_
Cfj:_TextGenerator_PopulateWithErrors_m467881283
tne:_Enum_Format_m2294492821
zob:__ZN7Texture25ReloadFromStorageIfNeededEPvb
itc:__Z35Transfer_Blittable_FixedBufferFieldI9JSONWritehEvRK29SerializationCommandArgumentsR31RuntimeSerializationCommandInfo
sWg:_OverflowException__ctor_m2564269836
bIh:_ShimEnumerator_get_Entry_m2332479818_gshared
oie:_DateTime_CheckDateTimeKind_m329345155_AdjustorThunk
Udd:_Update_Max
I$j:__ZN6il2cpp6icalls8mscorlib6SystemL15ThrowNoWideningEv
i1b:__ZNK23TransformChangeDispatch24GetChangeMaskForInterestENS_12InterestTypeE
Llc:__Z45Transform_CUSTOM_INTERNAL_CALL_TransformPointP12Il2CppObjectRK8Vector3fRS1_
_tf:__ZN23InterfaceActionInvoker2Ii18Color32_t874517518E6InvokeEjP11Il2CppClassP12Il2CppObjectiS0_
sfb:__ZL10KeyHandleriPK23EmscriptenKeyboardEventPv
zna:__ZNSt3__26__treeINS_12__value_typeI39DeprecatedFastPropertyNameSerializationfEENS_19__map_value_compareIS2_S3_NS_4lessIS2_EELb1EEENS_9allocatorIS3_EEE7destroyEPNS_11__tree_nodeIS3_PvEE
wjc:__Z81Register_UnityEngine_Playables_PlayableHandle_INTERNAL_CALL_GetInputCountInternalv
q7c:_tt_cmap4_char_index
Gwh:_AsyncOperation_get_allowSceneActivation_m2825451182
Xkg:_TimeSpan_op_Addition_m3421801803
$Ra:__ZNK12HandlerChain8IsHiddenERK13FileEntryData
Qyi:__ZL50Graphic_t2426225576_CustomAttributesCacheGeneratorP21CustomAttributesCache
VOd:_ContentSizeFitter_set_verticalFit_m3978553199
MJb:__ZL26Transfer_SimpleNativeClassI17RemapPPtrTransfer10RectOffsetLb0EEvRK29SerializationCommandArgumentsR31RuntimeSerializationCommandInfo
Q3c:__Z14ValidateFormatR13dynamic_arrayIN20TextRenderingPrivate16TextFormatChangeELj4EE
wcj:_Vector2_op_Implicit_m1064335535
pua:__Z31GetLightProbeProxyVolumeManagerv
qhe:_DateTime_System_IConvertible_ToInt32_m2789391054_AdjustorThunk
aGg:__Z73RuntimeInvoker_Single_t2076509932_Vector3_t2243707580_Vector3_t2243707580PFvvEPK10MethodInfoPvPS4_
h2e:_ASN1Convert_FromInt32_m1541043489
HKd:_PointerInputModule_ProcessMove_m3200120346
Cce:_Convert_ToByte_m1008221737
LJf:_MD2Managed_MD2Transform_m3825201358
wAi:__ZL69Scrollbar_t3248359358_CustomAttributesCacheGenerator_m_OnValueChangedP21CustomAttributesCache
_Uc:__ZN10ClipperLib14PointInPolygonERKNS_8IntPointEPNS_5OutPtE
YQd:_Dropdown_AddOptions_m835420907
Cla:__ZNK9ShaderLab20ShaderBlendStateDesc15ToGfxBlendStateEPK19ShaderPropertySheetS3_R13GfxBlendState
iOd:_CanvasUpdateRegistry_IsRebuildingLayout_m1677873278
wXc:__ZN15dense_hashtableINSt3__24pairIKNS1_IPK10Collider2DS4_EE11Collision2DEES5_NS2_23ColliderPairHashFunctorEN14dense_hash_mapIS5_S7_S9_NS0_8equal_toIS5_EE13stl_allocatorIS8_L18MemLabelIdentifier65ELi16EEE9SelectKeyESC_SF_E9copy_fromERKSI_j
Oy:__ZN11UnityEngine9AnimationL22GenericBindingCallbackEPvS1_i
Cdd:_Compute_Point_Displacement
qYb:__ZN9ShaderLab9IntShaderC2Ev
$Nj:__ZN6il2cpp6icalls8mscorlib6SystemL9IsPrivateEPK9EventInfo
Xik:__ZN6il2cpp6icalls8mscorlib6System10Reflection4Emit11TypeBuilder20setup_internal_classEP27Il2CppReflectionTypeBuilderS7_
H9g:_RectOffset_set_left_m620681523
Iih:_Physics2D_Raycast_m2560154475
fVi:_ArrayReadOnlyList_1_IndexOf_m1809425308_gshared
xU:__Z58AudioPlayableOutput_CUSTOM_INTERNAL_CALL_InternalSetTargetR15HPlayableOutputP12Il2CppObject
NPj:_il2cpp_gc_disable
PG:__Z69AnimatorControllerPlayable_CUSTOM_INTERNAL_CALL_GetLayerIndexInternalR9HPlayableP12Il2CppString
qCc:__ZN27ParticleSystemReadOnlyState8TransferI24GenerateTypeTreeTransferEEvRT_
qJd:_ExecuteEvents_U3Cs_HandlerListPoolU3Em__0_m2903690915
I9d:_Hashtable_Clone_m165405752
$Rc:__ZN16b2PrismaticJoint24SolveVelocityConstraintsERK12b2SolverData
pCh:_Component_BroadcastMessage_m444672650
ynd:__ZN11UnityEngine15PlatformWrapper19GetPhysicalMemoryMBEv
xfa:__Z15CreateDirectoryRKN4core12basic_stringIcNS_20StringStorageDefaultIcEEEE
Wua:__Z21CalculateGlobalMatrix23TransformAccessReadOnly
lYh:__ZL70InternalsVisibleToAttribute_t1037732567_CustomAttributesCacheGeneratorP21CustomAttributesCache
Qzb:__ZNK13BuildSettings22GetTypeVirtualInternalEv
KQe:_MonoIO_GetCurrentDirectory_m1509324201
Igg:_UTF32Encoding_GetHashCode_m4205784236
rde:_DateTime_ToUniversalTime_m1815024752
v$b:__Z13RegisterClassI14RenderSettingsEvv
ifj:_TextGenerator_Finalize_m4242493229
zhk:_GC_set_on_event
fVg:__Z80RuntimeInvoker_Boolean_t3825574718_Navigation_t1571958496_Navigation_t1571958496PFvvEPK10MethodInfoPvPS4_
Dqf:_Collection_1_ConvertItem_m3563206219_gshared
Ukg:_TimeSpan_Subtract_m3597791685_AdjustorThunk
gx:__ZN7mecanim12statemachine24CreateStateMachineOutputEPKNS0_20StateMachineConstantEjRNS_6memory9AllocatorE
Uyc:__ZN15CollisionModuleD0Ev
ZOj:_il2cpp_assembly_get_image
eCa:__ZNK9GfxDevice27GetActiveRenderSurfaceWidthEv
Qnd:__ZN11UnityEngine15PlatformWrapper28GetCleanGraphicsFixedVersionEv
Zvg:__Z133RuntimeInvoker_Int32_t2071877448_RuntimeObject_RuntimeObject_Int32_t2071877448_Int32_t2071877448_RuntimeObject_ContextU26_t3131521781PFvvEPK10MethodInfoPvPS4_
w:tempBigIntP
RRj:__ZN6il2cpp2vm4Type7GetTypeEPK10Il2CppType
Jmh:_Rect_Contains_m1334685291_AdjustorThunk
U1b:__ZN16SpriteRenderData28PrepareRenderingDataIfNeededEv
v0d:_AssemblyLoadEventHandler_Invoke_m108373765
Woe:_CCGregorianCalendar_dmy_from_fixed_m2992247462
GKd:_PointerInputModule_ShouldStartDrag_m4163638715
Pzc:__ZN14ParticleSystem18SetSimulationSpeedEf
zxj:__ZL24UnresolvedVirtualCall_76P12Il2CppObjectPK10MethodInfo
Uqa:__ZN6prcoreL17RemapGenericFloatI18TexFormatRGBAFloat17TexFormatRGBAHalfEEvPKNS_9InnerInfoE
NVa:__Z16FindCameraStacksRKNSt3__24listI4PPtrI6CameraENS_9allocatorIS3_EEEERNS_6vectorI11CameraStackNS4_ISA_EEEE
Pjj:_WebRequestUtils__cctor_m893658947
YLc:__Z43ParticleSystemRenderer_RenderMultipleMeshesIL21SpriteMaskInteraction0EEvRK15RenderNodeQueueRK18RenderMultipleData17ShaderChannelMask
qqb:__ZN10GISettings8TransferI14SafeBinaryReadEEvRT_
Gn:FUNCTION_TABLE_vifff
ODf:_ReadOnlyCollection_1_System_Collections_Generic_ICollectionU3CTU3E_Remove_m2957273994_gshared
dbb:__ZN19CustomRenderTexture12ClearGPUDataEv
yHd:_BaseInputModule_ShouldActivateModule_m2899747874
oUg:__Z86RuntimeInvoker_Int32_t2071877448_DateTimeOffset_t1362988906_DateTimeOffset_t1362988906PFvvEPK10MethodInfoPvPS4_
Wia:__ZN13RenderTexture13ApplySettingsEv
tuk:_glVertexAttrib4f__wrapper
gf:_JS_Sound_SetListenerPosition
yn:FUNCTION_TABLE_fiffi
$H:__Z86Register_UnityEngine_Animations_AnimatorControllerPlayable_INTERNAL_CALL_SetBoolStringv
E1g:_ModuleBuilderTokenGenerator_GetToken_m3427457873
OJi:_Selectable_get_isPointerInside_m3162215687
Hve:_Array_FindIndex_TisRuntimeObject_m4149904176_gshared
Edf:_List_1_System_Collections_IList_Contains_m149594880_gshared
$pg:_UnauthorizedAccessException__ctor_m3480402128
w1e:_BigInteger_op_Modulus_m3788401748
aTi:_ArgInfo_GetInOutArgs_m3184132151
_sa:__ZNK8Material16MarkDependenciesER27GarbageCollectorThreadState
juc:__ZL17Transfer_GUIStyleI9JSONWriteLb0EEvRK29SerializationCommandArgumentsR31RuntimeSerializationCommandInfo
tZa:__Z28GetHaloVertexPositionsStereoP8Vector3fRKS_S2_f
Jra:__ZN6prcoreL27StretchGenericFloatBilinearI15TexFormatRGHalfEEvPKNS_9InnerInfoE
xaf:_Enumerator_MoveNext_m598197344_AdjustorThunk
FDh:_DisplaysUpdatedDelegate_Invoke_m3646339243
MEd:_String_JoinUnchecked_m1880555587
Tla:__ZNK9ShaderLab7Program21GetMatchingSubProgramEPK6ShaderPKNS_4PassERK16ShaderKeywordSetjPS7_R19ShaderSnippetResult
Hze:_Array_InternalArray__Insert_TisKeyValuePair_2_t1174980068_m2464431954_gshared
kkc:__Z49Register_UnityEngine_Resources_GetBuiltinResourcev
C7c:_tt_cmap10_char_index
UQd:_Dropdown_Awake_m335654827
dPh:_Dictionary_2_U3CCopyToU3Em__0_m1479035402_gshared
z7d:_BitArray_set_Item_m3801461194
rEj:__ZN15dense_hashtableINSt3__24pairIK10KeyWrapperIPK22Il2CppGenericParameterEP11Il2CppClassEES6_N6il2cpp5utils11PointerHashIS4_EEN14dense_hash_mapIS6_S9_SE_NS6_14EqualsComparerINS0_8equal_toIS5_EEEENS0_9allocatorISA_EEE9SelectKeyESJ_SL_E3endEv
vEd:_String_Remove_m3580114465
WWb:__ZN9ShaderLab22SerializedBindChannels8TransferI19StreamedBinaryWriteILb0EEEEvRT_
jCg:__Z82RuntimeInvoker_Int32_t2071877448_RuntimeObject_Int32_t2071877448_Int16_t4041245914PFvvEPK10MethodInfoPvPS4_
Hoc:__ZN5IMGUI20MoveWindowFromLayoutER8GUIStateiRK5RectTIfE
Cpg:_UIntPtr__ctor_m2737768530
t3c:_UNITY_FT_Stream_ReadUShort
mXd:_InputField_OnEnable_m3797157569
ngc:__Z51Register_UnityEngine_GUILayer_INTERNAL_CALL_HitTestv
Smc:__Z50Register_UnityEngine_Object_FindSceneObjectsOfTypev
$ma:__ZNSt3__26__treeINS_12__value_typeIN4core12basic_stringIcNS2_20StringStorageDefaultIcEEEES6_EENS_19__map_value_compareIS6_S7_NS_4lessIS6_EELb1EEE13stl_allocatorIS7_L18MemLabelIdentifier1ELi16EEE7destroyEPNS_11__tree_nodeIS7_PvEE
DBj:_Nullable_1__ctor_m796575255_gshared
odk:__ZN6il2cpp2vm8Profiler7GCEventE13Il2CppGCEvent
Ahe:_DateTimeUtils_ToString_m3878360633
H$j:__ZN6il2cpp6icalls8mscorlib6SystemL16ThrowInvalidCastEPK11Il2CppClassS5_
VGa:__Z13IsDepthFormat14GraphicsFormat
NAb:__ZN12AspectRatios8TransferI24GenerateTypeTreeTransferEEvRT_
h0c:__Z12FormatBufferPciPKcz
YLd:_TouchInputModule_Process_m1373751353
Yf:_emscripten_glUniform1fv
X0g:_MethodBuilder_Invoke_m1874904900
PId:_ExecuteEvents_Execute_m898902863
IL:__ZN4FMOD7Channel7setModeEj
_Zg:_DerivedType_InvokeMember_m4149586013
rth:_AnimatorControllerPlayable_GetNextAnimatorStateInfo_m1690618991
rUf:_TlsStream_SetLength_m1460039587
Ooc:__ZN11IMGUIModule12AddGUIScriptER8ListNodeI13MonoBehaviourE
vb:invoke_difi
d9:__ZL50StaticRegisterSceneLoadedCallback_LightmapSettingsPv
myg:__Z119RuntimeInvoker_Void_t1841601450_RuntimeObject_RuntimeObject_RuntimeObject_RuntimeObject_Int32_t2071877448_RuntimeObjectPFvvEPK10MethodInfoPvPS4_
Wm:FUNCTION_TABLE_iiffi
XTd:_GridLayoutGroup_get_cellSize_m1061731753
CGa:__ZN21GLESGpuProgramApplier11ApplyVectorERKN20GpuProgramParameters14ValueParameterEPK8Vector4ft
U4a:__Z17PrepareSceneNodesP11CullResults
rjj:_Vector4_ToString_m2340321043_AdjustorThunk
zaj:_Parser_IsIgnoreCase_m4155598997
R9c:_cff_size_done
QWa:__ZN22RenderingCommandBuffer13GetAndCheckRTE24BuiltinRenderTextureTypeRKN9ShaderLab16FastPropertyNameEPKcPP13RenderTexture
wbb:__ZN6Camera34UpdatePreviousViewProjectionMatrixEv
Wla:__ZN9ShaderLab11ShaderState25RemoveUnsupportedProgramsEPK6Shader
JXb:__ZL23AddGpuProgramParametersR20GpuProgramParametersRKNSt3__26vectorIN9ShaderLab20SerializedSubProgram15MatrixParameterENS1_9allocatorIS5_EEEERKNS2_INS4_15VectorParameterENS6_ISB_EEEEiP16PropertyNamesSet
Kmc:__Z44Register_UnityEngine_Object_DestroyImmediatev
zfc:__Z47Register_UnityEngine_Component_BroadcastMessagev
cs:__ZN18StreamedBinaryReadILb0EE21TransferSTLStyleArrayI13dynamic_arrayI4PPtrI6ObjectELj4EEEEvRT_17TransferMetaFlags
K1h:__ZL62_ConstructorBuilder_t1236878896_CustomAttributesCacheGeneratorP21CustomAttributesCache
Qbc:__Z26scripting_class_has_parent17ScriptingClassPtrS_
eOe:_Int64_System_IConvertible_ToInt16_m2022633688_AdjustorThunk
f8:__ZN13RuntimeStaticI21AssetReferenceStorageLb0EE16StaticInitializeEPv
Nlk:__ZN6il2cpp8metadata25Il2CppGenericClassCompare7CompareEPK18Il2CppGenericClassS4_
oC:__ZNK8Animator20IsInMatchTargetStateEv
Lm:FUNCTION_TABLE_viiifiii
tpc:__Z36Register_UnityEngine_GUI_set_changedv
Ieg:_Encoding_get_Unicode_m1382741113
YHc:__Z11EvaluateHDRIL12GradientMode1ELS0_1EEN4math8floatNx4ERK14MinMaxGradientRKNS1_7_float4ES8_
S4d:_Char_ToString_m1401375624_AdjustorThunk
qxe:_Array_InternalArray__ICollection_Add_TisTableRange_t2011406615_m147373358_gshared
Ide:_Convert_ToDateTime_m1251728572
sqh:_AnimationMixerPlayable_op_Explicit_m2834005805
sxe:_Array_InternalArray__ICollection_Add_TisBoolean_t3825574718_m1009318882_gshared
JEf:_ReadOnlyCollection_1_System_Collections_IList_set_Item_m1149349508_gshared
yw:__ZN27AnimationLayerMixerPlayable18SetInputConnectionEP8Playablei
Xqc:__Z42Register_UnityEngine_GUIStyle_get_wordWrapv
iw:__ZN7mecanim28TransformValueArrayBlendNodeEiiiRKNS_10ValueArrayERKNS_14ValueArrayMaskERS0_RS3_RNS_16ValueArrayWeightEf
u9f:_ObjectReader_ReadObjectContent_m3949770110
lCh:_Component_SendMessage_m4199581575
cGj:__ZN6il2cpp2vm5Class40GetInterfaceInvokeDataFromVTableSlowPathEPK12Il2CppObjectPK11Il2CppClassj
Jlb:__ZN20TierGraphicsSettings8TransferI18StreamedBinaryReadILb0EEEEvRT_
ELi:_Text_get_font_m3115501113
R_j:__GLOBAL__sub_I_Thread_cpp
jna:__ZN14SafeBinaryRead8TransferINSt3__24pairIN9ShaderLab16FastPropertyNameE10ColorRGBAfEEEEvRT_PKc17TransferMetaFlags
NCj:__ZL9rshift128PyS_
o9f:_ObjectReader_RecordFixup_m1893348030
dFe:_LayoutGroup_SetProperty_TisRuntimeObject_m1703476175_gshared
zVg:__Z49RuntimeInvoker_UIVertex_t1204258818_RuntimeObjectPFvvEPK10MethodInfoPvPS4_
FYj:__ZN14dense_hash_mapI10KeyWrapperINSt3__24pairIPK12PropertyInfoP11Il2CppClassEEEj17ReflectionMapHashIS8_ENS9_14EqualsComparerINS1_8equal_toIS8_EEEENS1_9allocatorINS2_IKS9_jEEEEE13set_empty_keyERSH_
mk:_glRenderbufferStorage
g4j:__ZNK15dense_hashtableINSt3__24pairIK10KeyWrapperINS1_IPKcS4_EEEiEES6_24NamespaceAndNamePairHashN14dense_hash_mapIS6_iS9_NS6_14EqualsComparerI26NamespaceAndNamePairEqualsEENS0_9allocatorIS8_EEE9SelectKeyESD_SF_E13find_positionERS7_
Khc:__Z45Register_UnityEngine_Input_get_touchSupportedv
Und:__ZN11UnityEngine15PlatformWrapper28GetTextureFormatSupportFlagsEv
s5c:_UNITY_FT_Create_Class_pshinter_module_class
UDd:_String_CompareOrdinalCaseInsensitiveUnchecked_m2002640463
k2d:_Boolean_GetHashCode_m1894638460
uad:_cf2_setError
tvb:__ZN14SafeBinaryRead21TransferSTLStyleArrayI13dynamic_arrayI12BoneWeights4Lj16EEEEvRT_17TransferMetaFlags
Ygg:_UTF7Encoding_InternalGetChars_m4157428055
Pua:__Z33InterpolateLightProbeCoefficientsRK17LightProbeContextRK29LightProbeSamplingCoordinatesR20SphericalHarmonicsL2
pUa:__ZZ23InitPlayerLoopCallbacksvEN35PreUpdateSendMouseEventsRegistrator7ForwardEv
I3e:_SmallXmlParser_HandleBufferedContent_m3397096753
kh:_glDisable
uYd:_InputField_OnDeselect_m3963675647
Qkd:__Z44Register_UnityEngine_Canvas_get_pixelPerfectv
Eck:__ZN6il2cpp5utils11StringUtils15StringDuplicateEPKDsj
$0f:_BaseMachine_Scan_m122450399
bx:__ZN17AnimationPlayable17ProcessRootMotionEP35AnimationPlayableEvaluationConstantP32AnimationPlayableEvaluationInputP33AnimationPlayableEvaluationOutput
D5d:_ArrayList_CopyTo_m2353632788
Y8:__ZNSt3__26vectorINS_4pairIyP17VertexDeclarationEENS_9allocatorIS4_EEE6assignIPS4_EENS_9enable_ifIXaasr21__is_forward_iteratorIT_EE5valuesr16is_constructibleIS4_NS_15iterator_traitsISB_E9referenceEEE5valueEvE4typeESB_SB_
Fuh:_AnimatorControllerPlayable_CrossFade_m3391147919_AdjustorThunk
CVa:__ZNK8Material12GetPassCountEv
hbe:_Enumerator__cctor_m3784927209
DBk:b110
EBk:b111
FBk:b112
Qqk:_bitshift64Ashr
bCk:b114
cCk:b115
dCk:b116
eCk:b117
c_c:__ZN11Rigidbody2D23VirtualRedirectTransferER14SafeBinaryRead
eIa:__ZN4crnd12crn_unpacker22decode_alpha_endpointsEv
U5a:__Z23CullDynamicObjectsUmbraPK4AABBPKN5Umbra15OcclusionBufferER9IndexList
$x:__ZThn148_NK26AnimatorControllerPlayable41GetStateMachineBehaviourVectorDescriptionEv
r7c:_tt_cmap4_char_next
OJg:__Z444RuntimeInvoker_Boolean_t3825574718_RuntimeObject_RuntimeObject_RuntimeObject_ColorU26_t3402129837_Int32_t2071877448_Single_t2076509932_Single_t2076509932_Int32_t2071877448_SByte_t454417549_SByte_t454417549_Int32_t2071877448_Int32_t2071877448_Int32_t2071877448_Int32_t2071877448_SByte_t454417549_Int32_t2071877448_Single_t2076509932_Single_t2076509932_Single_t2076509932_Single_t2076509932_SByte_t454417549_SByte_t454417549_UInt32U26_t2197289955PFvvEPK10MethodInfoPvPS4_
akj:_GeneralNames_ToString_m800435094
YMd:_BaseMeshEffect_OnDidApplyAnimationProperties_m2484799839
AFd:_ASCIIEncoding_GetString_m3931709239
Ang:_UInt16_Parse_m3560204090
Vxc:__ZN8JSONRead21TransferSTLStyleArrayI13dynamic_arrayIsLj2EEEEvRT_18MemLabelIdentifier17TransferMetaFlags
uL:__ZN4FMOD7Channel11setPositionEjj
bi:_glBindSampler
YFf:_ReadOnlyCollection_1_System_Collections_Generic_ICollectionU3CTU3E_Clear_m964488020_gshared
fi:_glGetVertexAttribiv
uxe:_Array_InternalArray__ICollection_Add_TisChar_t3454481338_m422084244_gshared
tgd:__ZN2UI11CanvasGroup23VirtualRedirectTransferER18StreamedBinaryReadILb0EE
VFf:_ReadOnlyCollection_1_get_Item_m3778245964_gshared
bxc:__ZN8JSONRead8TransferIbEEvRT_PKc17TransferMetaFlagsb
Teh:_DefaultValueAttribute_Equals_m3216982933
gZf:_X509KeyUsageExtension_Decode_m3292847033
_Kb:__Z18Transfer_BlittableI24GenerateTypeTreeTransferLb1EtEvRK29SerializationCommandArgumentsR31RuntimeSerializationCommandInfo
iMg:__Z52RuntimeInvoker_RaycastResult_t21186376_RuntimeObjectPFvvEPK10MethodInfoPvPS4_
H3g:_Module_filter_by_type_name_ignore_case_m3574895736
aqb:__ZN26CustomRenderTextureManager19PreAllocateMaterialEP19CustomRenderTexture
W8f:_ObjectReader_ReadObject_m397855326
yek:_GC_promote_black_lists
YUd:_Image_get_fillAmount_m3354146540
Oxc:__Z29Transfer_Blittable_ArrayFieldI8JSONRead8Vector4fEvRT_R9ArrayInfoRK23StaticTransferFieldInfo
jo:FUNCTION_TABLE_vf
Lo:FUNCTION_TABLE_vd
gmg:_Type_GetMethod_m1930231379
No:FUNCTION_TABLE_vi
B7:__ZN13RuntimeStaticI37UnityShaderCompilerExtPluginConfigureLb0EE16StaticInitializeEPv
Y_e:_SimpleCollator_GetContraction_m1391584430
n2d:_CultureInfo_get_InvariantCulture_m398972276
P1d:_Boolean_System_IConvertible_ToInt64_m4142756949_AdjustorThunk
WE:__ZNK8Animator17HasBoundPlayablesEv
MWc:__ZN17Physics2DSettings8TransferI24GenerateTypeTreeTransferEEvRT_
zJf:_HMAC_initializePad_m3828610671
mTh:_EqualityComparer_1_System_Collections_IEqualityComparer_Equals_m1089835085_gshared
Awd:_RSAParameters_t1462703416_marshal_pinvoke_cleanup
rOj:__ZN6il2cpp2vm7Runtime9SetConfigEPKc
Ewh:_AsyncOperation_get_priority_m966065939
ua:invoke_iiifiii
N0j:__ZN6il2cpp2vm9Exception11FromNameMsgEPK11Il2CppImagePKcS6_S6_
Slg:_Type_internal_from_name_m1506974323
nn:FUNCTION_TABLE_fiiifii
I0:__Z14GetTimeManagerv
jib:__Z12GUIDToStringRK9UnityGUIDPc
Xxh:_AudioMixerPlayable_GetAutoNormalizeVolumes_m2199898677_AdjustorThunk
OO:__ZN11AudioSource22UnmuteActiveVideoSinksEv
Bck:__ZN4utf88internal20is_overlong_sequenceIiEEbjT_
Kxh:_AudioMixerPlayable__ctor_m2704850458
_i:_glReadBuffer
IJc:__Z11StartCircleILN11ShapeModule14MultiModeValueE1EEvRS0_R23ParticleSystemParticlesRK19ParticleSystemStateRK27ParticleSystemEmissionStateRKN4math8float3x3ERKNSB_8float4x4Ejbj
T6d:_SynchronizedArrayListWrapper_get_Count_m4104930530
J1a:__Z30SetupBakedOcclusionForGeometrybRK26SharedLightmapSettingsDataRK15LightmapIndicesR17ShaderPassContext
UTe:_Stream_Close_m1499612649
Ffc:__Z41Register_UnityEngine_Cursor_get_lockStatev
g1a:__Z14SetupLightmapsRK8Vector4fS1_R17ShaderPassContext
dXj:__ZN14dense_hash_mapI10KeyWrapperIPK14Il2CppAssemblyEPK22Il2CppMonoAssemblyNameN6il2cpp5utils11PointerHashIS2_EENS4_14EqualsComparerINSt3__28equal_toIS3_EEEENSD_9allocatorINSD_4pairIKS4_S7_EEEEE13set_empty_keyERSJ_
N2f:_Interval_get_Empty_m3170923997
wVa:__ZL20InitializeGUIShadersv
X0b:__Z20DestroyObjectDelayedP6Objectf
C_:__ZN20DynamicHeapAllocatorI17LowLevelAllocatorED0Ev
JXd:_InputField_OnDrag_m726194348
HUc:__ZN10ClipperLib11ClipperBase5ResetEv
e0e:_PreviousInfo__ctor_m1442166472_AdjustorThunk
E_a:__ZN9DepthPassD2Ev
uK:__ZN11AudioFilter6GetDSPEv
N2c:__ZN20TextRenderingPrivate15DynamicFontData36GetFaceForCharacterIfAvailableInFontERKNS_7FontRefERKNSt3__26vectorI4PPtrIN13TextRendering4FontEE13stl_allocatorIS9_L18MemLabelIdentifier34ELi16EEEEj
L2:__ZN19RuntimeSceneManager14CanUnloadSceneEP10UnityScene
rBg:__Z50RuntimeInvoker_Single_t2076509932_Int64_t909078037PFvvEPK10MethodInfoPvPS4_
H_a:__Z22ExtractRenderNodeQueueRK11CullResults15ExtractionFlagsR15RenderNodeQueue
yBe:_Array_InternalArray__set_Item_TisContentType_t1028629049_m703420360_gshared
Nof:_List_1_set_Item_m1431784996_gshared
IJ:__ZN24AudioScriptBufferManagerC2Ev
POc:__ZN11UnityEngine9Analytics18SceneLoadTimeEvent12ToJsonStringER9JSONWrite
n2c:__ZNSt3__26vectorIh13stl_allocatorIhL18MemLabelIdentifier1ELi16EEE8__appendEj
bvg:__Z95RuntimeInvoker_Void_t1841601450_RuntimeObject_Int32_t2071877448_Int32_t2071877448_RuntimeObjectPFvvEPK10MethodInfoPvPS4_
q2c:__ZN20TextRenderingPrivate8FontImpl16ResetPackingDataEv
ikg:_TimeSpan_get_Hours_m3804628138_AdjustorThunk
gwe:_Array_InternalArray__IndexOf_TisLink_t865133271_m3612939760_gshared
jtc:__Z18Transfer_BlittableI9JSONWriteLb0EfEvRK29SerializationCommandArgumentsR31RuntimeSerializationCommandInfo
ija:__Z21GetAsyncUploadManagerv
Rj:_emscripten_glDetachShader
d_e:_SafeHandleZeroOrMinusOneIsInvalid_get_IsInvalid_m2033528032
E4d:_Char_IsUpper_m4083577610
rHa:__ZN17GenericDynamicVBO20ReleaseChunkInternalERK21DynamicVBOChunkHandlejj
afd:__ZL27CleanupModule_TextRenderingv
c_e:_SafeHandleZeroOrMinusOneIsInvalid__ctor_m3340306667
qnk:_fmodl
y6f:_SerializationInfo_AddValue_m902275108
Enk:_fmodf
FOb:__Z18Transfer_BlittableI18StreamedBinaryReadILb1EELb1E4AABBEvRK29SerializationCommandArgumentsR31RuntimeSerializationCommandInfo
qka:__ZN12CachedWriter11Align4WriteEv
K$a:__Z20DoDeferredRenderLoopR17RenderLoopContextR13dynamic_arrayI16RenderObjectDataLj4EES4_RK11CullResultsRP13RenderTextureSA_Pb
Dya:__ZN19RuntimeSceneManager11CreateSceneEv
H9c:_ps_get_standard_strings
vtf:_Collection_1_IsValidItem_m1908012838_gshared
I1a:__Z27SetupBakedOcclusionForLightbRK15SharedLightDataR17ShaderPassContext
akk:__ZN6il2cpp2os5Mutex6UnlockEv
fth:_AnimatorControllerPlayable_GetLayerWeight_m1435294989
SIi:_ScrollRect_OnScroll_m3346515304
MEc:__ZN27ParticleSystemReadOnlyState5ResetEv
tbf:_Enumerator_System_Collections_IEnumerator_get_Current_m3461301268_gshared
XNh:_Dictionary_2_CopyToCheck_m1638253305_gshared
oWa:__Z18RenderImageFiltersR10RenderLoopb
k$:__Z19free_alloc_internalPv18MemLabelIdentifier
yjd:__Z43CanvasRenderer_Get_Custom_PropMaterialCountP12Il2CppObject
z9a:__ZN10GameObjectD2Ev
bBf:_ReadOnlyCollection_1_System_Collections_Generic_IListU3CTU3E_set_Item_m25653560_gshared
AFc:__ZN15CollisionModule9ResetSeedERK27ParticleSystemReadOnlyState
NBh:_Color32_op_Implicit_m889975790
kFh:_UnityEventBase_RebuildPersistentCallsIfNeeded_m1583202007
zLf:_CertificateSelectionCallback_Invoke_m2902629105
A8:__ZN10InputEventD2Ev
fJe:_DateTimeFormatInfo_GetAllDateTimePatternsInternal_m1587126173
Vhj:_Vector2_ToString_m775491729_AdjustorThunk
vIe:_NumberFormatter_Append_m3268121457
msd:__ZN22UnityWebRequestManagerD2Ev
jwd:_RSA_ToXmlString_m4145056574
Jme:_Double_System_IConvertible_ToUInt64_m1318285078_AdjustorThunk
Xmk:_isalpha
vxh:_AudioClipPlayable_SetStartDelayInternal_m1268437955
gQj:_il2cpp_object_unbox
yHi:_Selectable_FindSelectable_m2739582497
JUd:_LayoutGroup_GetAlignmentOnAxis_m1783063916
Che:_DateTimeUtils_ZeroPad_m86470512
Fqh:_AnimationOffsetPlayable_Equals_m3411254421
nMj:__ZN6il2cpp2vmL17IsSocketAsyncCallEP14Il2CppDelegate
s$c:__Z13RegisterClassI11Rigidbody2DEvv
pfh:_Logger_IsLogTypeAllowed_m1750132386
YGc:__ZNK13TriggerModule6UpdateERK24ParticleSystemUpdateDataR23ParticleSystemParticlesjRKf
Zbk:__ZN6il2cpp2vm6String6NewLenEPKcj
Wjb:__ZN6Camera23VirtualRedirectTransferER19StreamedBinaryWriteILb0EE
el:_time
xTd:_Graphic_UnregisterDirtyLayoutCallback_m1724443555
ixa:__ZN14BatchAllocator6CommitE18MemLabelIdentifier
bbd:_cf2_stack_free
cJd:_ExecuteEvents_get_pointerClickHandler_m713983310
iIc:__Z9UpdateTplIL27ParticleSystemCurveEvalMode4EEvRK11MinMaxCurveR23ParticleSystemParticlesPfRKN4math7_float4EjjRK8Vector2f
Yrh:_AnimatorControllerPlayable_GetBool_m217461036_AdjustorThunk
av:__ZN7mecanim9animation19EvaluateFloatValuesEPKNS0_18ClipMuscleConstantEPKNS_18ValueArrayConstantEPKNS0_12ClipBindingsEPKNS0_10ClipOutputEPNS0_18AnimationNodeStateEfbb
j3:__ZN15dense_hashtableINSt3__24pairIKiP6ObjectEEi21InstanceIDHashFunctorN14dense_hash_mapIiS4_S6_NS0_8equal_toIiEE13stl_allocatorIS5_L18MemLabelIdentifier65ELi16EEE9SelectKeyES9_SC_E12resize_deltaEjj
TC:__ZN8Animator31ClearInternalControllerPlayableEv
ysh:_AnimatorControllerPlayable_SetTrigger_m4033120343_AdjustorThunk
_qg:_WeakReference_Finalize_m3318354542
U9a:__ZN10GameObject8TransferI24GenerateTypeTreeTransferEEvRT_
Ybf:_Enumerator_VerifyState_m3913376581_gshared
XSj:__ZN15dense_hashtableINSt3__24pairIK10KeyWrapperINS1_IPK9FieldInfoP11Il2CppClassEEEjEES9_17ReflectionMapHashIS8_EN14dense_hash_mapIS9_jSD_NS9_14EqualsComparerINS0_8equal_toIS8_EEEENS0_9allocatorISB_EEE9SelectKeyESI_SK_E4findERSA_
bBk:_glDeleteSync__wrapper
gee:_Decimal_op_Implicit_m623319612
GKh:_ValueCollection_System_Collections_Generic_ICollectionU3CTValueU3E_Remove_m98888100_gshared
qId:_EventTrigger_OnPointerExit_m2119176877
rOc:__ZN14qsort_internal5QSortIP16ParticleSortDataiPFbRKS1_S4_EEEvT_S7_T0_T1_
k2b:__ZN13ProduceHelperI30RuntimeInitializeOnLoadManagerLb0EE7ProduceE18MemLabelIdentifier18ObjectCreationMode
Y7a:__ZN13RenderTexture19SetAutoGenerateMipsEb
npa:__Z20GetTextureFormatInfo13TextureFormat
Vqc:__Z43Register_UnityEngine_GUIStyle_get_alignmentv
Axg:__Z119RuntimeInvoker_RuntimeObject_RuntimeObject_RuntimeObject_Int32_t2071877448_Int32_t2071877448_MonoIOErrorU26_t1029615899PFvvEPK10MethodInfoPvPS4_
Mx:__ZN26AnimatorControllerPlayable8GetFloatEiRf
Tse:_PlayableHandle_IsPlayableOfType_TisRuntimeObject_m4111068959_gshared
Jth:_AnimatorControllerPlayable_GetCurrentAnimatorClipInfoCount_m3938711391
CFi:_Shadow__ctor_m924057531
cKd:_PointerEventData_set_worldPosition_m192283671
Osk:dynCall_iiifiiii
Vij:_Vector3_get_right_m1884123822
rik:__ZN6il2cpp5utils10MemoryPool6MallocEj
bJ:__ZN11SoundHandle8InstanceD2Ev
Nba:__ZN31CanvasBatchIntermediateRenderer13StaticDestroyEPv
dnj:_X509Store_BuildCrlsCollection_m52567568
oic:__Z29Mesh_CUSTOM_RecalculateBoundsP12Il2CppObject
MLc:__Z35ParticleSystemRenderer_RenderMeshesIL21SpriteMaskInteraction0EEvRK15RenderNodeQueuej17ShaderChannelMaski
sne:_Enum_ToString_m662345249
wGg:__Z150RuntimeInvoker_Single_t2076509932_Single_t2076509932_Single_t2076509932_SingleU26_t4173844468_Single_t2076509932_Single_t2076509932_Single_t2076509932PFvvEPK10MethodInfoPvPS4_
Cfc:__Z41Register_UnityEngine_CullingGroup_Disposev
Tob:__ZN7Cubemap23VirtualRedirectTransferER19StreamedBinaryWriteILb0EE
cRa:__ZN25MultiBlocksMemoryFileData5WriteEyyPKv
fSc:__ZNK13b2PulleyJoint16GetReactionForceEf
hkf:_List_1_System_Collections_IList_Add_m4271264217_gshared
$Xj:__ZN14dense_hash_mapI10KeyWrapperIPK10Il2CppTypeEjN6il2cpp8metadata14Il2CppTypeHashENS4_14EqualsComparerINS6_26Il2CppTypeEqualityComparerEEENSt3__29allocatorINSB_4pairIKS4_jEEEEE13set_empty_keyERSE_
pfc:__Z35Component_CUSTOM_SendMessageUpwardsP12Il2CppObjectP12Il2CppStringS0_i
lJa:__ZL17ProgramUniform2fvPK7ApiGLESjiihPKv
vyk:b83
i2c:__ZN20TextRenderingPrivate8FontImpl21HasCharacterInTextureEjijfPj
rok:_htonl
PEa:__Z20GetBufferManagerGLESv
YRb:__ZN18StreamedBinaryReadILb0EE21TransferSTLStyleArrayI31ArrayOfManagedObjectsTransfererEEvRT_17TransferMetaFlags
hhg:_UTF7Decoder_GetChars_m2790530452
bwc:__Z18Transfer_BlittableI8JSONReadLb0EtEvRK29SerializationCommandArgumentsR31RuntimeSerializationCommandInfo
yLc:__ZN18ColorBySpeedModuleD0Ev
z4c:_pshinter_module_class_pic_free
jAi:__ZL68Navigation_t1571958496_CustomAttributesCacheGenerator_m_SelectOnLeftP21CustomAttributesCache
Bdc:__ZN15dense_hashtableINSt3__24pairIKy9PlaneDataEEyN32PlaneColliderCache_dense_hashmap17UInt64HashFunctorEN14dense_hash_mapIyS3_S6_NS0_8equal_toIyEE13stl_allocatorIS4_L18MemLabelIdentifier65ELi16EEE9SelectKeyES9_SC_E12resize_deltaEjj
ty:__ZN34AnimationStateMachineMixerPlayable13EndTransitionEv
ZK:__ZN12AudioManager21FixMasterGroupRoutingEv
nyd:_SymmetricAlgorithm_set_Key_m2973350820
o_c:__ZN6b2Body9SetActiveEb
Cyi:__ZL58FontData_t2614388407_CustomAttributesCacheGenerator_m_FontP21CustomAttributesCache
jYf:_WebHeaderCollection_IsHeaderValue_m1723393133
u1c:__ZN20TextRenderingPrivate8FontImpl13CharacterInfo8TransferI24GenerateTypeTreeTransferEEvRT_
n_c:__ZN11Rigidbody2D8TransferI19StreamedBinaryWriteILb0EEEEvRT_
D9j:__ZN6il2cpp2os10ThreadImpl33UnregisterCurrentThreadForCleanupEv
Bw:__ZN27AnimationLayerMixerPlayable22PrepareAnimationEventsEfR13dynamic_arrayI22AnimationClipEventInfoLj4EE
bGb:__Z18Transfer_BlittableI14SafeBinaryReadLb1E4AABBEvRK29SerializationCommandArgumentsR31RuntimeSerializationCommandInfo
o8j:__ZN6il2cpp6icalls8mscorlib6System4Enum12get_hashcodeEP12Il2CppObject
Deh:_Input_INTERNAL_get_mouseScrollDelta_m1140491498
Rlk:__ZN6il2cpp8metadata26Il2CppGenericMethodCompare6EqualsEPK19Il2CppGenericMethodS4_
$9:__Z22CreateMutexLockedQueue18MemLabelIdentifier
OJ:__ZN9AudioClip7WWWOpenEPKciPjPPvS4_
WFb:__Z18Transfer_BlittableI14SafeBinaryReadLb0E8Vector2fEvRK29SerializationCommandArgumentsR31RuntimeSerializationCommandInfo
uBe:_Array_InternalArray__set_Item_TisPlayableBinding_t2498078091_m2071396616_gshared
ad:_emscripten_glVertexAttrib2f
RUb:__ZN15SerializeTraitsIN9ShaderLab20SerializedSubProgram16TextureParameterEE8TransferI14SafeBinaryReadEEvRS2_RT_
Q2d:_Byte_System_IConvertible_ToInt16_m1575115635_AdjustorThunk
PRi:_Context_get_HasGlobalDynamicSinks_m3205328884
v$e:_SimpleCollator_CompareQuick_m619038530
OTf:_SslStreamBase_EndRead_m1072850679
ud:_SDL_GetTicks
q7e:_X509CertificateEnumerator_System_Collections_IEnumerator_get_Current_m1643583406
Thd:__ZN2UI14CanvasRenderer11SyncCullingENS0_8SyncFlagE
QUj:__ZN15dense_hashtableINSt3__24pairIK10KeyWrapperINS1_IPK11Il2CppImageP11Il2CppClassEEEjEES9_17ReflectionMapHashIS8_EN14dense_hash_mapIS9_jSD_NS9_14EqualsComparerINS0_8equal_toIS8_EEEENS0_9allocatorISB_EEE9SelectKeyESI_SK_E6insertERKSB_
x5a:__Z21CreateShadowCullerJobP30CreateUmbraShadowCullerJobData
zfh:_Material_get_mainTexture_m432794412
dJa:__ZL18ProgramUniform2uivPK7ApiGLESjiihPKv
Jzk:_glUniform4iv__wrapper
x2a:__Z33GenerateShadowCasterPartsSortDataRK16ShadowCasterDatajRK15RenderNodeQueueRKNSt3__26vectorI20ShadowCasterPartData13stl_allocatorIS7_L18MemLabelIdentifier2ELi16EEEERK10Matrix4x4fRjP20ShadowCasterSortData
QPh:_Dictionary_2_ToTKey_m4209561517_gshared
oad:_cf2_computeDarkening
PZ:__GLOBAL__sub_I_runtime_gfxdevice_lump_cpp
Fwh:_AsyncOperation_set_priority_m3581020444
Uek:_GC_expand_hp_inner
vc:invoke_viiiififfi
ehc:__Z25Screen_Get_Custom_PropDpiv
ZTd:_GridLayoutGroup_get_spacing_m1909275195
qck:__ZN4utf812find_invalidIPKcEET_S3_S3_
F0f:_X509ExtensionCollection_System_Collections_ICollection_CopyTo_m3421329346
mek:_GC_err_printf
F$g:_FieldBuilder_SetValue_m3109503557
ISd:_Graphic_OnBeforeTransformParentChanged_m1866292273
w_f:_X509Certificate2_Verify_m1574874641
rX:__ZN11UnityEngine15CloudWebService20WebRequestRestClient7PrepareEv
Bxi:__ZL58PhysicsRaycaster_t249603239_CustomAttributesCacheGeneratorP21CustomAttributesCache
Y1c:__ZN20TextRenderingPrivate19NativeTextGenerator23FixLineHorizontalOffsetEiii
$ae:_SortedList_GetEnumerator_m1318483481
k$d:_Array_CreateInstance_m3327690220
Ez:__ZN7mecanim9animation19DestroyAnimationSetEPNS0_12AnimationSetERNS_6memory9AllocatorE
Euk:_emscripten_glDepthRange__wrapper
oeb:__ZN16MemoryFileSystem4OpenER13FileEntryData14FilePermission16FileAutoBehavior
Aba:__ZN13RuntimeStaticI13RendererSceneLb0EE13StaticDestroyEPv
lLb:__Z18Transfer_BlittableI24GenerateTypeTreeTransferLb1E12PropertyNameEvRK29SerializationCommandArgumentsR31RuntimeSerializationCommandInfo
Yzb:__ZN14SafeBinaryRead21TransferSTLStyleArrayI10vector_mapIPKN5Unity4TypeE7Hash128NSt3__24lessIS5_EENS7_9allocatorINS7_4pairIS5_S6_EEEEEEEvRT_17TransferMetaFlags
NJ:__ZN9AudioClip18GetQueuedAudioDataEPPvj
Qed:__ZN20TextRenderingPrivate21TextMeshGeneratorImpl14GarbageCollectEv
d9b:__ZNK9Texture2D17CheckHasPixelDataEv
KZc:__ZN15b2ContactSolver13StoreImpulsesEv
n_a:__Z18SetShadowsKeywordsR17ShaderPassContext9LightType10ShadowType16ShadowProjectionbb
EYj:__ZN14dense_hash_mapI10KeyWrapperINSt3__24pairIPK12PropertyInfoP11Il2CppClassEEEj17ReflectionMapHashIS8_ENS9_14EqualsComparerINS1_8equal_toIS8_EEEENS1_9allocatorINS2_IKS9_jEEEEEC2EjRKSB_RKSF_
q4b:__ZN17CollisionMeshDataC2Ev
aXg:_Assembly_GetModule_m2064378601
i6i:_Regex_get_RightToLeft_m529734879
tIi:_ScrollRect_SetDirty_m93243192
hqb:__ZN16LightmapSettings23VirtualRedirectTransferER19StreamedBinaryWriteILb0EE
GUa:__ZZ23InitPlayerLoopCallbacksvEN47PostLateUpdateMemoryFrameMaintenanceRegistrator7ForwardEv
Qo:FUNCTION_TABLE_viiififii
Ffk:_GC_push_next_marked
Qhh:_MessageTypeSubscribers__ctor_m743474932
yzk:_glTexParameteriv__wrapper
zxa:__ZN18IDCollectorFunctor18GenerateInstanceIDEi17TransferMetaFlags
CAe:_Array_InternalArray__set_Item_TisTableRange_t2011406615_m2386708730_gshared
JZc:__ZN15b2ContactSolver9WarmStartEv
GIe:_NumberFormatter_ToDecHex_m1474793296
dxh:_AudioClipPlayable_SetClipInternal_m3129974269
tMg:__Z74RuntimeInvoker_Int32_t2071877448_RaycastHit_t87180320_RaycastHit_t87180320PFvvEPK10MethodInfoPvPS4_
Dfb:__ZN14StackAllocatorD0Ev
n$j:__ZN6il2cpp2vm6Thread8SetStateEP12Il2CppThreadNS0_11ThreadStateE
ZZe:_OperatingSystem_Clone_m1943707477
hSd:_FontData_set_richText_m29558601
xjg:_Scheduler_Change_m4063588742
ACe:_Array_Resize_TisVector2_t2243707579_m1117258774_gshared
Odj:_HitInfo_SendMessage_m3368777144_AdjustorThunk
hjc:__Z22PlayableValidityChecksRK9HPlayableb
cBb:__ZN15ResourceManagerD2Ev
Rif:_List_1_Insert_m2532850849_gshared
hfc:__Z41Register_UnityEngine_Camera_GetAllCamerasv
Ngh:_Mesh_get_vertices_m626989480
_Ei:_MaskableGraphic_OnCanvasHierarchyChanged_m2012659245
_Ha:__ZN4crnd12crn_unpacker10unpack_dxnEPPhjjjjjj
Lpd:__ZN28PerformanceReportingSettings8TransferI14SafeBinaryReadEEvRT_
Bee:_Double_Parse_m2344589511
zAg:__Z78RuntimeInvoker_Boolean_t3825574718_IntPtr_t_Int32_t2071877448_SByte_t454417549PFvvEPK10MethodInfoPvPS4_
D0j:__ZN6il2cpp2vm22EmbeddedResourceRecordC2ERKS1_
Jsh:_AnimatorControllerPlayable_INTERNAL_CALL_ResetTriggerID_m1182483253
Oob:__ZN9Texture2D13AwakeFromLoadE17AwakeFromLoadMode
O_e:_MSCompatUnicodeTableUtil__cctor_m1479836795
xaj:_PositionAssertion__ctor_m3703837499
wZd:_LayoutGroup_get_minWidth_m4111745491
DUe:_StreamWriter_Initialize_m1707678624
I7j:__ZN6il2cpp2vm3RCW14QueryInterfaceILb0EEEP14Il2CppIUnknownP15Il2CppComObjectRK10Il2CppGuid
mIi:_ScrollRect_set_verticalScrollbar_m2903688658
wqa:__ZN6prcoreL17RemapGenericFloatI15TexFormatRFloat18TexFormatARGBFloatEEvPKNS_9InnerInfoE
Z1h:__ZL50_Thread_t1894135853_CustomAttributesCacheGeneratorP21CustomAttributesCache
NAc:__ZN12LightsModule20ResetUsedLightsCacheEv
MZi:_InternalEnumerator_1_get_Current_m1047712960_gshared
LZ:__GLOBAL__sub_I_runtime_camera_renderlayers_lump_cpp
apd:__ZN11UnityEngine15PlatformWrapper20GetPlayerPrefsUInt64ERKN4core12basic_stringIcNS1_20StringStorageDefaultIcEEEEy
aNc:__Z19UpdateWholeSheetTplIL27ParticleSystemCurveEvalMode1EEvfRK11MinMaxCurveS3_RK23ParticleSystemParticlesPf
X1a:__ZN20ReflectionProbeCacheC2ER13BatchRendererR15RenderLoopStats
mca:__ZN18AssetBundleManagerC2Ev
rSa:__ZNK12HandlerChain6ExistsERK13FileEntryData
jdi:__ZL61ExtensionAttribute_t1840441203_CustomAttributesCacheGeneratorP21CustomAttributesCache
Zee:_Convert_ToInt32_m2734833291
O2a:__Z30FindDirectAttenuationFromProbeP18ForwardLightsBlockbiRK10RenderNodeRK23FindForwardLightsParamsf
czb:__ZN12InputManager23VirtualRedirectTransferER24GenerateTypeTreeTransfer
KZb:__ZN9Transform23VirtualRedirectTransferER24GenerateTypeTreeTransfer
ZXb:__ZNSt3__26vectorIN9ShaderLab20SerializedSubProgram12UAVParameterENS_9allocatorIS3_EEE21__push_back_slow_pathIKS3_EEvRT_
o0f:_X509ChainElement_Count_m228862214
glg:_TimeZone_IsDaylightSavingTime_m1840774423
Wcd:_UNITY_tt_size_ready_bytecode
H0c:__ZN13TextRendering4FontD2Ev
urg:__Z47RuntimeInvoker_Single_t2076509932_RuntimeObjectPFvvEPK10MethodInfoPvPS4_
C3c:_UNITY_FT_Stream_Open
XKg:__Z97RuntimeInvoker_Int32_t2071877448_IntPtr_t_RectU26_t844847526_RuntimeObject_Vector2U26_t3911752445PFvvEPK10MethodInfoPvPS4_
Vgd:__GLOBAL__sub_I_runtime_ui_lump_cpp
vCc:__ZN10SizeModule8TransferI24GenerateTypeTreeTransferEEvRT_
lRa:__ZN10MemoryFile4ReadEyyPvPy
ZAa:__ZN13GfxDeviceGLES26UpdateViewProjectionMatrixEv
wNh:_Dictionary_2_ContainsKeyValuePair_m1750905675_gshared
rI:__ZN4FMOD3DSP12setParameterEif
bga:__ZN13MemoryManager16StaticInitializeEv
LZh:__ZL53StackFrame_t2050294881_CustomAttributesCacheGeneratorP21CustomAttributesCache
zf:___cxa_free_exception
ZEf:_ReadOnlyCollection_1_System_Collections_ICollection_CopyTo_m4126742951_gshared
dM:__ZN4FMOD22FakeModChannelCallbackEPv
Ff:_emscripten_glValidateProgram
FWa:__ZN4Mesh10CreateMeshEv
YVj:__ZN6il2cpp2gc19AppendOnlyGCHashMapINSt3__24pairIPK9EventInfoP11Il2CppClassEEP21Il2CppReflectionEvent17ReflectionMapHashIS9_ENS2_8equal_toIS9_EEE3AddERKS9_SB_
hJ:__ZN4FMOD7SystemI11createSoundEPKcjP22FMOD_CREATESOUNDEXINFOPPNS_5SoundE
iej:_Sprite_get_associatedAlphaSplitTexture_m3617241169
j8f:_ArrayFixupRecord_FixupImpl_m2377725358
Mad:_cf2_stack_clear
jme:_Double_System_IConvertible_ToBoolean_m4251806534_AdjustorThunk
fIh:_ShimEnumerator_Reset_m2247049027_gshared
GUc:__ZN10ClipperLib11ClipperBase5ClearEv
Z7a:__ZN7Texture13SetAnisoLevelEi
H_f:_X509Chain_Process_m2508784250
Gnf:_List_1_RemoveAt_m2929488689_gshared
YOc:__ZN27PerformanceReportingManager23VirtualRedirectTransferER24GenerateTypeTreeTransfer
R4c:_raccess_guess_vfat
Fkd:__Z44Canvas_CUSTOM_GetETC1SupportedCanvasMaterialv
hlb:__ZN11HaloManager10UpdateHaloEiR9Transform11ColorRGBA32fjP6Object
yDc:__ZN13InitialModule8TransferI18StreamedBinaryReadILb0EEEEvRT_
AMe:_Int16_Parse_m3012618547
O2j:__ZN14dense_hash_mapI10KeyWrapperIP14Il2CppIUnknownEjN6il2cpp5utils11PointerHashIS1_EENS3_14EqualsComparerINSt3__28equal_toIS2_EEEENS9_9allocatorINS9_4pairIKS3_jEEEEE13set_empty_keyERSF_
Wxg:__Z50RuntimeInvoker_Void_t1841601450_OpCode_t2247480392PFvvEPK10MethodInfoPvPS4_
wkb:__Z21DestroyShadowMapCacheP14ShadowMapCache
fx:__ZN7mecanim9animation25CreateControllerWorkspaceEPKNS0_18ControllerConstantERNS_6memory9AllocatorE
qaf:_Enumerator_VerifyState_m739025304_gshared
oQd:_Graphic_RegisterDirtyVerticesCallback_m4169445219
cYj:__ZN15dense_hashtableINSt3__24pairIK10KeyWrapperIPK10Il2CppTypeEjEES6_N6il2cpp8metadata14Il2CppTypeHashEN14dense_hash_mapIS6_jSB_NS6_14EqualsComparerINSA_26Il2CppTypeEqualityComparerEEENS0_9allocatorIS8_EEE9SelectKeyESF_SH_E14squash_deletedEv
N1j:__ZN6il2cpp2vm13LivenessState5ResetEv
Rgj:_Transform_get_parent_m147407266
jOg:__Z138RuntimeInvoker_Void_t1841601450_RuntimeObject_Color32_t874517518_Int32_t2071877448_Int32_t2071877448_Single_t2076509932_Single_t2076509932PFvvEPK10MethodInfoPvPS4_
isc:__ZN9JSONWrite8TransferI11KeyframeTplIfEEEvRT_PKc17TransferMetaFlags
BLi:_Text_get_cachedTextGenerator_m224335893
y7g:_GameObject_GetComponent_m306258075
Czi:__ZL71InputField_t1631627530_CustomAttributesCacheGenerator_m_OnValidateInputP21CustomAttributesCache
t3j:__ZN6il2cpp2vm3RCW23GetOrCreateFromIUnknownEP14Il2CppIUnknownP11Il2CppClass
FPa:__ZN24BuiltinShaderParamValuesC2Ev
$sc:__ZL41CreateJSONTransferFunctionScriptingTraitsv
GRe:_FileStream_get_CanWrite_m775322953
eoh:_CustomEventData_InternalCreate_m4162294919
QUa:__Z23GetLateBehaviourManagerv
O6:__ZN10MemoryPool10DeallocateEPv
yJe:_NumberFormatInfo__ctor_m2752806684
NMd:_CanvasUpdateRegistry_get_instance_m862315367
f7i:_PatternCompiler_EmitFastRepeat_m1175707353
xFe:_Array_InternalArray__get_Item_TisKeyValuePair_2_t3716250094_m3120861630_gshared
C4c:_cff_driver_class_pic_free
Gng:_UInt32_TryParse_m3987111861
uyc:__ZNK9rapidjson12GenericValueINS_4UTF8IcEE13JSONAllocatorE6AcceptINS_6WriterI16TempBufferWriterS2_S2_S3_EEEEbRT_
Ask:dynCall_vif
Bsk:dynCall_vid
MCh:_Native_CSSNodeGetMeasureFunc_m3825031950
Ahf:_List_1_System_Collections_IList_get_Item_m3989815218_gshared
Dsk:dynCall_vii
pde:_DateTime__ctor_m3604679583
NRb:__Z18Transfer_BlittableI18StreamedBinaryReadILb0EELb0EdEvRK29SerializationCommandArgumentsR31RuntimeSerializationCommandInfo
w6i:_Enumerator_System_Collections_IEnumerator_MoveNext_m3313126804
r_a:__ZNK17InstancedPropInfo14IsInstanceableERK19ShaderPropertySheet
Kgb:__ZN5Unity9Component16CheckConsistencyEv
KMd:_LayoutRebuilder_ValidController_m2595049322
WJa:__ZN7ApiGLES11CheckShaderERjb
Oha:__ZN19ShaderPropertySheet37CreateTextureAuxPropertyUninitializedEN9ShaderLab16FastPropertyNameES1_PKc
nnh:_RectTransform_set_anchoredPosition_m2077229449
oNb:__ZL26Transfer_SimpleNativeClassI19StreamedBinaryWriteILb0EE10RectOffsetLb1EEvRK29SerializationCommandArgumentsR31RuntimeSerializationCommandInfo
wFe:_Array_InternalArray__get_Item_TisKeyValuePair_2_t1174980068_m964958642_gshared
CTj:__ZN15dense_hashtableINSt3__24pairIK10KeyWrapperIPK10Il2CppTypeEjEES6_N6il2cpp8metadata14Il2CppTypeHashEN14dense_hash_mapIS6_jSB_NS6_14EqualsComparerINSA_26Il2CppTypeEqualityComparerEEENS0_9allocatorIS8_EEE9SelectKeyESF_SH_E3endEv
Q2a:__Z28GetNonInterpolatedLightProbeRK17LightProbeContextjR20SphericalHarmonicsL2
Fxe:_Array_InternalArray__ICollection_Add_TisDateTime_t693205669_m3559987213_gshared
EDa:__ZN13GfxDeviceGLES17SetGpuProgramNameEP10GpuProgramPKc
EX:__ZNK11UnityEngine15CloudWebService25WebRequestDownloadHandler11GetProgressEv
rJf:_ARC4Managed_CheckInput_m3033530539
wLj:__ZN6il2cpp2vm13MetadataCache28GetMethodDefinitionFromIndexEi
cna:__ZN14SafeBinaryRead19TransferSTLStyleMapINSt3__23mapI39DeprecatedFastPropertyNameSerialization10ColorRGBAfNS1_4lessIS3_EENS1_9allocatorINS1_4pairIKS3_S4_EEEEEEEEvRT_17TransferMetaFlags
Iyh:_Behaviour_get_enabled_m4079055610
f4g:_MonoEventInfo_GetEventInfo_m2331957186
pij:_Vector3_Lerp_m2935648359
Jjj:_NetFxCoreExtensions_GetMethodInfo_m2715372889
mh:_atexit
L7d:_BitArrayEnumerator_Reset_m3218489242
b3d:_Byte_System_IConvertible_ToUInt16_m2275325191
FWj:__ZN6il2cpp2vmL31GetObjectForMissingDefaultValueEj
swf:_Collection_1__ctor_m824713192_gshared
bJj:__ZNK15dense_hashtableINSt3__24pairIK10KeyWrapperIN6il2cpp5utils13dynamic_arrayIPK10Il2CppTypeLj4EEEEPFvvEEESA_NS3_8metadata19Il2CppSignatureHashEN14dense_hash_mapISA_SD_SG_NSA_14EqualsComparerINSF_22Il2CppSignatureCompareEEENS0_9allocatorISE_EEE9SelectKeyESK_SM_E10test_emptyEj
zVb:__ZN9ShaderLab14SerializedPassC2ERKS0_
BXi:_InternalEnumerator_1_System_Collections_IEnumerator_get_Current_m3088751576_AdjustorThunk
fCa:__ZNK9GfxDevice28GetActiveRenderSurfaceHeightEv
l:STACKTOP
ucd:_cff_get_name_index
DWe:_Math_Cos_m43596019
yqb:__ZN21EnlightenSceneMapping16BuildRemapTablesEv
tFb:__ZNSt3__26vectorI4PPtrI10MonoScriptE13stl_allocatorIS3_L18MemLabelIdentifier76ELi16EEE8__appendEj
B7b:__ZN17TransformInternal27UpdateDeepChildCountUpwardsER18TransformHierarchyii
j2i:_InternalEnumerator_1_System_Collections_IEnumerator_get_Current_m1533037706_AdjustorThunk
$pk:__ZNK10__cxxabiv117__class_type_info16search_above_dstEPNS_19__dynamic_cast_infoEPKvS4_ib
A:tempBigIntD
HCd:_Single_Equals_m3359827399_AdjustorThunk
vId:_EventTrigger_OnPointerClick_m413999043
z:tempBigIntI
$nj:_CachedInvokableCall_1__ctor_m127496184_gshared
GIf:_PrimalityTests_RabinMillerTest_m2029846965
y:tempBigIntR
x:tempBigIntS
Dn:FUNCTION_TABLE_viffi
$2c:_open_face_PS_from_sfnt_stream
L7f:_ServerIdentity_CreateObjRef_m1056204803
A6:__ZN6Object18RegisterInstanceIDEPS_
UKb:__Z18Transfer_BlittableI24GenerateTypeTreeTransferLb1EsEvRK29SerializationCommandArgumentsR31RuntimeSerializationCommandInfo
V6j:__ZN15dense_hashtableINSt3__24pairIK10KeyWrapperIP12Il2CppObjectEN6il2cpp2gc9CachedCCWEEES5_NS7_5utils11PointerHashIS3_EEN14dense_hash_mapIS5_S9_SD_NS5_14EqualsComparerINS0_8equal_toIS4_EEEENS0_9allocatorISA_EEE9SelectKeyESI_SK_E11set_deletedER30dense_hashtable_const_iteratorISA_S5_SD_SM_SI_SK_E
_Aa:__ZNK9GfxDevice18GetWorldViewMatrixEv
Lhf:_List_1_Contains_m3819542652_gshared
HNf:_TlsServerKeyExchange__ctor_m247733406
DGe:_Object_Instantiate_TisRuntimeObject_m1767088036_gshared
lCf:_ReadOnlyCollection_1_System_Collections_IList_Add_m3065652010_gshared
mdk:__ZN6il2cpp6icalls8mscorlib6System7Convert17Base64ToByteArrayEPDsib
Zqj:_IndexedSet_1_Clear_m2776064367_gshared
leh:_GUIUtility_set_systemCopyBuffer_m2040945785
cVg:__Z82RuntimeInvoker_Boolean_t3825574718_RaycastResult_t21186376_RaycastResult_t21186376PFvvEPK10MethodInfoPvPS4_
Wgh:_Mesh_SetNormals_m3341225499
IIj:__ZNSt3__218__insertion_sort_3IRN6il2cpp5utils11collections13ArrayValueMapIPK10Il2CppType17Il2CppInteropData26InteropDataToTypeConverterNS1_8metadata14Il2CppTypeLessENSA_26Il2CppTypeEqualityComparerEE12SortComparerEPS8_EEvT0_SH_T_
mhd:__ZN2UI39SendIgnoreNextTransformChangedRecursiveEPK9TransformPKNS_6CanvasE
qzc:__ZN27ColorModulePropertyBindings13AddPropertiesER10vector_mapIi22ParticleModulePropertyNSt3__24lessIiEENS2_9allocatorINS2_4pairIiS1_EEEEE
cBa:__ZNK9GfxDevice25GetDeviceProjectionMatrixEv
NWf:_HttpWebRequest__ctor_m1248252412
na:invoke_iidiii
oOc:__Z4SortRK10Matrix4x4fS1_R23ParticleSystemParticles22ParticleSystemSortModeR31ParticleSystemParticlesTempData
yWg:_RankException__ctor_m2119191472
Byc:__ZN9rapidjson12PrettyWriterI16TempBufferWriterNS_4UTF8IcEES3_13JSONAllocatorE11WriteIndentEv
Sac:__ZN10systeminfo24GetRuntimePlatformStringEv
pvc:__ZN9JSONWrite8TransferI13dynamic_arrayI4AABBLj4EEEEvRT_PKc17TransferMetaFlags
Xxg:__Z64RuntimeInvoker_Void_t1841601450_OpCode_t2247480392_RuntimeObjectPFvvEPK10MethodInfoPvPS4_
JU:__ZN5physx14PxLightCpuTask15removeReferenceEv
pKc:__ZN23ParticleSystemParticles17SetUses3DRotationEv
ZHg:__Z88RuntimeInvoker_Void_t1841601450_Double_t4078015681_Double_t4078015681_Double_t4078015681PFvvEPK10MethodInfoPvPS4_
bYf:_SPKey_Equals_m1112627532
Hzd:_SecurityPermission_IsSubsetOf_m1087302418
$Si:_ArgInfo__ctor_m3787931268
umj:_X509Chain_Build_m175470596
Vha:__ZN9ShaderLab6TexEnvC2ERKNS_25SerializedTexturePropertyE
xih:_Object_Instantiate_m2489341053
vla:__ZN19ShaderPropertySheet38CopyTextureWithAuxiliaryPropertiesFromERKN9ShaderLab16FastPropertyNameERKS_
W1c:__ZN20TextRenderingPrivate19NativeTextGeneratorD2Ev
ZLj:__ZN6il2cpp2vm19SocketPollingThread14DequeueRequestEv
Aak:__ZL10RevealLinkPv
I6a:__ZNK6Camera26CalculateCullingParametersER17CullingParameters
Qi:___cxa_end_catch
g1g:_MethodBuilder_MakeGenericMethod_m303913412
tXg:_AssemblyName_InternalGetPublicKeyToken_m3706025887
Msk:dynCall_viffffii
IId:_ExecuteEvents_Execute_m4235029535
_Wf:_HttpWebRequest_GetObjectData_m1200570677
Nkd:__Z43Register_UnityEngine_Canvas_set_scaleFactorv
bch:_GUIStyle_set_onHover_m3908151335
S4c:_raccess_guess_linux_cap
PRf:_ReceiveRecordAsyncResult_get_AsyncWaitHandle_m1602093076
_Ng:__Z113RuntimeInvoker_Boolean_t3825574718_Ray_t2469606224_RaycastHitU26_t1969197280_Single_t2076509932_Int32_t2071877448PFvvEPK10MethodInfoPvPS4_
ZRb:__Z19TransferField_ArrayI18StreamedBinaryReadILb0EE27Converter_UnityEngineObjectEvRK23StaticTransferFieldInfoR31RuntimeSerializationCommandInfoRT0_
uCg:__Z221RuntimeInvoker_Void_t1841601450_Int32_t2071877448_Int16_t4041245914_Int16_t4041245914_SByte_t454417549_SByte_t454417549_SByte_t454417549_SByte_t454417549_SByte_t454417549_SByte_t454417549_SByte_t454417549_SByte_t454417549PFvvEPK10MethodInfoPvPS4_
n1:__Z33InitializeBuiltinShaderParamNamesv
V7e:_ActivationContext_System_Runtime_Serialization_ISerializable_GetObjectData_m775951299
qnh:_RectTransform_INTERNAL_get_sizeDelta_m3975625099
Kja:__ZNK16TypeTreeIterator4TypeEv
ZSi:_LeaseManager__ctor_m2166901364
PPa:__ZN10FileSystem25MountDataFolderFileSystemERKN4core12basic_stringIcNS0_20StringStorageDefaultIcEEEES6_
ZAi:__ZL67Selectable_t1490392188_CustomAttributesCacheGenerator_m_SpriteStateP21CustomAttributesCache
xj:_glGetUniformLocation
nCa:__ZN13GfxDeviceGLES32CreateColorRenderSurfacePlatformEP17RenderSurfaceBase19RenderTextureFormat
xJ:__ZN12AudioManager24CreateFMODSoundFromMovieEP9AudioClip
Dyc:__ZN9rapidjson6WriterI16TempBufferWriterNS_4UTF8IcEES3_13JSONAllocatorE8WriteIntEi
vKj:__ZN6il2cpp2vm13MetadataCache24GetGenericInstanceMethodEPK10MethodInfoPK20Il2CppGenericContext
L_e:_MSCompatUnicodeTable_get_IsReady_m562849792
Q_e:_SimpleCollator_SetCJKTable_m1356471502
yOb:__Z18Transfer_BlittableI18StreamedBinaryReadILb1EELb0E8Vector2fEvRK29SerializationCommandArgumentsR31RuntimeSerializationCommandInfo
vNe:_Int32_System_IConvertible_ToUInt64_m2888588559_AdjustorThunk
V5:__Z24ConvertSeparatorsToUnityPc
pzb:__ZNSt3__213__vector_baseI9InputAxisNS_9allocatorIS1_EEED2Ev
X_j:__ZN6il2cpp2vm6Thread20FreeThreadStaticDataEP12Il2CppThread
erg:__Z28RuntimeInvoker_RuntimeObjectPFvvEPK10MethodInfoPvPS4_
uoe:_Exception_get_ClassName_m2189012117
oFc:__ZN11ForceModule13AwakeFromLoadEP14ParticleSystemRK27ParticleSystemReadOnlyState
pQe:_IOException__ctor_m613517077
kPi:_MarshalDirectiveException__ctor_m3894820706
$ad:_cf2_glyphpath_finalize
rbe:_Stack__ctor_m521896492
hZa:__Z20LookRotationToMatrixRK8Vector3fS1_P10Matrix3x3f
btk:dynCall_viififi
CBb:__ZNSt3__26vectorIN15ResourceManager10DependencyE13stl_allocatorIS2_L18MemLabelIdentifier51ELi16EEE6assignINS_11__wrap_iterIPS2_EEEENS_9enable_ifIXaasr21__is_forward_iteratorIT_EE5valuesr16is_constructibleIS2_NS_15iterator_traitsISC_E9referenceEEE5valueEvE4typeESC_SC_
X4c:_UNITY_FT_Stream_Free
Clg:_Type_GetTypeFromHandle_m432505302
K_j:__ZN15dense_hashtableINSt3__24pairIK10KeyWrapperINS1_IP11Il2CppClassjEEES4_EES6_N6il2cpp8metadata14ArrayClassHashEN14dense_hash_mapIS6_S4_SB_NS6_14EqualsComparerINSA_17ArrayClassCompareEEENS0_9allocatorIS8_EEE9SelectKeyESF_SH_E12maybe_shrinkEv
Vse:_PlayableHandle_IsPlayableOfType_TisAnimationClipPlayable_t4099382200_m682525715_gshared
XOi:_GCHandle_FreeHandle_m2466807271
LSd:_GraphicRegistry_get_instance_m2112667631
NV:__ZN11UnityEngine15CloudWebService14DataDispatcher25OnDataBlockConsumedStaticEPv
NId:_ExecuteEvents_Execute_m2476343313
T1h:__ZL54_MethodInfo_t3642518830_CustomAttributesCacheGeneratorP21CustomAttributesCache
UNd:_CanvasUpdateRegistry_CleanInvalidItems_m1402635291
aKj:__ZNK6il2cpp5utils11collections13ArrayValueMapIPK10Il2CppType17Il2CppInteropData26InteropDataToTypeConverterNS_8metadata14Il2CppTypeLessENS8_26Il2CppTypeEqualityComparerEE10find_firstERKS5_
WNe:_Int64_System_IConvertible_ToByte_m3027162116_AdjustorThunk
gJd:_ExecuteEvents_get_endDragHandler_m56074740
djh:_Playable_get_Null_m3678950051
A3b:__ZZN8Renderer15InitializeClassEvEN28FunctorImpl_136kLayerChanged4CallEPviR11MessageData
H:Math_pow
qUb:__Z14resize_trimmedINSt3__26vectorIN9ShaderLab20SerializedSubProgram16SamplerParameterENS0_9allocatorIS4_EEEEEvRT_j
f5d:_ArrayList__cctor_m2090802806
Kpk:__ZNSt3__212basic_stringIcNS_11char_traitsIcEENS_9allocatorIcEEE6insertEjPKcj
btc:__Z44InitializeTransferFunctionScriptingTraitsForI8JSONReadEvR31TransferFunctionScriptingTraits
icb:__ZNSt3__26vectorINS_4pairIN4core12basic_stringIcNS2_20StringStorageDefaultIcEEEES6_EE13stl_allocatorIS7_L18MemLabelIdentifier37ELi16EEE6insertENS_11__wrap_iterIPKS7_EERSD_
vza:__ZNSt3__27__sort4IRNS_4lessIN22BuiltinResourceManager8ResourceEEEPS3_EEjT0_S7_S7_S7_T_
RId:_ExecuteEvents_Execute_m171612015
mia:__ZN15dense_hashtableINSt3__24pairIKPK17RenderSurfaceBaseP13RenderTextureEES4_19PointerHashFunctionIS4_EN14dense_hash_mapIS4_S7_SA_NS0_8equal_toIS4_EE13stl_allocatorIS8_L18MemLabelIdentifier65ELi16EEE9SelectKeyESD_SG_E12resize_deltaEjj
YHa:__ZN4crnd12crn_unpacker11unpack_dxt5EPPhjjjjjj
pog:_UInt32_System_IConvertible_ToUInt64_m4083788326_AdjustorThunk
Uri:__ZL99GUIStyle_t1799908754_CustomAttributesCacheGenerator_GUIStyle_t1799908754____clipOffset_PropertyInfoP21CustomAttributesCache
Qdd:_UNITY_tt_face_get_location
kdg:_DESTransform_Permutation_m4174035780
xQe:_Path_IsDsc_m1314465747
BRe:_MonoIO_Seek_m3461199288
DSb:__Z29Transfer_Blittable_ArrayFieldI18StreamedBinaryReadILb0EE4AABBEvRT_R9ArrayInfoRK23StaticTransferFieldInfo
S8a:__ZN10GameObject34AddFirstTransformComponentInternalEP9Transform
Efc:__Z31Cursor_Get_Custom_PropLockStatev
E1:__ZNSt3__26__treeINS_12__value_typeINS_4pairIPcS3_EENS_3setIS3_15compare_tstringIPKcENS_9allocatorIS3_EEEEEENS_19__map_value_compareIS4_SD_20smaller_tstring_pairIS8_ELb1EEENSA_ISD_EEE7destroyEPNS_11__tree_nodeISD_PvEE
BP:__ZN12AudioManager29GetCurrentAmbisonicDefinitionE31UnityAudioEffectDefinitionFlags
vEj:__ZN15dense_hashtableINSt3__24pairIK10KeyWrapperIPK22Il2CppGenericParameterEP11Il2CppClassEES6_N6il2cpp5utils11PointerHashIS4_EEN14dense_hash_mapIS6_S9_SE_NS6_14EqualsComparerINS0_8equal_toIS5_EEEENS0_9allocatorISA_EEE9SelectKeyESJ_SL_E15insert_noresizeERKSA_
Igc:__Z52Register_UnityEngine_GameObject_GetComponentInParentv
hAb:__ZN15SerializeTraitsINSt3__24pairIPKN5Unity4TypeE7Hash128EEE8TransferI14SafeBinaryReadEEvRS7_RT_
w5a:__Z37GenerateCombinedDynamicVisibleListJobP11CullResults
TZ:__GLOBAL__sub_I_runtime_graphics_billboard_lump_cpp
hea:__ZNK13ScreenManager21GetCursorInsideWindowEv
eak:__ZN6il2cpp2vmL22RaiseOverflowExceptionEv
Wxe:_Array_InternalArray__ICollection_Add_TisSByte_t454417549_m46595441_gshared
e6i:_Match_get_Empty_m3581361913
w2a:__Z20IntersectAABBFrustumRK4AABBPK5Planej
JEd:_String_Concat_m626692867
W4b:__ZN13RenderManager15InitializeClassEv
gIb:__ZN15SerializeTraitsI12PropertyNameE8TransferI14SafeBinaryReadEEvRS0_RT_
$ej:_TextGenerationSettings_CompareVector2_m592645251_AdjustorThunk
cvc:__ZN9JSONWrite8TransferI11ColorRGBA32EEvRT_PKc17TransferMetaFlags
vxc:__Z22TransferField_NonArrayI8JSONRead27Converter_SimpleNativeClassI8GradientEEvRK23StaticTransferFieldInfoR31RuntimeSerializationCommandInfoRT0_
$db:__ZNSt3__26__treeIN4core12basic_stringIcNS1_20StringStorageDefaultIcEEEENS_4lessIS5_EE13stl_allocatorIS5_L18MemLabelIdentifier37ELi16EEE7destroyEPNS_11__tree_nodeIS5_PvEE
CJa:__ZNSt3__26vectorI15ComputeShaderCBNS_9allocatorIS1_EEE21__push_back_slow_pathIKS1_EEvRT_
zEb:__ZN10MonoScript13AwakeFromLoadE17AwakeFromLoadMode
f0b:__ZN13ProduceHelperI11MonoManagerLb0EE7ProduceE18MemLabelIdentifier18ObjectCreationMode
OLa:__ZNK18GfxFramebufferGLES15DiscardContentsER12ObjectHandleI17RenderSurface_TagP17RenderSurfaceBaseE
t3e:_KeyPairPersistence_IsUserProtected_m37342608
huc:__Z18Transfer_BlittableI9JSONWriteLb1EdEvRK29SerializationCommandArgumentsR31RuntimeSerializationCommandInfo
pxk:_glGetIntegerv__wrapper
FHe:_NumberFormatter_ResetCharBuf_m3823516989
XXd:_InputField_IsValidChar_m3929866302
Ica:__ZN14dense_hash_mapIN4core12basic_stringIcNS0_20StringStorageDefaultIcEEEE10vector_setI4PPtrI11SpriteAtlasENSt3__24lessIS8_EE13stl_allocatorIS8_L18MemLabelIdentifier79ELi16EEE20StringHash32FunctionIS4_ENS9_8equal_toIS4_EESC_INS9_4pairIKS4_SF_EELSD_79ELi16EEE15set_deleted_keyERSL_
_8a:__ZN10GameObject28FinalizeAddComponentInternalEPN5Unity9ComponentE
tH:__Z64AnimatorControllerPlayable_CUSTOM_INTERNAL_CALL_SetTriggerStringR9HPlayableP12Il2CppString
Cch:_GUIStyle_Internal_Draw_m3610093213
zej:_StackTraceUtility_IsSystemStacktraceType_m506502194
Lpb:__ZN9Texture2DD2Ev
OZ:__GLOBAL__sub_I_runtime_geometry_lump_cpp
A5d:_ArrayList_Remove_m3941780739
KBg:__Z69RuntimeInvoker_Void_t1841601450_SByte_t454417549_TimeSpan_t3430258949PFvvEPK10MethodInfoPvPS4_
xGc:__Z19UpdateProceduralTplIL27ParticleSystemCurveEvalMode0EEvRK22DualMinMax3DPolyCurvesS3_R23ParticleSystemParticlesRKN4math8float3x3E
fZg:_ConstructorBuilder_not_created_m2150488017
Isg:__Z63RuntimeInvoker_Char_t3454481338_Int16_t4041245914_RuntimeObjectPFvvEPK10MethodInfoPvPS4_
CG:__ZNSt3__26vectorIiNS_9allocatorIiEEE6insertENS_11__wrap_iterIPKiEERS5_
Obj:_Uri_AppendQueryAndFragment_m2358658590
Cgh:_Mesh_GetIndicesImpl_m2398977086
$q:__ZN13dynamic_arrayIhLj1EE18resize_initializedEjRKh12ResizePolicy
IEh:_InvokableCallList_AddListener_m786891050
Mxa:__ZN17PersistentManager27GetLoadErrorMessageFromPathERKN4core12basic_stringIcNS0_20StringStorageDefaultIcEEEE
fGd:_DecoderReplacementFallbackBuffer_Fallback_m1790184670
im:_glGenRenderbuffers
l2j:__ZN6il2cpp6icalls8mscorlib6System2IO6MonoIO19GetCurrentDirectoryEPi
QEd:_String_GetHashCode_m931956593
wAb:__ZN14PlayerSettings23VirtualRedirectTransferER17RemapPPtrTransfer
Fxk:_emscripten_glGetIntegerv__wrapper
sP:__ZN12AudioManager31GetCurrentSpatializerDefinitionEv
$wb:__ZN12MeshRenderer16UpdateCachedMeshEv
PHb:__Z19TransferField_ArrayI14SafeBinaryRead27Converter_SimpleNativeClassI8GradientEEvRK23StaticTransferFieldInfoR31RuntimeSerializationCommandInfoRT0_
W3j:__ZN6il2cpp2vm5Image9GetCorlibEv
zy:__ZNK27StateMachineBehaviourPlayer25FireStateMachineBehaviourEiiN7mecanim12statemachine19StateMachineMessageE
QHi:_ScrollRectEvent__ctor_m2283981448
pBg:__Z52RuntimeInvoker_Single_t2076509932_Single_t2076509932PFvvEPK10MethodInfoPvPS4_
ZNg:__Z109RuntimeInvoker_Single_t2076509932_RuntimeObject_RuntimeObject_Single_t2076509932_ILayoutElementU26_t440254879PFvvEPK10MethodInfoPvPS4_
bcf:_Enumerator_VerifyState_m3913376581_AdjustorThunk
yVf:_NameObjectCollectionBase_System_Collections_ICollection_CopyTo_m810189168
eUc:__ZN6b2Body13ResetMassDataEv
F6c:_UNITY_FT_Stream_GetUShort
iBa:__ZN13GfxDeviceGLES14DisableScissorEv
a1h:__ZL71ReliabilityContractAttribute_t1625655220_CustomAttributesCacheGeneratorP21CustomAttributesCache
age:_Decimal_op_Explicit_m1986696267
tPh:_Dictionary_2_System_Collections_ICollection_CopyTo_m3578539931_gshared
bXg:_Assembly_GetModules_m2242070953
eIe:_NumberFormatter_AppendDecimalString_m3532330813
Rc:_glVertexAttrib4f
KFg:__Z94RuntimeInvoker_RuntimeObject_RuntimeObject_Int32_t2071877448_SByte_t454417549_SByte_t454417549PFvvEPK10MethodInfoPvPS4_
eoe:_Environment_GetFolderPath_m1849163024
X1e:_ASN1_Add_m2540239672
QZc:__ZN12b2BroadPhase13QueryCallbackEi
ase:_Array_InternalArray__ICollection_Remove_TisInt16_t4041245914_m3380378727_gshared
Xjh:_PlayableHandle_GetInputCount_m3249715311_AdjustorThunk
I4f:_MethodDictionary_CopyTo_m1721788774
Dld:__ZN21UnityAnalyticsManagerD0Ev
GQi:_SinkProviderData__ctor_m1828480392
eLd:_RaycastResult_ToString_m2233441736_AdjustorThunk
Kfh:_Mathf_Sin_m831310046
bgk:_GC_set_hdr_marks
DWa:__Z17SetupObjectMatrixRK10Matrix4x4fi
MBd:_SecurityFrame_ToString_m1282306399
M$e:_SimpleCollator_MatchesBackwardCore_m1884994267
Kkg:_TimeSpan_From_m1249538749
g$e:_SimpleCollator_GetSortKey_m1317491197
Cmc:__Z43Object_CUSTOM_DoesObjectWithInstanceIDExisti
B1:__ZN13RuntimeStaticINSt3__23mapINS0_4pairIPcS3_EEPFbPvR14SafeBinaryReadE20smaller_tstring_pairIPKcENS0_9allocatorINS2_IKS4_S9_EEEEEELb0EE13StaticDestroyES5_
n4g:_MonoEvent_GetCustomAttributes_m3899596098
Afe:_Convert_ToSByte_m3295168715
Y2c:_open_face
F3b:__ZZL31RegisterOtherRendererPropertiesR22GenericPropertyBindingEN30Wrapper_RendererReceiveShadows13SetFloatValueEPvf
fjd:__Z17RegisterModule_UIv
kWe:_UnmanagedMemoryStream_Flush_m3305300000
fgk:_GC_printf
Gzh:_Camera_FireOnPreRender_m24116662
Rmg:_TypeLoadException_GetObjectData_m2885802706
VBa:__ZN9GfxDevice24CreateRenderDepthSurfaceE9TextureIDiiii16TextureDimension17DepthBufferFormat18SurfaceCreateFlags
M9f:_ObjectManager_DoFixups_m835924385
m7f:_RemotingServices_CreateWellKnownServerIdentity_m3390048085
pJ:__ZN4FMOD5Sound11setUserDataEPv
ATb:__ZN14SafeBinaryRead21TransferSTLStyleArrayINSt3__26vectorIN9ShaderLab19SerializedSubShaderENS1_9allocatorIS4_EEEEEEvRT_17TransferMetaFlags
m2j:__ZN6il2cpp6icalls8mscorlib6System2IO6MonoIO17GetFileAttributesEP12Il2CppStringPi
tw:__ZN27AnimationLayerMixerPlayable13SetInputCountEi
jJf:_ARC4Managed_KeySetup_m73384687
BRa:__ZNK25SingleBlockMemoryFileData4SizeEv
mie:_DateTime_Equals_m2562884703
ZA:__ZN9BlobWrite8TransferIN7mecanim12statemachine18StateMachineMemoryEEEvRT_PKc17TransferMetaFlags
YM:__ZL50UnityAudioEffect_InternalSetFloatParameterCallbackP14FMOD_DSP_STATEif
s6j:__ZNK15dense_hashtableINSt3__24pairIK10KeyWrapperIP12Il2CppObjectEN6il2cpp2gc9CachedCCWEEES5_NS7_5utils11PointerHashIS3_EEN14dense_hash_mapIS5_S9_SD_NS5_14EqualsComparerINS0_8equal_toIS4_EEEENS0_9allocatorISA_EEE9SelectKeyESI_SK_E3endEv
qij:_Vector3_MoveTowards_m1358638081
wgb:__ZN17LowLevelAllocator4FreeEPvj
hae:_KeyMarker__cctor_m2057880225
_Dj:__ZN15dense_hashtableINSt3__24pairIK10KeyWrapperIPK22Il2CppGenericParameterEP11Il2CppClassEES6_N6il2cpp5utils11PointerHashIS4_EEN14dense_hash_mapIS6_S9_SE_NS6_14EqualsComparerINS0_8equal_toIS5_EEEENS0_9allocatorISA_EEE9SelectKeyESJ_SL_E9copy_fromERKSO_j
KKe:_TextInfo_get_ListSeparator_m3426465394
iSe:_FileStream_BeginWrite_m3895959548
kPf:_Context_set_RecordProtocol_m1968834768
Z7:__ZL19StaticCleanupPlayerPv
x$f:_X509Certificate2Enumerator_MoveNext_m1861665712
y6b:__ZN13PlayableGraph4StopEv
Aug:__Z87RuntimeInvoker_RuntimeObject_RuntimeObject_RuntimeObject_RuntimeObject_SByte_t454417549PFvvEPK10MethodInfoPvPS4_
kca:__ZN15dense_hashtableINSt3__24pairIKN4core12basic_stringIcNS2_20StringStorageDefaultIcEEEEP11AssetBundleEES6_20StringHash32FunctionIS6_EN14dense_hash_mapIS6_S9_SC_NS0_8equal_toIS6_EENS0_9allocatorISA_EEE9SelectKeyESF_SH_ED2Ev
qig:_Monitor_Monitor_wait_m3813798368
RFd:_DecoderExceptionFallbackBuffer_Fallback_m3457210607
Ngb:__ZN9Behaviour10DeactivateE19DeactivateOperation
vDh:_Display_get_renderingWidth_m2127568366
Gwf:_Collection_1_System_Collections_IList_get_Item_m2836259259_gshared
uxh:_Debug_LogWarning_m2503577968
jwa:__ZN13StreamingInfo8TransferI14SafeBinaryReadEEvRT_
Srh:_AnimatorControllerPlayable_GetBoolString_m2522782124
ZTb:__ZN15dense_hashtableINSt3__24pairIKiN4core17string_with_labelILi1EEEEEi18SInt32HashFunctionN14dense_hash_mapIiS5_S7_NS0_8equal_toIiEE13stl_allocatorIS6_L18MemLabelIdentifier1ELi16EEE9SelectKeyESA_SD_E15insert_noresizeERKS6_
MMc:__Z22EvaluateRandomGradientIL12GradientMode0ELS0_0EEN4math4pix4ERK23OptimizedMinMaxGradientRKNS1_7_float4ES8_
hCb:__ZN14SafeBinaryRead21TransferSTLStyleArrayINSt3__26vectorIN4core12basic_stringIcNS3_20StringStorageDefaultIcEEEE13stl_allocatorIS7_L18MemLabelIdentifier12ELi16EEEEEEvRT_17TransferMetaFlags
V$c:__GLOBAL__sub_I_runtime_dynamics_lump_cpp
eWc:__ZN17CapsuleCollider2D13PrepareShapesER13dynamic_arrayIP7b2ShapeLj4EERK10Matrix4x4f
B$f:_X509Store_Close_m2412711366
wF:__Z25HumanPoseMaskFromBodyMaskRK13dynamic_arrayIjLj4EE
qsh:_AnimatorControllerPlayable_SetInteger_m881630854_AdjustorThunk
C3b:__Z43InitializeRendererAnimationBindingInterfacev
L6:__ZL26DestroyGameObjectRecursiveR10GameObjectR11BatchDelete
EEi:_CullStateChangedEvent__ctor_m4025397477
sgk:_GC_allochblk_nth
vig:_Mutex_ReleaseMutex_m2143813124
gog:_UInt32_System_IConvertible_ToSByte_m604037412_AdjustorThunk
P2b:__Z7HaloTexP9Texture2DPhiiii
Rtk:dynCall_i
Bye:_Array_InternalArray__ICollection_CopyTo_TisKeyValuePair_2_t3749587448_m2750720485_gshared
Hzh:_Camera_FireOnPostRender_m94860165
pS:__ZN17AudioCustomFilter4InitEv
ulj:_X509Certificate__cctor_m2984068893
EEe:_Component_GetComponents_TisRuntimeObject_m1186222966_gshared
_sk:dynCall_f
xLb:__Z35Transfer_Blittable_FixedBufferFieldI24GenerateTypeTreeTransferjEvRK29SerializationCommandArgumentsR31RuntimeSerializationCommandInfo
hnb:__ZN8Playable13SetInputCountEi
nsk:dynCall_v
MTe:_Path__cctor_m3685888661
Tje:_Decimal_System_IConvertible_ToDateTime_m4247760250_AdjustorThunk
r2e:_BitConverterLE_ULongFromBytes_m2583105400
TKa:__ZN7ApiGLES14TextureSamplerEjjRK24GfxTextureSamplingParams17TextureColorSpace
kOh:_Dictionary_2_ToTKey_m965425080_gshared
_jb:__ZN6Camera23VirtualRedirectTransferER14SafeBinaryRead
thf:_List_1_System_Collections_IList_Insert_m2838947798_gshared
Jkk:__ZNSt3__26vectorINS_12basic_stringIDsNS_11char_traitsIDsEENS_9allocatorIDsEEEENS4_IS6_EEE8__appendEj
Jkg:_TimeSpan_FromDays_m2859053398
eSj:__ZN6il2cpp2vm4Type11IsEmptyTypeEPK10Il2CppType
zod:__ZN11UnityEngine7Connect13ConnectConfig11ConfigValueD2Ev
fFa:__ZNSt3__26__treeINS_12__value_typeIjP14DataBufferGLESEENS_19__map_value_compareIjS4_NS_4lessIjEELb1EEENS_9allocatorIS4_EEE7destroyEPNS_11__tree_nodeIS4_PvEE
E6b:__ZN13PlayableGraph15SetPrepareStageE13DirectorStage
Hb:invoke_viiiiiiii
RWe:_MissingMemberException__ctor_m2869542203
doj:_CachedInvokableCall_1__ctor_m3238306320_gshared
X5a:__ZNK6Camera16GetCullingMatrixEv
Cng:_UInt32_Parse_m3371984903
vnf:_List_1_Find_m160737912_gshared
lbj:_Uri_EnsureAbsoluteUri_m1892758054
fqb:__ZN16LightmapSettings5ResetEv
yQa:__ZN12FileAccessor4ReadEyPvPy
npc:__Z42Register_UnityEngine_Event_get_commandNamev
d5d:_ArrayList_ThrowNewArgumentOutOfRangeException_m3795973535
F7i:_Regex_Init_m1873144192
v2e:_BitConverterLE_ToDouble_m516016818
z6:__ZNK15FileSystemEntry6ExistsEv
Gxb:__ZNK9Transform21GetLocalToWorldMatrixER10Matrix4x4f
bhj:_Transform_TransformDirection_m1639585047
wKf:_EncryptedPrivateKeyInfo__ctor_m3398795484
iK:__ZN13AudioListener23VirtualRedirectTransferER19StreamedBinaryWriteILb0EE
KCa:__ZN13GfxDeviceGLES11CopyTextureE9TextureIDS0_
Ydc:__Z72Register_UnityEngine_AssetBundleCreateRequest_DisableCompatibilityChecksv
zwk:_emscripten_glViewport__wrapper
kKg:__Z47RuntimeInvoker_RuntimeObject_Single_t2076509932PFvvEPK10MethodInfoPvPS4_
vRi:_Context__cctor_m3895126354
Qcd:_tt_size_select
dW:__ZN11UnityEngine15CloudWebService17SessionEventQueue15RestoreFromFileER12FileAccessorPvy
nAb:__ZN14PlayerSettingsD2Ev
pNc:__ZN14ParticleSystem16AssignRayBudgetsEv
$Mc:__Z19UpdateWholeSheetTplIL27ParticleSystemCurveEvalMode2EEvfRK11MinMaxCurveS3_RK23ParticleSystemParticlesPf
IRe:_FileStream_get_Length_m2265080501
Ylg:_Type_type_is_assignable_from_m1620694099
gfk:_GC_reclaim_all
cVc:__ZN10ClipperLib15FirstIsBottomPtEPKNS_5OutPtES2_
waa:__ZN13PlayableGraph14DestroyOutputsEv
uSi:_ContextAttribute_GetPropertiesForNewContext_m4007241045
yf:___syscall122
_Hf:_Kernel_Subtract_m2224959291
TNi:_ResourceSet__ctor_m2566914412
bUc:__ZN19CompositeCollider2D22AddColliderToCompositeEP10Collider2DRK13dynamic_arrayIP7b2ShapeLj4EE
rsh:_AnimatorControllerPlayable_SetInteger_m3338355659
cJf:_ASN1Convert_ToDateTime_m2305963290
fyd:_SymmetricAlgorithm_Finalize_m1665128997
dS:__ZN9AudioClip16EnableLegacyModeEv
wvh:_AnimatorStateInfo_IsName_m4069203550
ifc:__Z52Register_UnityEngine_Camera_INTERNAL_CALL_RaycastTryv
gcb:__ZN13sorted_vectorINSt3__24pairIN4core12basic_stringIcNS2_20StringStorageDefaultIcEEEES6_EEN10vector_mapIS6_S6_27compare_tstring_insensitiveIS6_E13stl_allocatorIS7_L18MemLabelIdentifier37ELi16EEE13value_compareESD_E10insert_oneERKS7_
Fce:_Convert_ToByte_m791636053
D3i:_InternalEnumerator_1_get_Current_m2986222582_AdjustorThunk
$Df:_ReadOnlyCollection_1_System_Collections_IList_RemoveAt_m2372993063_gshared
ttk:dynCall_iifi
tcc:__ZN18ScriptingArguments13CopyFromOtherERKS_
Rfh:_Mathf_Ceil_m3621406599
Y8c:_ps_hints_close
e5b:__Z16CreateRenderLoopR6Camera
m$:_tlsf_create
H4i:_DefaultComparer_Compare_m4039941311_gshared
oKh:_Enumerator_MoveNext_m2534596951_AdjustorThunk
vUc:__ZN10ClipperLib7ClipperC1Ei
cDb:__ZN13MonoBehaviour23VirtualRedirectTransferER18StreamedBinaryReadILb0EE
hVb:__ZN9ShaderLab20SerializedSubProgramC2ERKS0_
rxd:_SHA256Managed_ProcessBlock_m1064908669
Cqk:__ZNK10__cxxabiv121__vmi_class_type_info27has_unambiguous_public_baseEPNS_19__dynamic_cast_infoEPvi
Age:_Convert_ToUInt64_m2215781574
Plj:_X509Certificate_VerifySignature_m4020723406
Nmg:_TypeInitializationException_GetObjectData_m2244451030
Gpe:_CompareInfo_LastIndexOf_m2978196696
R2e:_DSAManaged_Generate_m3166917081
PGh:_Enumerator_VerifyCurrent_m3330382363_AdjustorThunk
RIi:_ScrollRect_StopMovement_m1824352159
Al:_emscripten_glGetActiveUniform
bOc:__ZL24GenerateParticleGeometryIL24ParticleSystemRenderMode3ELb1ELb0EL25ParticleSystemRenderSpace0EEvPfRK22ParticleSystemTempDataRK26ParticleSystemRendererDataRK21ParticleSystemModulesRK23ParticleSystemParticlesRK31ParticleSystemParticlesTempData
zzf:_ReadOnlyCollection_1_System_Collections_IList_Contains_m2320811592_gshared
Mka:__ZN16RenderTextureMap5QueryEPK17RenderSurfaceBase
YVe:_UnexceptionalStreamWriter_Write_m186237617
EIi:_ScrollRect_UpdateScrollbars_m3921404746
gAk:_emscripten_glUniform4iv__wrapper
h2d:_Boolean_CompareTo_m1086129598_AdjustorThunk
Q3b:__ZN8Material8GetFloatEN9ShaderLab16FastPropertyNameE
$xh:_AudioPlayableOutput__ctor_m2971183853
A4c:_psnames_module_class_pic_free
snc:__Z11GetGUIStatev
xg:_pthread_key_create
cLg:__Z61RuntimeInvoker_Boolean_t3825574718_Int32_t2071877448_IntPtr_tPFvvEPK10MethodInfoPvPS4_
s5d:_ArrayList_Clear_m3834604134
Eg:_emscripten_glGetObjectParameterivARB
lna:__ZN15SerializeTraitsI10ColorRGBAfE8TransferI14SafeBinaryReadEEvRS0_RT_
qLj:__ZN6il2cpp2vm13MetadataCache27GetEventDefinitionFromIndexEi
d8:__ZN22BuiltinResourceManager13StaticDestroyEPv
mCe:_Array_Resize_TisCustomAttributeTypedArgument_t1498197914_m3055365808_gshared
MPc:__ZNK14b2CapsuleShape11ComputeMassEP10b2MassDataf
E6:__ZN10GameObject17GetComponentIndexEPN5Unity9ComponentE
ntb:__ZN14SafeBinaryRead21TransferSTLStyleArrayI13dynamic_arrayI7SubMeshLj4EEEEvRT_17TransferMetaFlags
zCd:_Single_IsNegativeInfinity_m2615809279
SNe:_Int32_GetTypeCode_m3811463295_AdjustorThunk
eNf:_CipherSuiteFactory_GetSsl3SupportedCiphers_m2476597368
iXf:_IPv6Address_Fill_m1824197512
Eed:__ZNK13TextRendering4Font11GetMaterialEv
MM:__ZN29AudioEffectInternalDefinition9CreateDSPEPN4FMOD6SystemEPvPfP23UnityAudioAmbisonicDataPP25UnityAudioSpatializerData
ted:_UNITY_tt_face_vary_cvt
dNj:__ZNK6il2cpp5utils10functional6FilterINSt3__212basic_stringIcNS3_11char_traitsIcEENS3_9allocatorIcEEEENS0_13VmStringUtils21CaseSensitiveComparerEEclIPKcEEbRKT_
Fnc:__Z28DidLoadAllAssembliesCallbackv
Mbb:__ZN35RegisterRuntimeInitializeAndCleanup22ExecuteInitializationsEv
HXc:__Z14b2TimeOfImpactP11b2TOIOutputPK10b2TOIInput
TGe:_GameObject_GetComponents_TisRuntimeObject_m3618562997_gshared
ssa:__ZN23PreloadManagerOperation14SetFinalTimingEffff
i:DYNAMICTOP_PTR
cRd:_Dropdown_SetupTemplate_m1416189897
ZWa:__Z11CopyTextureP7TextureiiS0_ii
jAb:__ZN13BuildSettings8TransferI18StreamedBinaryReadILb0EEEEvRT_
KFi:_PositionAsUV1__ctor_m412270210
e$b:__ZN10GameObject15InitializeClassEv
Aag:_SerializationInfo_GetInt16_m3549836657
ahc:__Z38Renderer_Get_Custom_PropSortingLayerIDP12Il2CppObject
xBi:__ZL90StencilMaterial_t1630303189_CustomAttributesCacheGenerator_StencilMaterial_Add_m1745413071P21CustomAttributesCache
Gre:_Array_InternalArray__ICollection_Contains_TisWorkRequest_t1154022482_m865286315_gshared
Qme:_Double_Equals_m920556135_AdjustorThunk
lIc:__Z18MagnitudeUpdateTplIL27ParticleSystemCurveEvalMode3EEvRK11MinMaxCurveR23ParticleSystemParticlesjjRKN4math7_float4E
Fbe:_Stack_Push_m284336154
sWd:_InputField_set_caretBlinkRate_m3521089516
Zhe:_DateTime_Add_m4237489122
wBb:__ZN15ResourceManager10Dependency8TransferI14SafeBinaryReadEEvRT_
Fyh:_AudioSource_PlayOneShot_m286472761
Kek:_GC_extend_size_map
M5i:_Comparer_1_System_Collections_IComparer_Compare_m637596782_gshared
mN:__ZN4FMOD6System9setDriverEi
R5j:__ZN6il2cpp8metadataL24RecursiveGenericDepthForEPK17Il2CppGenericInst
k5b:__ZNK9Transform11GetRotationEv
o_f:_X509Certificate2_Find_m833446211
Xgc:__Z36Register_UnityEngine_GameObject_Findv
v9c:_pshinter_get_globals_funcs
yLb:__Z18Transfer_BlittableI24GenerateTypeTreeTransferLb0EyEvRK29SerializationCommandArgumentsR31RuntimeSerializationCommandInfo
tha:__ZN8Material14CreateMaterialER6ShaderN6Object9HideFlagsEb
C3e:_KeyPairPersistence_FromXml_m2310151202
lec:__Z60Register_UnityEngine_AsyncOperation_get_allowSceneActivationv
wje:_DBNull_System_IConvertible_ToUInt64_m2919804476
Jok:_fread
amb:__ZNK17InstancedPropInfo15RenderInstancesERK15RenderNodeQueuePK17BatchInstanceDataj17ShaderChannelMaskPFbPvS6_iR11MeshBuffersR16DrawBuffersRangeRiSC_E
jqc:__Z31GUIStyle_CUSTOM_GetFontInternalP12Il2CppObject
IAc:__ZN14ParticleSystem23VirtualRedirectTransferER24GenerateTypeTreeTransfer
g8c:_tt_cmap12_char_map_binary
YAg:__Z51RuntimeInvoker_Double_t4078015681_Int16_t4041245914PFvvEPK10MethodInfoPvPS4_
h5c:_ft_outline_glyph_transform
wha:__Z25GetBuiltinResourceManagerv
Z$i:_InternalEnumerator_1_System_Collections_IEnumerator_get_Current_m439366097_AdjustorThunk
a6j:__ZN6il2cpp2gc8GCHandle15GetTargetHandleEP12Il2CppObjectii
Uh:_llvm_trap
s1:__ZNSt3__27__sort5IRNS_6__lessIN12_GLOBAL__N_114ParamNameIndexES3_EEPS3_EEjT0_S7_S7_S7_S7_T_
hQe:_Directory_CreateDirectory_m3561886598
ffk:_get_index
RYa:__Z26scripting_method_get_class18ScriptingMethodPtr
qOf:_ClientSessionInfo_get_Valid_m3589823308
B4e:_PKCS1_Sign_v15_m2137018891
pte:_SetPropertyUtility_SetClass_TisRuntimeObject_m3524554928_gshared
D8b:__ZN17CollisionMeshData20VertexDataHasChangedEv
jMj:__ZN6il2cpp2vm21ThreadPoolCompartment12DetachThreadEP12Il2CppThread
jCa:__ZN13GfxDeviceGLES30SetBackBufferColorDepthSurfaceEP17RenderSurfaceBaseS1_
kfg:_Latin1Encoding_GetBytes_m1067304501
Vrc:__Z52Register_UnityEngine_GUIUtility_get_systemCopyBufferv
e7b:__ZN16StreamedResource8TransferI18StreamedBinaryReadILb0EEEEvRT_
Lhc:__Z49Register_UnityEngine_Input_get_imeCompositionModev
YTb:__ZN15dense_hashtableINSt3__24pairIKiN4core17string_with_labelILi1EEEEEi18SInt32HashFunctionN14dense_hash_mapIiS5_S7_NS0_8equal_toIiEE13stl_allocatorIS6_L18MemLabelIdentifier1ELi16EEE9SelectKeyESA_SD_E12resize_deltaEjj
mEf:_ReadOnlyCollection_1__ctor_m2387481411_gshared
T6a:__ZNK20OcclusionCullingData22GetStaticRendererCountEv
s6c:_UNITY_tt_face_free_ps_names
v0a:__ZNK6Camera17GetSkyboxMaterialEv
iWc:__ZN17CapsuleCollider2D8TransferI19StreamedBinaryWriteILb0EEEEvRT_
nCj:_GameController_incrementarPuntuancion_m933419577
pBk:_emscripten_glDisableVertexAttribArray__wrapper
LYi:_InternalEnumerator_1_get_Current_m3259181373_AdjustorThunk
rmk:_strtox_545
I_i:_InternalEnumerator_1_get_Current_m789289033_gshared
Z3c:__ZNSt3__26vectorIN20TextRenderingPrivate8FontImpl13CharacterInfoE13stl_allocatorIS3_L18MemLabelIdentifier34ELi16EEE6insertENS_11__wrap_iterIPKS3_EERS9_
lGe:_Array_InternalArray__get_Item_TisUILineInfo_t3621277874_m1432166059_gshared
Uge:_CurrentSystemTimeZone_GetTimeZoneData_m2086117940
bxb:__ZN12MeshRenderer18CalculateLocalAABBER4AABBRKS_RK4Mesh
Pkj:_X509CertificateCollection_GetEnumerator_m3994741635
$Bg:__Z242RuntimeInvoker_Boolean_t3825574718_RuntimeObject_RuntimeObject_RuntimeObject_SByte_t454417549_DateTimeU26_t3448131235_DateTimeOffsetU26_t3212986406_RuntimeObject_Int32_t2071877448_SByte_t454417549_BooleanU26_t3168250738_BooleanU26_t3168250738PFvvEPK10MethodInfoPvPS4_
DLe:_Guid_ToString_m3927110175
qgb:__ZN21UnityDefaultAllocatorI17LowLevelAllocatorE8AllocateEji
M2i:_InternalEnumerator_1_get_Current_m889125315_gshared
HVd:_Image_get_preferredHeight_m1045199335
lid:__ZL28InitializeUIScriptingClassesv
Wdc:__Z43AssetBundleRequest_Get_Custom_PropAllAssetsP12Il2CppObject
_ra:__ZN10UnityScene10ClearRootsEv
mSa:__ZN12HandlerChain10AtomicMoveER13FileEntryDataS1_
qte:_SetPropertyUtility_SetStruct_TisBoolean_t3825574718_m752301298_gshared
Saa:__ZZN15DirectorManager15InitializeClassEvEN48PreLateUpdateDirectorDeferredEvaluateRegistrator7ForwardEv
J0:__ZN20SpeedTreeWindManager6UpdateEf
DBh:_Color_op_Multiply_m325555950
naj:_Literal_GetWidth_m1285678191
Xde:_Decimal_ThrowAtPos_m3318712794
b5e:_RSAManaged_GetPaddedValue_m4394397
GC:__ZN7mecanim9animation20CreateAvatarConstantEPNS_8skeleton8SkeletonEPNS1_13SkeletonPoseTIN4math4trsXEEES8_PNS_5human5HumanES3_iRKS6_RNS_6memory9AllocatorE
WVe:_UnexceptionalStreamWriter__ctor_m2209699189
Yxh:_AudioMixerPlayable_INTERNAL_CALL_SetAutoNormalizeInternal_m2425179629
Hjf:_List_1_Find_m970100220_gshared
qcj:_Transform_INTERNAL_get_rotation_m2427701365
Lse:_Array_InternalArray__ICollection_Remove_TisVector2_t2243707579_m3881494282_gshared
wwb:__ZN14CompressedMesh8TransferI19StreamedBinaryWriteILb0EEEEvRT_
mXg:_AssemblyFileVersionAttribute__ctor_m2026149866
Udc:__Z58AssetBundleCreateRequest_CUSTOM_DisableCompatibilityChecksP12Il2CppObject
sze:_Array_InternalArray__ICollection_CopyTo_TisUILineInfo_t3621277874_m2142954044_gshared
u1g:_TypeBuilder_SetParent_m387557893
cdk:__ZNK6il2cpp5utils13VmStringUtils21CaseSensitiveComparerclERKNSt3__212basic_stringIcNS3_11char_traitsIcEENS3_9allocatorIcEEEEPKc
yNc:__ZZN14ParticleSystem15InitializeClassEvEN29FunctorImpl_208kDidModifyMesh4CallEPviR11MessageData
xHe:_DateTimeFormatInfo_GetEraName_m1437894363
Yze:_Array_InternalArray__Insert_TisLabelFixup_t4090909514_m3927736182_gshared
N0f:_X509KeyUsageExtension_Encode_m3100824560
Clb:__ZN24GenerateTypeTreeTransfer8TransferI21PlatformShaderDefinesEEvRT_PKc17TransferMetaFlags
eBb:__ZNK15ResourceManager22GetTypeVirtualInternalEv
sQh:_DefaultComparer_GetHashCode_m1728348656_gshared
KXd:_InputField_MouseDragOutsideRect_m3758282095
DFi:_Outline_ModifyMesh_m3796381413
P0c:__ZN13TextRendering4Font23VirtualRedirectTransferER24GenerateTypeTreeTransfer
T1f:_Interpreter_PopulateGroup_m4098755954
IKf:_PrivateKeyInfo_DecodeRSA_m919734506
Vhc:__ZNSt3__27__sort4IRNS_6__lessI11KeyframeTplIfES3_EEPS3_EEjT0_S7_S7_S7_T_
hfb:__ZL16MouseMoveHandleriPK20EmscriptenMouseEventPv
YKe:_GuidParser_Reset_m3389485794
uT:__ZN11AudioSource15InitializeClassEv
Fpf:_Enumerator_System_Collections_IEnumerator_get_Current_m1270503615_gshared
$9g:_GUILayoutGroup_CalcHeight_m1454440153
bYi:_InternalEnumerator_1_System_Collections_IEnumerator_get_Current_m3315293493_gshared
Ish:_AnimatorControllerPlayable_ResetTriggerID_m1114520954
rZa:__ZN11HaloManager17RenderGeometryJobEP25DynamicVBOGeometryJobDataj
GOe:_Int64_Parse_m4214159959
R_i:_InternalEnumerator_1_System_Collections_IEnumerator_get_Current_m4023948615_gshared
HE:__ZNSt3__227__insertion_sort_incompleteIRPFbN7mecanim9animation13MuscleIndexIdES3_EPS3_EEbT0_S8_T_
VGd:_BaseInput_get_mousePresent_m3571192771
BBk:_emscripten_glBlendEquation__wrapper
d_j:__ZN15dense_hashtableINSt3__24pairIK10KeyWrapperIP11Il2CppClassES4_EES5_N6il2cpp8metadata16SZArrayClassHashEN14dense_hash_mapIS5_S4_SA_NS5_14EqualsComparerINS9_19SZArrayClassCompareEEENS0_9allocatorIS7_EEE9SelectKeyESE_SG_E13set_empty_keyERKS7_
vpk:__ZNSt3__212basic_stringIcNS_11char_traitsIcEENS_9allocatorIcEEE6__initEPKcj
Yj:_emscripten_set_fullscreenchange_callback
m4e:_KeyPairPersistence__IsUserProtected_m3417764903
o1f:_CategoryUtils_CategoryFromName_m226887453
Wke:_Decimal_op_Division_m1099836590
QY:__ZN11UnityEngine15CloudWebService14DataDispatcher22ResetNetworkRetryIndexEv
bk:_emscripten_glDrawArrays
cUa:__ZZ23InitPlayerLoopCallbacksvEN43EarlyUpdateExecuteMainThreadJobsRegistrator7ForwardEv
rY:__ZN11UnityEngine15CloudWebService19SessionEventManagerC2Ev
aRe:_File_Open_m1543461971
UTi:_LogicalCallContext_GetObjectData_m104142736
P9d:_Hashtable_KeyEquals_m1433874944
A7i:_QuickSearch_GetShiftDistance_m2364008966
jgj:_TouchScreenKeyboard_get_text_m538529702
Jsd:__ZN13RuntimeStaticI14dynamic_bitsetLb0EE16StaticInitializeEPv
cda:__ZNSt3__222__merge_move_constructIRNS_4lessIN4core12basic_stringIcNS2_20StringStorageDefaultIcEEEEEENS_11__wrap_iterIPS6_EESB_EEvT0_SC_T1_SD_PNS_15iterator_traitsISC_E10value_typeET_
Zec:__Z41Register_UnityEngine_Camera_get_eventMaskv
Lih:_Physics2D_Internal_RaycastNonAlloc_m1874107548
CT:__ZL19CleanupModule_Audiov
Auj:_GenericComparer_1_Compare_m2516380588_gshared
IQj:__ZN6il2cpp2os4File10DeleteFileERKNSt3__212basic_stringIcNS2_11char_traitsIcEENS2_9allocatorIcEEEEPi
iQe:_File_Exists_m1685968367
nJc:__Z9UpdateTplIL27ParticleSystemCurveEvalMode4EEvRK11MinMaxCurveS3_S3_R23ParticleSystemParticlesjjRKN4math8float3x3E
$Mj:__ZN6il2cpp6icalls8mscorlib6System8MonoType8GetFieldEP20Il2CppReflectionTypeP12Il2CppStringi
kJj:__ZN15dense_hashtableINSt3__24pairIK10KeyWrapperIN6il2cpp5utils13dynamic_arrayIPK10Il2CppTypeLj4EEEEPFvvEEESA_NS3_8metadata19Il2CppSignatureHashEN14dense_hash_mapISA_SD_SG_NSA_14EqualsComparerINSF_22Il2CppSignatureCompareEEENS0_9allocatorISE_EEE9SelectKeyESK_SM_E5clearEv
Pwh:_AudioClipPlayable__ctor_m1273139759_AdjustorThunk
Uxk:_emscripten_glVertexAttrib3fv__wrapper
MGf:_Comparison_1_BeginInvoke_m1549337842_gshared
Pmj:_X509Crl_VerifySignature_m25189948
ote:_PlayableOutputHandle_IsPlayableOutputOfType_TisScriptPlayableOutput_t1666207618_m804587587_AdjustorThunk
p0b:__ZNK28MonoBehaviourPropertyBinding13GetFloatValueERKN11UnityEngine9Animation10BoundCurveE
Uag:_RuntimeFieldHandle_Equals_m1202966418_AdjustorThunk
xBb:__ZN14SafeBinaryRead21TransferSTLStyleArrayINSt3__26vectorI4PPtrI6ObjectE13stl_allocatorIS5_L18MemLabelIdentifier51ELi16EEEEEEvRT_17TransferMetaFlags
Hrh:_AnimatorControllerPlayable_INTERNAL_CALL_GetFloatID_m1278007428
Xgk:_GC_generic_malloc
Qmh:_Rect_op_Equality_m2793663577
x0b:__ZNSt3__26vectorI16MessageForwarder13stl_allocatorIS1_L18MemLabelIdentifier6ELi8EEE6resizeEj
PJh:_Enumerator_System_Collections_IEnumerator_get_Current_m2160496972_AdjustorThunk
BMa:__Z19GetVertexFormatSize12VertexFormat
Ftb:__ZN24GenerateTypeTreeTransfer8TransferINSt3__26vectorI13dynamic_arrayI8Vector2fLj4EENS1_9allocatorIS5_EEEEEEvRT_PKc17TransferMetaFlags
gGh:_Enumerator_System_Collections_IDictionaryEnumerator_get_Value_m120250090_gshared
kda:__ZN15dense_hashtableINSt3__24pairIKN4core12basic_stringIcNS2_20StringStorageDefaultIcEEEE13dynamic_arrayI4PPtrI6SpriteELj4EEEES6_20StringHash32FunctionIS6_EN14dense_hash_mapIS6_SC_SF_NS0_8equal_toIS6_EE13stl_allocatorISD_L18MemLabelIdentifier79ELi16EEE9SelectKeyESI_SL_E9set_valueEPSD_RKSD_
n6i:_MatchCollection_TryToGet_m2938913145
TBk:_emscripten_glIsTexture__wrapper
Jlh:_Ray_ToString_m2019179238_AdjustorThunk
vtd:_KeyedHashAlgorithm_get_Key_m3672929432
PBa:__ZN9GfxDevice25ReleaseAsyncCommandHeaderEPN21GfxDeviceAsyncCommand3ArgE
Yuh:_AnimatorControllerPlayable_INTERNAL_CALL_PlayInternal_m1154456170
KJf:_MD2Managed_HashCore_m248147901
Z_c:__ZN17Physics2DSettings15InitializeClassEv
pMa:__ZN21UniformBufferTFMethod20IsBoneCountSupportedEi
wCj:_U3CsoltarEnemigoU3Ec__Iterator0_Dispose_m3705953579
$uh:_AnimatorControllerPlayable_Play_m3939684325_AdjustorThunk
yph:_AnimationClipPlayable_INTERNAL_CALL_GetAnimationClipInternal_m4096750434
lJg:__Z101RuntimeInvoker_Void_t1841601450_RuntimeObject_Single_t2076509932_Int32_t2071877448_Single_t2076509932PFvvEPK10MethodInfoPvPS4_
RSe:_MemoryStream__ctor_m4073175573
Zla:__ZN6Shader27MarkShaderStateNotSupportedEPKS_
wDe:_Array_Sort_TisVector4_t2243707581_TisVector4_t2243707581_m917148421_gshared
Tmg:_UInt16_System_IConvertible_ToBoolean_m887616848_AdjustorThunk
Nxi:__ZL81AnimationTriggers_t3244928895_CustomAttributesCacheGenerator_m_HighlightedTriggerP21CustomAttributesCache
uGc:__Z9UpdateTplIL27ParticleSystemCurveEvalMode4EEvRK11MinMaxCurveR23ParticleSystemParticlesjjj
cab:__ZN10GameObject21EnsureUniqueTransformEbb
RLa:__ZN25TransformFeedbackSkinning8SkinMeshERK18VertexStreamSourceP9GfxBufferP17GPUSkinPoseBufferS4_ii17ShaderChannelMaskb
k3j:__ZN15dense_hashtableINSt3__24pairIK10KeyWrapperIP14Il2CppIUnknownEjEES5_N6il2cpp5utils11PointerHashIS3_EEN14dense_hash_mapIS5_jSB_NS5_14EqualsComparerINS0_8equal_toIS4_EEEENS0_9allocatorIS7_EEE9SelectKeyESG_SI_E12resize_deltaEjj
lgg:_UnicodeEncoding_GetCharCount_m3719064538
d2d:_Boolean_CompareTo_m3691698947
tQh:_DefaultComparer_Equals_m3262686272_gshared
PNb:__Z22TransferField_NonArrayI19StreamedBinaryWriteILb0EE27Converter_SimpleNativeClassI8GUIStyleEEvRK23StaticTransferFieldInfoR31RuntimeSerializationCommandInfoRT0_
uUe:_StreamReader_ReadToEnd_m3871366821
NJi:_Selectable_set_interactable_m63718297
K_c:__ZZN10Collider2D15InitializeClassEvEN28FunctorImpl_100kLayerChanged4CallEPviR11MessageData
SEe:_GameObject_GetComponentsInParent_TisRuntimeObject_m3757051886_gshared
rze:_Array_InternalArray__ICollection_CopyTo_TisUICharInfo_t3056636800_m2132994790_gshared
Wp:__Z17CalculateGlobalSM23TransformAccessReadOnlyRKN4math7_float4E
$l:_emscripten_glLoadIdentity
_bb:__ZNSt3__26vectorINS_4pairIN4core12basic_stringIcNS2_20StringStorageDefaultIcEEEEPK17MessageIdentifierEENS_9allocatorISA_EEE26__swap_out_circular_bufferERNS_14__split_bufferISA_RSC_EEPSA_
oce:_Decimal_op_GreaterThan_m1625379433
j5a:__Z29CullShadowCastersWithoutUmbraR9IndexListRK17CullingParametersPK4AABBjj
Tij:_Vector3_get_down_m2372302126
qq:__ZN4AABB8TransferI14SafeBinaryReadEEvRT_
dji:__ZL86Object_t1021602117_CustomAttributesCacheGenerator_Object_FindObjectsOfType_m2121813744P21CustomAttributesCache
yCg:__Z79RuntimeInvoker_RuntimeObject_SByte_t454417549_SByte_t454417549_SByte_t454417549PFvvEPK10MethodInfoPvPS4_
VWc:__ZN16PhysicsManager2D26GetGameObjectForRaycastHitERK12RaycastHit2D
Khh:_PlayerConnection_ConnectedCallbackInternal_m2685675347
WLe:_Int16_System_IConvertible_ToDecimal_m2010889121_AdjustorThunk
Cse:_Array_InternalArray__ICollection_Remove_TisPlayableBinding_t2498078091_m2632165671_gshared
Tqb:__ZN18StreamedBinaryReadILb0EE21TransferSTLStyleArrayI13dynamic_arrayI12LightmapDataLj4EEEEvRT_17TransferMetaFlags
$ic:__Z49Register_UnityEngine_MonoBehaviour_StartCoroutinev
eeb:__Z11MD5ToStringPh
cbf:_Enumerator_MoveNext_m2625246500_AdjustorThunk
xhc:__Z38Input_Get_Custom_PropCompositionStringv
Ehg:_UTF8Encoding_GetPreamble_m4179999478
Dhh:_ConnectionChangeEvent__ctor_m616483304
OFj:__ZN6il2cpp2vm5Class19GetArrayElementSizeEPK11Il2CppClass
had:_cf2_builder_moveTo
sqg:_ValueType_InternalEquals_m4068150072
zW:__ZN9JSONWrite8TransferIN4core12basic_stringIcNS1_20StringStorageDefaultIcEEEEEEvRT_PKc17TransferMetaFlags
PJi:_Selectable_set_isPointerInside_m375338048
Tgg:_UTF7Encoding_GetByteCount_m253528135
zKd:_PointerInputModule_CopyFromTo_m2185451090
VXc:__ZN24b2ChainAndPolygonContact6CreateEP9b2FixtureiS1_iP16b2BlockAllocator
wRe:_FileNotFoundException_GetObjectData_m3405690481
Epk:__ZNSt3__212basic_stringIcNS_11char_traitsIcEENS_9allocatorIcEEE6resizeEjc
r8a:__ZN6Camera15SetOrthographicEb
eT:__ZN11AudioModule30GetOrCreateDSPFromCustomFilterEP17AudioCustomFilter
dWa:__ZN19AtomicPageAllocatorD2Ev
Kn:FUNCTION_TABLE_viiiiiiiiiiiiii
DBc:__ZN11NoiseModule16CheckConsistencyEv
M3j:__ZN6il2cpp6icalls8mscorlib6System13GlobalizationL20culture_lcid_locatorEPKvS5_
Rtf:_Collection_1_Add_m3182287887_gshared
MJd:_PointerEventData_set_useDragThreshold_m2778439880
xob:__ZNK12CubemapArray16ExtractImageImplEP14ImageReferenceNS0_8BlitModeEbi
_ic:__Z63Register_UnityEngine_MonoBehaviour_StartCoroutine_Auto_Internalv
Xac:__ZN10systeminfo24GetSystemLanguageCultureEi
Rfg:_StringBuilder_Append_m3618697540
mWc:__ZN16CircleCollider2D5ResetEv
bJi:_ScrollRect_get_normalizedPosition_m1640825682
Ozd:_SecurityElement_IsValidAttributeName_m2201790420
CAb:__ZN10VRSettings8TransferI14SafeBinaryReadEEvRT_
$mg:_UInt16_System_IConvertible_ToDecimal_m984067306_AdjustorThunk
Tfj:_Texture2D_INTERNAL_CALL_GetPixelBilinear_m570286059
k5c:_UNITY_FT_Outline_Get_CBox
$xe:_Array_InternalArray__ICollection_Add_TisUInt16_t986882611_m2791161149_gshared
ka:invoke_viifiiii
yGh:_Enumerator_Reset_m3115320746_gshared
QHe:_NumberFormatter_FormatDecimal_m1435371940
__e:_SimpleCollator_GetTailContraction_m1037943844
Uud:_RC2CryptoServiceProvider_CreateEncryptor_m252199767
krj:_U3CStartU3Ec__Iterator0_MoveNext_m2339115502_gshared
jKg:__Z165RuntimeInvoker_Void_t1841601450_RuntimeObject_Int32_t2071877448_Int32_t2071877448_RuntimeObject_Int32_t2071877448_Single_t2076509932_Single_t2076509932_RuntimeObjectPFvvEPK10MethodInfoPvPS4_
GWa:__ZN22PerThreadPageAllocator14AcquireNewPageEj
CS:__ZN24AudioScriptBufferManager15DidReloadDomainEv
BMc:__Z9UpdateTplIL22MinMaxGradientEvalMode0EL12GradientMode0ELS1_0EEvRK23ParticleSystemParticlesP11ColorRGBA32RK14MinMaxGradientRK23OptimizedMinMaxGradientRK8Vector2f
Gxh:_AudioClipPlayable_Seek_m2908742681
h1a:__ZN6Camera13ClearNoSkyboxEb
iOe:_Int64_System_IConvertible_ToInt64_m989981560_AdjustorThunk
Qif:_List_1_CheckIndex_m2576265846_gshared
pMg:__Z110RuntimeInvoker_Boolean_t3825574718_Vector2_t2243707579_Vector2_t2243707579_Single_t2076509932_SByte_t454417549PFvvEPK10MethodInfoPvPS4_
Rmh:_Rect_GetHashCode_m559954498
Xvh:_Application_CallLowMemory_m626389230
BIj:__ZNK15dense_hashtableI10KeyWrapperIPK17Il2CppGenericInstES4_N6il2cpp8metadata21Il2CppGenericInstHashEN14dense_hash_setIS4_S7_NS4_14EqualsComparerINS6_24Il2CppGenericInstCompareEEENSt3__29allocatorIS4_EEE8IdentityESB_SE_E12test_deletedEj
V$d:_Array_combsort_m2486643569
x9:__ZNSt3__27__sort5IR17CompareInstanceIDPP6ObjectEEjT0_S6_S6_S6_S6_T_
Zib:__ZNSt3__26vectorI17SortingLayerEntryNS_9allocatorIS1_EEE12__move_rangeEPS1_S5_S5_
IQh:_DefaultComparer_Equals_m145577182_gshared
VEa:__ZN18GfxFramebufferGLES10InvalidateEv
J7e:_SmallXmlParser_SkipWhitespaces_m2923234398
eke:_Decimal_System_IConvertible_ToSingle_m1736019752_AdjustorThunk
VHa:__ZN4crnd11crnd_deleteINS_13prefix_coding14decoder_tablesEEEvPT_
ggj:_TouchScreenKeyboard_Open_m2760130151
p0:__ZN10MemoryPoolD2Ev
QOi:_GCHandle__ctor_m2952050298_AdjustorThunk
JIc:__ZNK11NoiseModule14CalculateNoiseILi2ELb1ELb1EEEvR23ParticleSystemParticlesRK27ParticleSystemReadOnlyStatejjRKN4math7_float4E
hoc:__ZNSt3__26__treeINS_12__value_typeIN4core12basic_stringIcNS2_20StringStorageDefaultIcEEEEN5IMGUI12NamedControlEEENS_19__map_value_compareIS6_S9_NS_4lessIS6_EELb1EEENS_9allocatorIS9_EEE7destroyEPNS_11__tree_nodeIS9_PvEE
ySf:_SslClientStream_get_SelectedClientCertificate_m1580018944
hde:_DateTime_FromTicks_m75527956
U2e:_KeyGeneratedEventHandler_Invoke_m4220935979
yZg:_ILGenerator__ctor_m3365621387
Nhg:_CompressedStack_Capture_m179370023
Ile:_DebuggerTypeProxyAttribute__ctor_m3082078467
Mse:_Array_InternalArray__ICollection_Remove_TisVector3_t2243707580_m3881497481_gshared
mok:___mmap
xcc:__ZN9Scripting26RaiseArgumentNullExceptionEPKc
v$:__ZL18InternalLogConsolePKcz
gnk:_lseek
yif:_List_1_System_Collections_IList_set_Item_m2267202349_gshared
vcf:_Enumerator_System_Collections_IEnumerator_get_Current_m3866069145_AdjustorThunk
huf:_Collection_1_ConvertItem_m2972284337_gshared
D4:__Z37scripting_method_get_nth_argumenttype18ScriptingMethodPtri
vP:__ZN11AudioSource16UpdatePauseStateEv
e9:__ZL52StaticUnregisterSceneLoadedCallback_LightmapSettingsPv
Pw:__ZN7mecanim5human25HumanPoseAddAdditiveLayerERNS0_9HumanPoseERKS1_fRKNS_6bitsetILj70EEE
ajc:__Z48Register_UnityEngine_MonoBehaviour_StopCoroutinev
HWf:_RemoteCertificateValidationCallback_Invoke_m2237177542
CUd:_HorizontalOrVerticalLayoutGroup_set_childForceExpandWidth_m1140293254
Vkk:__ZN6il2cpp5utils25NativeDelegateMethodCache17AddNativeDelegateEPFvvEPK10MethodInfo
GVf:_NameObjectCollectionBase_BaseAdd_m964300824
Pqe:_Array_InternalArray__ICollection_Contains_TisKeyValuePair_2_t1174980068_m650645929_gshared
s0a:__ZN27DeviceViewProjMatricesStateD2Ev
Zvd:_RNGCryptoServiceProvider_RngOpen_m2238023214
kYg:_CustomAttributeData_GetCustomAttributes_m4124612360
JKb:__Z18Transfer_BlittableI24GenerateTypeTreeTransferLb0E8Vector3fEvRK29SerializationCommandArgumentsR31RuntimeSerializationCommandInfo
J4j:__ZN15dense_hashtableINSt3__24pairIK10KeyWrapperINS1_IPKcS4_EEEiEES6_24NamespaceAndNamePairHashN14dense_hash_mapIS6_iS9_NS6_14EqualsComparerI26NamespaceAndNamePairEqualsEENS0_9allocatorIS8_EEE9SelectKeyESD_SF_E14squash_deletedEv
L0c:__ZNK13TextRendering4Font22GetTypeVirtualInternalEv
d$j:__ZN6il2cpp2vm6Thread16RequestInterruptEP12Il2CppThread
nUf:_TlsStream_get_Position_m3551173234
pRi:_LeaseManager_SetPollTime_m3137304074
Y8d:_Hashtable_CalcPrime_m1835281409
k1c:__ZNSt3__26vectorINS_4pairINS1_IttEEfEENS_9allocatorIS3_EEE8__appendEj
Fva:__ZN6prcoreL10inner_flipILj2EEEvPhS1_j
w1g:_TypeBuilder_has_ctor_method_m3449702467
Euc:__ZN9JSONWrite8TransferIbEEvRT_PKc17TransferMetaFlags
p$d:_Array_CreateInstance_m679102425
Nfb:__ZN12TLSAllocatorI14StackAllocatorED0Ev
TOi:_GCHandle_GetTarget_m2056570211
Bzb:__ZN11TimeManager16CheckConsistencyEv
EAc:__ZNK14ParticleSystem22GetTypeVirtualInternalEv
NZa:__ZN21GfxDeviceAsyncCommand10ArgScratch15ThreadedCleanupEv
vVc:__ZN10ClipperLib14IntersectPointERNS_5TEdgeES1_RNS_8IntPointE
K_e:_MSCompatUnicodeTable_IsJapaneseSmallLetter_m2541532635
qHf:_BigInteger_GenerateRandom_m1878468830
iKb:__ZN12NativeBufferI27Converter_UnityEngineObjectE15SetupForWritingER9ArrayInfo
dTd:_Graphic_UpdateGeometry_m2431537946
De:_glTexImage3D
zT:__Z20RegisterModule_Audiov
_Mf:_TlsCipherSuite__ctor_m2983563913
Zma:__ZNSt3__26vectorINS_4pairI11ShaderTagIDS2_EENS_9allocatorIS3_EEE6insertENS_11__wrap_iterIPKS3_EERS8_
L7j:__ZN6il2cpp2vm6Object13UnboxNullableEP12Il2CppObjectP11Il2CppClassPv
Me:_JS_SystemInfo_GetCurrentCanvasWidth
OBf:_ReadOnlyCollection_1_System_Collections_IList_Remove_m2668898250_gshared
Zbc:__ZL34GetComponentsImplementationRecurseILb1ELi0ELi1EEbR10GameObjectbRK17CompareParametersRK39GetComponentsImplementation_ReturnValue
Ygh:_Mesh_SetColors_m3438776703
r1j:__ZN6il2cpp2vm14PlatformInvoke30MarshalCSharpStringToCppStringEP12Il2CppString
t7j:__ZN6il2cpp2vm5Field10IsInstanceEP9FieldInfo
Xlg:_Type_GetTypeHandle_m2405042843
VAb:__ZN10VRSettings8TransferI18StreamedBinaryReadILb0EEEEvRT_
Tv:__ZN22AnimationMixerPlayable12MixerProcessEP35AnimationPlayableEvaluationConstantP32AnimationPlayableEvaluationInputP33AnimationPlayableEvaluationOutputM17AnimationPlayableFvS1_S3_S5_EPFvS1_S3_S5_ESA_PFvS5_S1_S3_S5_PN7mecanim16ValueArrayWeightEfEPFvS1_S3_S5_SD_fE
DZi:_InternalEnumerator_1_System_Collections_IEnumerator_get_Current_m1322273508_AdjustorThunk
kzc:__ZN31CollisionModulePropertyBindings13AddPropertiesER10vector_mapIi22ParticleModulePropertyNSt3__24lessIiEENS2_9allocatorINS2_4pairIiS1_EEEEE
_Fd:_DecoderFallbackException__ctor_m3081822699
JOe:_Int64_TryParse_m3093198325
qEg:__Z145RuntimeInvoker_Void_t1841601450_RuntimeObject_RuntimeObject_RuntimeObject_Int32_t2071877448_Int32_t2071877448_Int32_t2071877448_Int32_t2071877448PFvvEPK10MethodInfoPvPS4_
GMj:__ZN6il2cpp2vm10ThreadPool5QueueEP14Il2CppDelegatePPvS3_P12Il2CppObject
VNb:__Z19TransferField_ArrayI19StreamedBinaryWriteILb0EE27Converter_SimpleNativeClassI8GradientEEvRK23StaticTransferFieldInfoR31RuntimeSerializationCommandInfoRT0_
rRe:_FileLoadException_ToString_m319701103
ITe:_NullStream_Seek_m1809916110
SSc:__ZNK12b2WheelJoint16GetReactionForceEf
$ke:_Delegate_SetMulticastInvoke_m361277268
XGd:_BaseInput_GetMouseButtonUp_m32571233
aeg:_EncoderReplacementFallbackBuffer_get_Remaining_m2777488845
Ttb:__ZN7SubMesh8TransferI18StreamedBinaryReadILb0EEEEvRT_
whg:_UTF8Encoding_GetCharCount_m3557355060
hZi:_InternalEnumerator_1_System_Collections_IEnumerator_get_Current_m127456009_gshared
TBc:__ZN16CustomDataModule8TransferI14SafeBinaryReadEEvRT_
rf:_emscripten_glIsEnabled
LPb:__ZN18StreamedBinaryReadILb1EE21TransferSTLStyleArrayI13dynamic_arrayIdLj8EEEEvRT_17TransferMetaFlags
Kgc:__Z45Register_UnityEngine_GameObject_get_transformv
M3:__Z29scripting_class_instance_size17ScriptingClassPtr
gTc:__ZN7b2World12DestroyJointEP7b2Joint
cBj:_Func_2_Invoke_m2929712329_gshared
_Sf:_SslHandshakeHash_initializePad_m4132246594
M$f:_X509CertificateCollection_get_Item_m848456018
TY:__ZN11UnityEngine15CloudWebService19SessionEventManager26ProcessEventQueueJobStaticEPv
c9i:_AnchorInfo_get_IsUnknownWidth_m3747592836
gyb:__ZL19SpriteMeshExtractorPv17ShaderChannelMaskiR11MeshBuffersR16DrawBuffersRangeRiS5_
COg:__Z99RuntimeInvoker_Void_t1841601450_Int32_t2071877448_Int32_t2071877448_Int32_t2071877448_RuntimeObjectPFvvEPK10MethodInfoPvPS4_
Gzc:__ZN27ForceModulePropertyBindings13GetFloatValueERK14ParticleSystemi
lZ:__ZN11UnityEngine15CloudWebService19SessionEventManager37OnTimerExpiredPerformArchiveJobStaticEPv
Py:__ZN23AnimationPlayableOutputC2EjP13PlayableGraph
Sfj:_Texture2D_GetPixelBilinear_m3063031185
Vt:__ZN7mecanim9animation16CreateClipMemoryEPKNS0_4ClipEiRNS_6memory9AllocatorE
Xlk:__ZN6il2cpp6icalls8mscorlib6System10Reflection4Emit11DerivedType21create_unmanaged_typeEP20Il2CppReflectionType
rF:__ZN7mecanim12statemachine13GetStateIndexEPKNS0_20StateMachineConstantEj
z8f:_FormatterConverter_ToInt32_m1004171952
u_d:_Array_System_Collections_IList_set_Item_m4290470392
i7f:_RemotingConfiguration_RegisterActivatedServiceType_m4003543022
Rkc:__Z39Register_UnityEngine_Sprite_get_texturev
iRi:_ConfigHandler_GetNotNull_m2454680251
KCj:__ZL10rescale128PyS_Piiiii
RJ:__ZN9AudioClip7WWWSeekEPvjS0_
qre:_Array_InternalArray__ICollection_Contains_TisUInt32_t2149682021_m672455245_gshared
Ipg:_UIntPtr_System_Runtime_Serialization_ISerializable_GetObjectData_m3481735378
u7:__ZL32StaticInitializeIUnityInterfacesPv
mZa:__Z13CameraProjectRK8Vector3fRK10Matrix4x4fS4_RK5RectTIiERS_b
QCb:__ZN30RuntimeInitializeOnLoadManager15ClassMethodInfo8TransferI19StreamedBinaryWriteILb0EEEEvRT_
t8:__Z22CreateMutexLockedStackv
xhe:_DateTime_System_IConvertible_ToType_m3821835592
g3f:_IntervalCollection_get_Item_m1667788970
wza:__ZNSt3__27__sort5IRNS_4lessIN22BuiltinResourceManager8ResourceEEEPS3_EEjT0_S7_S7_S7_S7_T_
gfg:_Latin1Encoding_GetByteCount_m2812921286
$Ua:__ZN9ShaderLab11ShaderStateD2Ev
Oje:_Decimal_System_IConvertible_ToByte_m3432160840
$eg:_UTF7Encoding__ctor_m1941256679
nEb:__Z23TransferScriptingObjectI24GenerateTypeTreeTransferEvRT_18ScriptingObjectPtr17ScriptingClassPtrPK15MonoScriptCache
C8f:_BinaryCommon__cctor_m3619690968
wmj:_X509Chain_FindCertificateRoot_m589250107
BNb:__ZL17Transfer_GUIStyleI19StreamedBinaryWriteILb0EELb0EEvRK29SerializationCommandArgumentsR31RuntimeSerializationCommandInfo
Chj:_UnityString_Format_m2949645127
E8d:_Comparer_GetObjectData_m3370677985
Oqj:_UnityEvent_4_GetDelegate_m2704961864_gshared
jSa:__ZNK12HandlerChain6TargetERK13FileEntryDataR15FileSystemEntry
geg:_Encoding__ctor_m3985582722
w9f:_ObjectManager_RaiseOnDeserializingEvent_m1841526046
TEd:_String_CreateString_m560359261
Y5c:_UNITY_FT_Init_Class_tt_service_get_cmap_info
tdg:_DSA_ToXmlString_m1014346120
smk:___shlim
pxd:_SHA256Managed__ctor_m1410575277
wMc:__ZN22ParticleSystemRenderer8TransferI18StreamedBinaryReadILb0EEEEvRT_
lTc:__ZN16b2BlockAllocator4FreeEPvi
Bpe:_CompareInfo_internal_index_managed_m859405335
z1d:_Boolean_System_IConvertible_ToDateTime_m2613818037_AdjustorThunk
JLj:__ZNSt3__211__tree_nextIPNS_16__tree_node_baseIPvEEEET_S5_
sDf:_ReadOnlyCollection_1_System_Collections_IList_Clear_m2240307498_gshared
m5j:__ZN15dense_hashtableI10KeyWrapperIP18Il2CppGenericClassES3_N6il2cpp8metadata22Il2CppGenericClassHashEN14dense_hash_setIS3_S6_NS3_14EqualsComparerINS5_25Il2CppGenericClassCompareEEENSt3__29allocatorIS3_EEE8IdentityESA_SD_E14squash_deletedEv
X7j:__ZN6il2cpp2vm11MethodStack17GetStackFramesRawEv
qra:__ZN6prcoreL17RemapGenericFloatI17TexFormatRGBAHalf17TexFormatRGBFloatEEvPKNS_9InnerInfoE
O8f:_BinaryFormatter_NoCheckDeserialize_m1968202401
vTd:_Graphic_CrossFadeAlpha_m4067047552
MMg:__Z92RuntimeInvoker_Void_t1841601450_RuntimeObject_RuntimeObject_Color32_t874517518_RuntimeObjectPFvvEPK10MethodInfoPvPS4_
Fkc:__Z35Sprite_Get_Custom_PropPixelsPerUnitP12Il2CppObject
Cyc:__ZN9rapidjson12PrettyWriterI16TempBufferWriterNS_4UTF8IcEES3_13JSONAllocatorE10StartArrayEv
DIj:__ZNSt3__26__sortIRN6il2cpp5utils11collections13ArrayValueMapIPK10Il2CppType17Il2CppInteropData26InteropDataToTypeConverterNS1_8metadata14Il2CppTypeLessENSA_26Il2CppTypeEqualityComparerEE12SortComparerEPS8_EEvT0_SH_T_
YEb:__ZN11PreloadDataD2Ev
_rd:__ZN15DownloadHandler14ProcessHeadersERK9HeaderMap
O_c:__ZZN10Collider2D15InitializeClassEvEN38FunctorImpl_104kCompositeColliderAdded4CallEPviR11MessageData
jc:invoke_iifi
L_c:__ZZN10Collider2D15InitializeClassEvEN31FunctorImpl_101kDidAddComponent4CallEPviR11MessageData
Uaa:__ZZN15DirectorManager15InitializeClassEvEN44PostLateUpdateDirectorRenderImageRegistrator7ForwardEv
lZh:__ZL79Hashtable_t909839986_CustomAttributesCacheGenerator_Hashtable__ctor_m3742489710P21CustomAttributesCache
WRc:__ZNK16b2PrismaticJoint16GetReactionForceEf
pgh:_Mesh__ctor_m2975981674
hNi:_VertexHelper_AddUIVertexStream_m3599763288
Ofh:_Mathf_Abs_m1942863256
gSh:_EqualityComparer_1_System_Collections_IEqualityComparer_Equals_m1565968086_gshared
PAe:_Array_InternalArray__set_Item_TisSlot_t2022531261_m3811041838_gshared
Twa:__ZN15SharedLightData15UpdateTransformERK9Transform
ovd:_RijndaelTransform__cctor_m1393306207
SSd:_Graphic_get_defaultMaterial_m1022773737
B9c:_UNITY_FT_Init_Class_pscmaps_interface
WKi:_Slider_OnDidApplyAnimationProperties_m3202463395
BHg:__Z146RuntimeInvoker_Void_t1841601450_Vector2_t2243707579_Vector2_t2243707579_Single_t2076509932_ContactFilter2D_t1672660996_RaycastHit2DU26_t4207306570PFvvEPK10MethodInfoPvPS4_
iGd:_EncoderExceptionFallback__ctor_m3203614411
mgc:__Z44Register_UnityEngine_RectOffset_get_verticalv
Amg:_Type_MakeGenericType_m973683242
ykk:__ZN6il2cpp2vm9LastError31InitializeLastErrorThreadStaticEv
p2b:__ZN13ProduceHelperI13RenderTextureLb0EE7ProduceE18MemLabelIdentifier18ObjectCreationMode
SOe:_Int64_ToString_m2785525583
fN:__ZN4FMOD6System17setSoftwareFormatEi17FMOD_SOUND_FORMATii18FMOD_DSP_RESAMPLER
B$g:_FieldBuilder_GetCustomAttributes_m291168515
dyh:_AudioPlayableOutput_INTERNAL_CALL_InternalSetTarget_m3274611424
N4g:_MonoGenericCMethod__ctor_m2520666358
rh:_JS_SystemInfo_GetCurrentCanvasHeight
$ih:_AudioPlayableGraphExtensions_InternalCreateAudioOutput_m433444197
NWi:_InternalEnumerator_1_System_Collections_IEnumerator_get_Current_m1313308902_gshared
z5f:_ReturnMessage_get_OutArgs_m299904174
Oma:__ZNK8Material22GetTypeVirtualInternalEv
_pc:__Z34GUIStyle_Get_Custom_PropFixedWidthP12Il2CppObject
$4e:_RSAManaged_get_PublicOnly_m2603845138
cke:_Decimal_System_IConvertible_ToSByte_m3745141000_AdjustorThunk
zak:__ZN6il2cpp2gc16GarbageCollector11GetWeakLinkEPPv
gYe:_MonoType_GetMethods_m353342170
Arg:__Z108RuntimeInvoker_Boolean_t3825574718_SByte_t454417549_RuntimeObject_Int32_t2071877448_ExceptionU26_t1467204777PFvvEPK10MethodInfoPvPS4_
I8j:__GLOBAL__sub_I_Console_cpp
gra:__ZN6prcoreL17RemapGenericFloatI14TexFormatRHalf17TexFormatRGBAHalfEEvPKNS_9InnerInfoE
DOj:__ZN6il2cpp2vm7Runtime11InvokeArrayEPK10MethodInfoPvP11Il2CppArrayPP15Il2CppException
eH:__Z71AnimatorControllerPlayable_CUSTOM_INTERNAL_CALL_PlayInFixedTimeInternalR9HPlayableiif
pJe:_GregorianCalendar_get_Eras_m4010603022
Ane:_Enum_System_IConvertible_ToUInt16_m1001858842
YNh:_Dictionary_2_make_pair_m394533803_gshared
Hdd:_Dual_Project
RI:__ZN9AudioClip23VirtualRedirectTransferER14SafeBinaryRead
RKa:__ZN4gles20EnsureTextureCreatedEP7ApiGLESP17RenderSurfaceGLES
h_d:_LayoutRebuilder_U3CRebuildU3Em__2_m3239837417
c_a:__ZN15ReplacementPass13PrepareSubsetEjRK10RenderNodeifRK17ShaderReplaceData
dke:_Decimal_System_IConvertible_ToSingle_m1736019752
MN:__Z32AudioMeasurement_GetTimeConstantff
X8j:__ZN6il2cpp2os6Thread10RunWrapperEPv
abk:__ZN6il2cpp8metadata11FieldLayout12LayoutFieldsEjjjRKNSt3__26vectorIPK10Il2CppTypeNS2_9allocatorIS6_EEEERNS1_15FieldLayoutDataE
Qsi:__ZL54ContextMenu_t2283362202_CustomAttributesCacheGeneratorP21CustomAttributesCache
M5a:__ZL27PrepareSceneNodesJobCombineP25ScheduleSceneNodesJobData
qSe:_Stream_EndWrite_m263497992
I4d:_Char_Parse_m2121403806
tAa:__ZN13GfxDeviceGLESD2Ev
V9:__ZN18AsyncUploadManager13StaticDestroyEPv
M_g:_EnumBuilder_GetConstructorImpl_m331611313
lTb:__ZN6Shader7SetNameEPKc
Jca:__ZN14dense_hash_mapIN4core12basic_stringIcNS0_20StringStorageDefaultIcEEEE13dynamic_arrayI4PPtrI6SpriteELj4EE20StringHash32FunctionIS4_ENSt3__28equal_toIS4_EE13stl_allocatorINSC_4pairIKS4_S9_EEL18MemLabelIdentifier79ELi16EEE13set_empty_keyERSH_
WPd:_DefaultControls_SetParentAndAlign_m3048898502
fbb:__ZN19CustomRenderTexture22HandleBoundaryWrappingERKNS_14UpdateZoneInfoEj
FLj:__ZN6il2cpp2vm13MetadataCache32GenerateCustomAttributeTypeCacheEi
$$f:_X509Chain__cctor_m826131835
Rwf:_Collection_1_InsertItem_m1073626529_gshared
Iz:__ZNK11UnityEngine9Animation30GenericBindingValueArrayUniqueclERKNS0_14GenericBindingES4_
s0d:_ArrayTypeMismatchException__ctor_m1923871345
Qcg:_CspParameters__ctor_m3051314030
Hsh:_AnimatorControllerPlayable_ResetTrigger_m758725835
Mdd:_Direct_Move_Y
Kdd:_Direct_Move_X
i$f:_X509ChainElement_Set_m2634474339
bEh:_Event_get_isKey_m1145918225
v1d:_Boolean_System_IConvertible_ToByte_m1443044213_AdjustorThunk
Mi:_glClearDepthf
c2b:__ZN19SkinnedMeshRenderer7GetMeshEv
CZb:__ZN19RuntimeSceneManager14GetActiveSceneEv
aOj:__ZN6il2cpp6icalls8mscorlib6SystemL8IsStaticEPK9EventInfo
Xfc:__Z29RectOffset_Set_Custom_PropTopP12Il2CppObjecti
Tlc:__Z57Register_UnityEngine_Transform_INTERNAL_get_localPositionv
ksh:_AnimatorControllerPlayable_GetIntegerID_m2624476059
h4a:__ZNSt3__27__sort4IR15ReflProbeSorterPP15ReflectionProbeEEjT0_S6_S6_S6_T_
Mkb:__ZN16GraphicsSettings10SmartResetEv
Bmd:__Z55Register_UnityEngine_Analytics_CustomEventData_AddInt16v
KEi:_MaskableGraphic_Cull_m3130802047
MAh:_CanvasRenderer_Clear_m2419751129
JRf:_RecordProtocol_MapV2CipherCode_m4064211604
qFd:_ASCIIEncoding_GetByteCount_m2696039881
wRf:_ReceiveRecordAsyncResult_SetComplete_m2441107665
SAh:_CanvasRenderer_AddUIVertexStream_m1988414477
vmb:__ZN20SphericalHarmonicsL28TransferI19StreamedBinaryWriteILb0EEEEvRT_
gOd:_CanvasUpdateRegistry_InternalUnRegisterCanvasElementForLayoutRebuild_m3740187734
M0b:__ZNK28RectTransformPropertyBinding9BindValueER6ObjectRKN11UnityEngine9Animation14GenericBindingERNS3_10BoundCurveE
g_g:_DerivedType_get_AssemblyQualifiedName_m2010127631
Iwb:__ZN4Mesh14UploadMeshDataEb
T_i:_InternalEnumerator_1_System_Collections_IEnumerator_get_Current_m4023948615_AdjustorThunk
B4a:__ZN14qsort_internal5QSortIP16RenderObjectDatai25RenderPrePassObjectSorterEEvT_S4_T0_T1_
D8e:_ArgIterator_Equals_m2415994310
kFg:__Z85RuntimeInvoker_Char_t3454481338_RuntimeObject_Int32U26_t455636984_CharU26_t1894467670PFvvEPK10MethodInfoPvPS4_
t2b:__ZN14RenderSettings12CleanupClassEv
Nkc:__Z43DataUtility_CUSTOM_INTERNAL_CALL_GetPaddingP12Il2CppObjectR8Vector4f
rIa:__ZN18AsyncUploadManager15DoDeCruncherJobEP26FileAssetUploadInstruction
fDa:__ZN9GfxDevice15ImmediateNormalEfff
eeg:_EncoderReplacementFallbackBuffer_GetNextChar_m1811006007
Ecj:_Vector2__ctor_m3067419446
R9a:__ZN15SerializeTraitsI13dynamic_arrayIN10GameObject13ComponentPairELj4EEE19ResizeSTLStyleArrayERS3_i18MemLabelIdentifier
SLb:__ZN13GUIStyleState8TransferI24GenerateTypeTreeTransferEEvRT_
F5:__ZN20dynamic_block_vectorI14FileIdentifierE22push_back_no_constructEv
mva:__ZN9Texture3D23VirtualRedirectTransferER14SafeBinaryRead
Tfg:_StringBuilder_Append_m1462406979
UUb:__ZNSt3__26vectorIN9ShaderLab20SerializedSubProgram16TextureParameterENS_9allocatorIS3_EEE8__appendEj
Wpb:__ZN9Texture2D13UploadTextureEi
Leg:_Type_GetType_m773255995
aKa:__ZN7ApiGLES9MapBufferEjN2gl12BufferTargetEllj
PFi:_RawImage__ctor_m527845386
gN:__ZN4FMOD6System19setSoftwareChannelsEi
dBe:_Array_InternalArray__set_Item_TisResourceCacheItem_t333236149_m2074358118_gshared
EHh:_Enumerator_MoveNext_m3349738440_gshared
MZf:_X500DistinguishedName_DecodeRawData_m3640767187
Xqe:_Array_InternalArray__ICollection_Contains_TisDouble_t4078015681_m2262383923_gshared
a2d:_Boolean_System_IConvertible_ToUInt64_m3594533761
oPg:__Z85RuntimeInvoker_Boolean_t3825574718_SpriteStateU26_t1330646292_SpriteState_t1353336012PFvvEPK10MethodInfoPvPS4_
Phc:__Z60Register_UnityEngine_Input_INTERNAL_set_compositionCursorPosv
Kki:__ZL51Collider_t3497673348_CustomAttributesCacheGeneratorP21CustomAttributesCache
rah:_GUISettings_Internal_GetCursorFlashSpeed_m3799968572
o0e:_BigInteger_get_Rng_m1268152318
tij:_Vector3_op_Division_m3315615850
Esk:dynCall_viiiif
SGc:__ZN14ParticleSystem12StartModulesER24ParticleSystemUpdateDataRK27ParticleSystemEmissionStatebRK8Vector3fRK10Matrix4x4fR23ParticleSystemParticlesjffjfjRjb
l4g:_MonoEvent_IsDefined_m3151861274
YWc:__ZN16PhysicsManager2D19ApplyParticleForcesER13dynamic_arrayI21BatchedColliderResultLj4EE
I8c:_Cubic_To
iI:__Z85Register_UnityEngine_Animations_AnimatorControllerPlayable_INTERNAL_CALL_SetTriggerIDv
DNf:_TlsStream_WriteInt24_m1660453494
Wec:__Z44Register_UnityEngine_Camera_get_farClipPlanev
FS:__ZNK12AudioManager15GetDSPBlockSizeEv
XBb:__ZNK17IAnimationBinding30CurveAttributeToSerializedPathERKN11UnityEngine9Animation10BoundCurveE
mLg:__Z87RuntimeInvoker_Color_t2020392075_Color_t2020392075_Color_t2020392075_Single_t2076509932PFvvEPK10MethodInfoPvPS4_
N6j:__ZN6il2cpp2gc16GarbageCollector14GetOrCreateCCWEP12Il2CppObjectRK10Il2CppGuid
R4j:__ZN6il2cpp2vm5Image21FromTypeNameParseInfoEPK11Il2CppImageRKNS0_17TypeNameParseInfoEb
kGa:__ZN17BufferManagerGLES13AcquireBufferEjN14DataBufferGLES11BufferUsageEb
Mbe:_Console_OpenStandardError_m3676373108
jWe:_UnmanagedMemoryStream_SetLength_m1805321486
JBc:__ZN18ColorBySpeedModule16CheckConsistencyEv
HOf:_Context_get_ProtocolNegotiated_m624488778
vgf:_List_1_System_Collections_IList_IndexOf_m1671340024_gshared
m0d:_SimpleEnumerator_MoveNext_m1696906961
fqd:__ZN16UnityAdsSettingsD0Ev
uPf:_Context_StartSwitchingSecurityParameters_m373522596
X5g:_MonoProperty_GetRequiredCustomModifiers_m576853384
eHa:__ZNK7ApiGLES10DebugLabelEN2gl10ObjectTypeEjPKc
swe:_Array_InternalArray__IndexOf_TisInt16_t4041245914_m1619355230_gshared
Hfk:_GC_push_marked
ZNe:_Int64_System_IConvertible_ToDateTime_m1002280174
Gce:_Convert_ToByte_m9159597
qmj:_X509Store_BuildCertificatesCollection_m4224672591
Okc:__Z38DataUtility_CUSTOM_Internal_GetMinSizeP12Il2CppObjectP13Vector2fIcall
s6b:__ZN8PlayableC2E17ScriptingClassPtr18DirectorPlayerType
KNi:_ResourceEnumerator_get_Key_m1012797265
VHe:_NumberFormatter_FormatPercent_m776769918
vPj:_il2cpp_class_has_attribute
oah:_GUISettings__ctor_m2453724887
Gjg:_Scheduler_ShrinkIfNeeded_m2186823111
Vp:__Z23CalculateGlobalRotation23TransformAccessReadOnly
g4:__Z27FindOrCreateMonoScriptCache17ScriptingClassPtr22InitScriptingCacheTypeP6Objecti
i$c:__Z23CleanupPhysicsManager2Dv
WQb:__Z18Transfer_BlittableI18StreamedBinaryReadILb0EELb1E8Vector3fEvRK29SerializationCommandArgumentsR31RuntimeSerializationCommandInfo
meh:_GUIUtility__cctor_m46116445
Uhd:__ZN2UI14CanvasRenderer13SyncVertexPtrER8JobFenceNS0_8SyncFlagE
x4:__Z35scripting_method_get_argument_count18ScriptingMethodPtr
jya:__ZN18AssetBundleManager18SortPreloadObjectsER13dynamic_arrayIiLj4EEb
Xmg:_UInt16_System_IConvertible_ToChar_m4055364664_AdjustorThunk
Jgj:_Transform_set_rotation_m3411284563
Ygc:__Z20Gradient_CUSTOM_InitP12Il2CppObject
Yrc:__Z48Register_UnityEngine_GUIUtility_Internal_ExitGUIv
DLc:__ZN12LightsModuleD0Ev
kjh:_Playable_GetPlayableType_m2389123558
Flj:_X509Certificate_get_RawData_m1262574599
L2d:_Byte_System_IConvertible_ToDouble_m4224320007
Q5a:__ZL21CullDynamicObjectsJobP14CullingJobDataj
mgd:__ZN2UI15ClearCanvasDataER8JobFenceRNS_10CanvasDataE
Ivf:_Collection_1__ctor_m2877526632_gshared
uXf:_IPAddress_ToString_m1462985652
SKh:_ValueCollection_System_Collections_Generic_ICollectionU3CTValueU3E_Clear_m3471385195_gshared
iHh:_Enumerator_get_CurrentKey_m1408186928_AdjustorThunk
Rbb:__ZN14ManagerContext17InitializeClassesEv
eFi:_MaskUtilities_GetRectMasksForClip_m1540508301
_hb:__ZN19StreamedBinaryWriteILb0EE21TransferSTLStyleArrayINSt3__26vectorI14ConstantStringNS2_9allocatorIS4_EEEEEEvRT_17TransferMetaFlags
nu:__ZN7mecanim5human20MaskHasRightFootGoalERKNS_6bitsetILj70EEE
zPb:__ZN18StreamedBinaryReadILb1EE21TransferSTLStyleArrayI31ArrayOfManagedObjectsTransfererEEvRT_17TransferMetaFlags
Fdf:_List_1_System_Collections_IList_IndexOf_m406088260_gshared
pHc:__Z22EvaluateRandomGradientIL12GradientMode0ELS0_0EEN4math4pix4ERK14MinMaxGradientRKNS1_7_float4ES8_
Yqg:_WeakReference_get_Target_m1672141897
V0e:_Kernel_DwordDivMod_m4066997639
n9c:_t1_hints_open
dDg:__Z68RuntimeInvoker_Boolean_t3825574718_DateTime_t693205669_RuntimeObjectPFvvEPK10MethodInfoPvPS4_
$yd:_X509Certificate_GetCertHash_m2299453268
sud:_MD5CryptoServiceProvider__ctor_m457716966
Oqe:_Array_InternalArray__ICollection_Contains_TisKeyValuePair_2_t888819835_m3819112676_gshared
mcj:_Transform_get_rotation_m1033555130
Mee:_Decimal_s64_m2965457432
Q8b:__Z18TransformPoints3x4RK10Matrix4x4fPK8Vector3fjPS2_ji
ysd:__ZN22UnityWebRequestManager21CreateUnityWebRequestEv
Lqc:__Z38Register_UnityEngine_GUIStyle_InitCopyv
aM:__ZN4FMOD7Channel11getUserDataEPPv
n6c:_UNITY_tt_face_load_gasp
zCc:__ZN14VelocityModule8TransferI24GenerateTypeTreeTransferEEvRT_
E3c:_ft_ansi_stream_close
nm:_JS_Sound_SetPitch
qzi:__ZL69InputField_t1631627530_CustomAttributesCacheGenerator_m_TextComponentP21CustomAttributesCache
jQj:_il2cpp_runtime_invoke_convert_args
qxc:__Z19TransferField_ArrayI8JSONRead27Converter_SimpleNativeClassI10RectOffsetEEvRK23StaticTransferFieldInfoR31RuntimeSerializationCommandInfoRT0_
OFh:_Enumerator_get_CurrentKey_m447338908_AdjustorThunk
ENf:_Context_get_SecurityProtocol_m1600902905
n2j:__ZN6il2cpp6icalls8mscorlib6System2IO6MonoIO11GetFileStatEP12Il2CppStringPNS3_8FileStatEPi
QDa:__ZN9GfxDevice33InsertCustomMarkerCallbackAndDataEPFviPvEiS0_j
e_a:__ZNK9ShaderLab9IntShader6GetTagE11ShaderTagIDb
m3a:__Z25CalculateShadowCasterCullbPK5PlaneRK10Matrix4x4fRK8Vector3fff9LightTypeS7_R16ShadowCasterCullPKb
ROj:_il2cpp_get_corlib
Etd:_HMAC_HashCore_m1869699062
PWg:_Assembly_GetTypes_m1317253146
iMe:_Int16_System_IConvertible_ToType_m2901377575_AdjustorThunk
kOe:_Int64_System_IConvertible_ToSByte_m253213816_AdjustorThunk
Oid:__ZN2UI14CanvasRenderer11SetMaterialEP8Materiali
EKd:_MouseState_SetButtonState_m2329922363
cRe:_FileStream__ctor_m3815606687
Yek:_GC_freehblk
zHe:_NumberFormatter_NumberToString_m668979517
kGf:_ReadOnlyCollection_1_System_Collections_IList_Remove_m2507730234_gshared
vKh:_Enumerator_System_Collections_IEnumerator_Reset_m2482663638_gshared
jcc:__ZN9Scripting35DestroyObjectFromScriptingImmediateEP6Objectb
L6a:__ZNK6Camera48AreVRStereoViewMatricesWithinSingleCullToleranceEv
gli:__ZL53Rigidbody2D_t502193897_CustomAttributesCacheGeneratorP21CustomAttributesCache
D6f:_RemotingServices_GetRemoteObject_m3663391550
oU:__Z64AudioMixerPlayable_CUSTOM_INTERNAL_CALL_SetAutoNormalizeInternalR9HPlayableh
zpf:_Queue_1_Peek_m1224538505_gshared
hyg:__Z105RuntimeInvoker_RuntimeObject_Int32_t2071877448_RuntimeObject_RuntimeObject_RuntimeObject_SByte_t454417549PFvvEPK10MethodInfoPvPS4_
Ned:__ZN20TextRenderingPrivate22ScriptingTextGenerator9InitVertsEi
wwe:_Array_InternalArray__IndexOf_TisRuntimeObject_m2440219229_gshared
Fc:invoke_iiiiiiiiiiiiiii
e9j:__ZN6il2cpp2os6Thread33UnregisterCurrentThreadForCleanupEv
MBc:__ZN13TriggerModule8TransferI14SafeBinaryReadEEvRT_
VBk:_emscripten_glIsRenderbuffer__wrapper
VGe:_GameObject_GetComponentsInParent_TisRuntimeObject_m3479568873_gshared
Cgd:__ZN2UI11CanvasGroup8TransferI19StreamedBinaryWriteILb0EEEEvRT_
Ulb:__ZNK20IntermediateRenderer8GetLayerEv
uOj:__ZN6il2cpp5utils9PathUtils7CombineIcEENSt3__212basic_stringIT_NS3_11char_traitsIS5_EENS3_9allocatorIS5_EEEERKSA_RKNS0_10StringViewIS5_EE
zsb:__ZN15QualitySettings8TransferI14SafeBinaryReadEEvRT_
nGj:__ZN14dense_hash_mapI10KeyWrapperIPK11Il2CppClassEPKcN6il2cpp5utils11PointerHashIS1_EENS4_14EqualsComparerINSt3__28equal_toIS3_EEEENSC_9allocatorINSC_4pairIKS4_S6_EEEEE13set_empty_keyERSI_
vIb:__ZN14SafeBinaryRead21TransferSTLStyleArrayI13dynamic_arrayIxLj8EEEEvRT_17TransferMetaFlags
WUe:_StringReader_CheckObjectDisposedException_m3099453260
YUf:_ListDictionary_System_Collections_IEnumerable_GetEnumerator_m2244736244
a5j:__ZNSt3__26vectorIN6il2cpp2vm5Image20EmbeddedResourceDataENS_9allocatorIS4_EEE21__push_back_slow_pathIS4_EEvOT_
dkk:__ZN6il2cpp2os9FastMutexD2Ev
oNg:__Z97RuntimeInvoker_Void_t1841601450_SByte_t454417549_SByte_t454417549_Int32_t2071877448_RuntimeObjectPFvvEPK10MethodInfoPvPS4_
Rve:_Array_IndexOf_TisCustomAttributeTypedArgument_t1498197914_m3666284377_gshared
v1e:_Kernel_AddSameSign_m2332657679
t3:__ZN14SerializedFile10ReadObjectEx18ObjectCreationModebPPK8TypeTreePbR6Object
Nqf:_Collection_1_System_Collections_IList_IndexOf_m3460849589_gshared
O8b:__ZN4Mesh12SetIndexDataEiiPKv16GfxPrimitiveTypei
Aza:__ZN14dynamic_bitset6resizeEjb
pHd:_BaseInputModule_FindCommonRoot_m2696088443
XW:__ZN11UnityEngine15CloudWebService10RestClientINS0_23WebRequestRestHeaderMapEE7SetDataEPKhj
hB:__ZN7mecanim8skeleton16SkeletonPoseCopyIN4math4trsXES3_EEvPKNS0_13SkeletonPoseTIT_EEPNS4_IT0_EE
oGj:__ZN14dense_hash_mapI10KeyWrapperIPK11Il2CppClassEPKcN6il2cpp5utils11PointerHashIS1_EENS4_14EqualsComparerINSt3__28equal_toIS3_EEEENSC_9allocatorINSC_4pairIKS4_S6_EEEEE15set_deleted_keyERSI_
OAa:__ZN9GfxDevice34SetStencilRefWhenStencilWasSkippedEi
sod:__ZN11UnityEngine7Connect13ConnectConfig20RestoreTimeoutConfigERK13dynamic_arrayIiLj4EEjRS3_
Ec:invoke_fi
Vik:__ZN6il2cpp6icalls8mscorlib6System10Reflection4Emit11TypeBuilder20create_runtime_classEP27Il2CppReflectionTypeBuilderS7_
u$:__ZL21InternalAssertConsolePKcz
Cc:invoke_ff
poh:_CustomEventData_Add_m3828492920
Nd:_emscripten_glVertexAttrib3f
hVj:__ZN30dense_hashtable_const_iteratorINSt3__24pairIK10KeyWrapperINS1_IPK11Il2CppImageP11Il2CppClassEEEjEES9_17ReflectionMapHashIS8_EN14dense_hash_mapIS9_jSD_NS9_14EqualsComparerINS0_8equal_toIS8_EEEENS0_9allocatorISB_EEE9SelectKeyESI_SK_EppEv
p4d:_Char_CompareTo_m3044885427
yga:__Z11UpdateInputv
mjf:_List_1_System_Collections_IList_IndexOf_m2887559165_gshared
cLh:_ValueCollection__ctor_m1825701219_gshared
N1c:__ZN20TextRenderingPrivate8TextMesh11ApplyToMeshEv
_Tf:_SslStreamBase_get_CanRead_m3061866682
evk:_emscripten_glDrawRangeElements__wrapper
Dqc:__Z35GUIStyle_CUSTOM_Internal_CalcHeight13Il2Cpp_IntPtrP12Il2CppObjectf
SYa:__Z28scripting_class_is_valuetype17ScriptingClassPtr
dfb:__ZNSt3__26__treeINS_12__value_typeIN4core12basic_stringIcNS2_20StringStorageDefaultIcEEEEPN16MemoryFileSystem4NodeEEENS_19__map_value_compareIS6_SA_NS_4lessIS6_EELb1EEE13stl_allocatorISA_L18MemLabelIdentifier54ELi16EEE7destroyEPNS_11__tree_nodeISA_PvEE
pfb:__ZNSt3__25dequeI10InputEventNS_9allocatorIS1_EEE19__add_back_capacityEv
hbf:_Enumerator_System_Collections_IEnumerator_Reset_m336811426_AdjustorThunk
PWa:__ZN13ComputeShader13SetValueParamERKN9ShaderLab16FastPropertyNameEiPKv
Pwb:__ZN14BlendShapeDataD2Ev
ALj:__ZN6il2cpp2vm13MetadataCache25GetIndexForTypeDefinitionEPK11Il2CppClass
eJa:__ZL18ProgramUniform3uivPK7ApiGLESjiihPKv
K0d:_Attribute_IsDefined_m1350918959
xjd:__Z47CanvasRenderer_Set_Custom_PropHasPopInstructionP12Il2CppObjecth
G5g:_MonoProperty_get_DeclaringType_m4236036432
NIa:__ZN5Image8SetImageEii13TextureFormatb
P4:__ZN17MessageIdentifier21GetRegisteredMessagesEv
gUi:_U3CGetEnumeratorU3Ec__Iterator0_System_Collections_IEnumerator_get_Current_m480171694_gshared
kDf:_ReadOnlyCollection_1_System_Collections_Generic_ICollectionU3CTU3E_Remove_m1342418180_gshared
vZ:__Z13RegisterClassI23CloudWebServicesManagerEvv
cak:__ZN6il2cpp2vm5Array3NewEP11Il2CppClassi
T3j:__GLOBAL__sub_I_Image_cpp
CWe:_Math_Sin_m2320256962
vFf:_ReadOnlyCollection_1_System_Collections_Generic_IListU3CTU3E_Insert_m2409570138_gshared
zif:_List_1_Add_m2123823603_gshared
yoa:__ZNSt3__27__sort5IRPFbRKNS_4pairIN9ShaderLab16FastPropertyNameEfEES6_EPS4_EEjT0_SB_SB_SB_SB_T_
Tsh:_AnimatorControllerPlayable_GetLayerCount_m1917775927
ZLc:__ZN22ParticleSystemRendererD2Ev
PMd:_CanvasUpdateRegistry__ctor_m4037208045
Vcc:__ZN8Material25DidModifyShaderKeywordSetEv
kbk:__ZN14dense_hash_mapI10KeyWrapperIPK19Il2CppGenericMethodEP10MethodInfoN6il2cpp8metadata23Il2CppGenericMethodHashENS4_14EqualsComparerINS8_26Il2CppGenericMethodCompareEEENSt3__29allocatorINSD_4pairIKS4_S6_EEEEE15set_deleted_keyERSG_
BIb:__Z29Transfer_Blittable_ArrayFieldI14SafeBinaryRead4AABBEvRT_R9ArrayInfoRK23StaticTransferFieldInfo
VCf:_ReadOnlyCollection_1_System_Collections_IList_RemoveAt_m2396335261_gshared
HIh:_Transform_1_Invoke_m2675095773_gshared
mdh:_GUIStyle_CalcHeight_m1685124037
JQd:_Dropdown_set_captionImage_m1952025570
fse:_Array_InternalArray__ICollection_Remove_TisCustomAttributeNamedArgument_t94157543_m2838387005_gshared
uvi:__ZL56g_UnityEngine_UI_Assembly_CustomAttributesCacheGeneratorP21CustomAttributesCache
W4e:_RSAManaged_remove_KeyGenerated_m452989252
r3a:__ZN9ShaderLab10GrabPassesC2E18MemLabelIdentifier
lgc:__Z46Register_UnityEngine_RectOffset_get_horizontalv
$nb:__ZN18DelayedCallManager8ClearAllEv
lcb:__ZN17PersistentManagerC2E18MemLabelIdentifierii
kic:__Z22Mesh_CUSTOM_HasChannelP12Il2CppObject30InternalScriptingShaderChannel
J4a:__ZNK25RenderPrePassObjectSorterclERK16RenderObjectDataS2_
KPb:__Z22TransferField_NonArrayI18StreamedBinaryReadILb1EE27Converter_SimpleNativeClassI8GUIStyleEEvRK23StaticTransferFieldInfoR31RuntimeSerializationCommandInfoRT0_
Ae:_Mix_LoadWAV_RW
Ya:invoke_viififiii
_Ka:__Z13IsFloatFormat14GraphicsFormat
hhj:_Enumerator__ctor_m147705785
Er:__ZNSt3__27__sort4IRNS_6__lessIN11UnityEngine9Animation13CachedBindingES4_EEPS4_EEjT0_S8_S8_S8_T_
X5j:__ZN6il2cpp2gcL12alloc_handleEPNS0_10HandleDataEP12Il2CppObjectb
ezk:_emscripten_glGetAttribLocation__wrapper
SNd:_CanvasScaler_HandleConstantPhysicalSize_m687057631
nzk:b98
Q6e:_PKCS12_Encrypt_m1401341763
I5:__ZL16ReadTypeTreeImplILb1EEbR8TypeTreeRK16TypeTreeIteratorRPKhS6_i
Se:_glBlendEquationSeparate
xxd:_SHA384_Create_m1970724783
xm:_emscripten_glDeleteVertexArrays
hEa:__ZN13GfxDeviceGLES17SetComputeUniformE12ObjectHandleI18ComputeProgram_TagPvER18ComputeShaderParamjPKv
iCj:_Enemy_Update_m1726793138
hBk:_emscripten_glValidateProgram__wrapper
U3e:_SmallXmlParser_ReadComment_m1117342068
Ze:_emscripten_glUniform3fv
Mic:__Z35MonoBehaviour_CUSTOM_StartCoroutineP12Il2CppObjectP12Il2CppStringS0_
lma:__ZN9ShaderLab7Program14RemoveVariantsERK13dynamic_arrayI16ShaderKeywordSetLj4EE
Z0j:__ZN6il2cpp2vm9Exception20GetArgumentExceptionEPKcS3_
vre:_Array_InternalArray__ICollection_Contains_TisContactPoint2D_t3659330976_m474619266_gshared
ryc:__Z29Transfer_Blittable_ArrayFieldI8JSONReadiEvRT_R9ArrayInfoRK23StaticTransferFieldInfo
zbj:_Uri_System_Runtime_Serialization_ISerializable_GetObjectData_m214698768
rzk:_glDrawArrays__wrapper
iS:__ZN9AudioClip27IsFormatSupportedByPlatformERKN4core12basic_stringIcNS0_20StringStorageDefaultIcEEEE
ZVb:__ZN9ShaderLab26SerializedShaderDependency8TransferI24GenerateTypeTreeTransferEEvRT_
k9:__ZN16LightmapSettings7RebuildEv
mtg:__Z92RuntimeInvoker_RuntimeObject_RuntimeObject_Int32_t2071877448_Int32_t2071877448_RuntimeObjectPFvvEPK10MethodInfoPvPS4_
H6c:_UNITY_FT_Match_Size
HOd:_ColorBlock_Equals_m738243050
xv:__ZN7mecanim20CreateValueArrayMaskEPKNS_18ValueArrayConstantERNS_6memory9AllocatorE
apk:_free
BVf:_NameObjectCollectionBase_GetEnumerator_m646294968
nnd:__ZN11UnityEngine7Connect14AppUpdateEventC2Ev
qkb:__ZN12ImageFilters17RemoveImageFilterERK11ImageFilter
RDa:__ZN9GfxDevice31InsertCustomBlitCallbackAndDataEPFviPvER33UnityRenderingExtCustomBlitParams
NPa:__Z32AddPathRemapsForBuiltinResourcesRKN4core12basic_stringIcNS_20StringStorageDefaultIcEEEE
ueh:_IL2CPPStructAlignmentAttribute__ctor_m2555798229
nfj:_TextGenerator_GetCharacters_m2554471692
P2e:_DSAManaged_remove_KeyGenerated_m61544860
IJb:__ZL26Transfer_SimpleNativeClassI17RemapPPtrTransfer17AnimationCurveTplIfELb0EEvRK29SerializationCommandArgumentsR31RuntimeSerializationCommandInfo
ckj:_KeyUsageExtension_Decode_m4115739726
zm:_glDeleteTransformFeedbacks
Ef:_JS_WebRequest_Send
aek:__ZN6il2cpp2os4Time31GetTicks100NanosecondsMonotonicEv
Z9j:__ZNSt3__26__treeINS_12basic_stringIcNS_11char_traitsIcEENS_9allocatorIcEEEENS_4lessIS6_EENS4_IS6_EEE16__construct_nodeIJRKS6_EEENS_10unique_ptrINS_11__tree_nodeIS6_PvEENS_22__tree_node_destructorINS4_ISH_EEEEEEDpOT_
ybe:_Stack_Clear_m771767447
pOe:_Int64_System_IConvertible_ToUInt16_m2638682734
f2h:__ZL102ChannelServices_t2007814595_CustomAttributesCacheGenerator_ChannelServices_RegisterChannel_m3832858065P21CustomAttributesCache
Nxk:_emscripten_glGenRenderbuffers__wrapper
cqk:__ZNK10__cxxabiv117__class_type_info24process_found_base_classEPNS_19__dynamic_cast_infoEPvi
NBj:_Nullable_1_Equals_m1889119397_AdjustorThunk
Fch:_GUIStyle_Draw_m3134455812
HLj:__ZN6il2cpp2vm13MetadataCache21GetFieldInfoFromIndexEj
UJc:__Z10StartDonutILN11ShapeModule14MultiModeValueE3EEvRS0_R23ParticleSystemParticlesRK19ParticleSystemStateRK27ParticleSystemEmissionStateRKN4math8float3x3ERKNSB_8float4x4Ejbj
sGi:_Raycast2DCallback_BeginInvoke_m4219004388
wQ:__ZN17AudioClipPlayable13OnAdvanceTimeEd
Vbk:__GLOBAL__sub_I_String_cpp
GU:__ZN5physx14PxLightCpuTaskD2Ev
Xq:__ZNSt3__26vectorIN4core12basic_stringIcNS1_20StringStorageDefaultIcEEEENS_9allocatorIS5_EEE6assignINS_11__wrap_iterIPS5_EEEENS_9enable_ifIXaasr21__is_forward_iteratorIT_EE5valuesr16is_constructibleIS5_NS_15iterator_traitsISE_E9referenceEEE5valueEvE4typeESE_SE_
yyh:_AudioSettings_InvokeOnAudioConfigurationChanged_m3225073778
MOj:_il2cpp_init
Sfd:__ZNSt3__26__treeIPN2UI14CanvasRendererENS_4lessIS3_EENS_9allocatorIS3_EEE7destroyEPNS_11__tree_nodeIS3_PvEE
DPc:__Z20b2TestSegmentSegmentRK6b2Vec2S1_S1_S1_RS_Rf
cwg:__Z176RuntimeInvoker_Boolean_t3825574718_RuntimeObject_Int32U26_t455636984_Int32_t2071877448_Int32_t2071877448_Int32_t2071877448_RuntimeObject_SByte_t454417549_ContextU26_t3131521781PFvvEPK10MethodInfoPvPS4_
DCa:__ZN13GfxDeviceGLES22UploadTextureSubData2DE9TextureIDPKhiiiiii14GraphicsFormat
N4:__ZNK15dense_hashtableINSt3__24pairIKPKcPK4RTTIEES3_N11TypeManager23ConstCharPtrHashFunctorEN14dense_hash_mapIS3_S7_SA_NS9_19ConstCharPtrEqualToE13stl_allocatorIS8_L18MemLabelIdentifier6ELi16EEE9SelectKeyESC_SF_E23find_position_with_hashERS4_j
jhc:__Z35Register_UnityEngine_Screen_get_dpiv
qXj:__ZNK15dense_hashtableINSt3__24pairIK10KeyWrapperIPK14Il2CppAssemblyEPK22Il2CppMonoAssemblyNameEES6_N6il2cpp5utils11PointerHashIS4_EEN14dense_hash_mapIS6_SA_SF_NS6_14EqualsComparerINS0_8equal_toIS5_EEEENS0_9allocatorISB_EEE9SelectKeyESK_SM_E5beginEv
Ogh:_Mesh_get_normals_m1837187359
Vwc:__ZN8JSONRead8TransferIxEEvRT_PKc17TransferMetaFlagsb
M0:__ZN13SpeedTreeWind7AdvanceEbd
KNe:_Int32_TryParse_m2941352213
WFa:__ZN18GlslGpuProgramGLES19ApplyGpuProgramGLESERK20GpuProgramParametersPKh
fdc:__ZN9Transform16SetLocalPositionERK8Vector3f
MUd:_LayoutGroup_GetTotalMinSize_m2600700952
TQb:__Z15Transfer_StringI18StreamedBinaryReadILb0EELb0EEvRK29SerializationCommandArgumentsR31RuntimeSerializationCommandInfo
PM:__ZN12SoundManagerC2Ev
l6c:_UNITY_tt_face_free_name
jDe:_Array_Sort_TisUICharInfo_t3056636800_m37864585_gshared
ZCc:__ZN11ShapeModule8TransferI17RemapPPtrTransferEEvRT_
Zzk:_emscripten_glGetUniformfv__wrapper
ZJa:__ZN14DataBufferGLES3MapEjjj
z0i:_InternalEnumerator_1_System_Collections_IEnumerator_get_Current_m771161214_gshared
$o:FUNCTION_TABLE_fidi
Uxb:__ZN14SpriteRenderer23VirtualRedirectTransferER19StreamedBinaryWriteILb0EE
dHh:_Enumerator_get_CurrentValue_m2645962456_gshared
lAk:_emscripten_glGetShaderiv__wrapper
K$b:__Z13RegisterClassI9TransformEvv
joa:__ZN18UnityPropertySheet11UnityTexEnv8TransferI19StreamedBinaryWriteILb0EEEEvRT_
W5b:__ZNK6Camera33CalculateFarPlaneWorldSpaceLengthEv
QNi:_ResourceInfo_t3933049236_marshal_pinvoke_back
phk:_GC_make_descriptor
Hth:_AnimatorControllerPlayable_GetAnimatorClipInfoCountInternal_m2158191784
WOj:_il2cpp_array_new
vxe:_Array_InternalArray__ICollection_Add_TisDictionaryEntry_t3048875398_m279246399_gshared
fQi:_ChannelServices_GetCurrentChannelInfo_m4080942430
eL:__ZN4FMOD3DSP8getInputEiPPS0_PPNS_13DSPConnectionE
m9e:_KeyValuePair_2_ToString_m2882821022_AdjustorThunk
k5:__ZN20dynamic_block_vectorI14FileIdentifierE5clearEv
Xwb:__ZN10MeshFilter23VirtualRedirectTransferER17RemapPPtrTransfer
i5c:_ft_outline_glyph_bbox
hrj:_IndexedSet_1_RemoveAll_m2736534958_gshared
Bed:_UNITY_FT_Done_Library
iNi:_VertexHelper__cctor_m1150948588
xR:__ZN13AudioPlayable25UpdateChannelGroupVisitorERK16AudioProcessData
iid:__ZN2UI13CanvasManager17EmitDataForCameraEP6Camera
LQc:__Z16b2CollideCirclesP10b2ManifoldPK13b2CircleShapeRK11b2TransformS3_S6_
wyh:_PCMSetPositionCallback_BeginInvoke_m2507142524
PIh:_Transform_1_Invoke_m1111426439_gshared
fye:_Array_InternalArray__ICollection_Add_TisContactPoint2D_t3659330976_m1781705858_gshared
ukc:__Z44Register_UnityEngine_Material_GetTextureImplv
H1c:__ZN13sorted_vectorIN20TextRenderingPrivate8FontImpl13CharacterInfoENSt3__24lessIS2_EE13stl_allocatorIS2_L18MemLabelIdentifier34ELi16EEE10insert_oneERKS2_
Egj:_Transform_INTERNAL_set_localPosition_m432504087
Hzk:_glUniform3uiv__wrapper
MDc:__ZN21RotationBySpeedModule8TransferI18StreamedBinaryReadILb0EEEEvRT_
LXg:_Binder_ConvertArgs_m2999223281
r$g:_TypeBuilder_IsDefined_m3186251655
Vjd:__Z47Register_UnityEngine_CanvasRenderer_SetMaterialv
RQi:_ConfigHandler_ValidatePath_m3188987489
pPc:__ZN11UnityEngine9Analytics16StartupTimeEvent23SetAssembliesTimingInfoEyy
vNh:_Dictionary_2_ToTValue_m1227484397_gshared
aUc:__ZN19CompositeCollider2D22QueryCompositeColliderEPK10Collider2DPK11Rigidbody2D
pZe:_NumberFormatter_get_IntegerDigits_m3972411141
sxb:__ZThn32_N12MeshRendererD1Ev
Ria:__ZN13RenderTexture23VirtualRedirectTransferER19StreamedBinaryWriteILb0EE
rGf:_ReadOnlyCollection_1_System_Collections_IList_set_Item_m2810776479_gshared
hIh:_ShimEnumerator_MoveNext_m2728191736_gshared
QAc:__ZNK11ShapeModule25CalculateProceduralBoundsER10MinMaxAABBRK8Vector3f8Vector2f
$Ng:__Z135RuntimeInvoker_RuntimeObject_Ray_t2469606224_RaycastHitU26_t1969197280_Single_t2076509932_Int32_t2071877448_RuntimeObject_RuntimeObjectPFvvEPK10MethodInfoPvPS4_
Xog:_UInt64_System_IConvertible_ToInt32_m930227577_AdjustorThunk
Pck:__ZN6il2cpp2vm13ComObjectBase17GetMarshalSizeMaxERK10Il2CppGuidPvjS5_jPj
z3b:__ZN9TransformC2E18MemLabelIdentifier18ObjectCreationMode
_ok:_truncate
KWb:__ZN9ShaderLab27SerializedShaderVectorValue8TransferI18StreamedBinaryReadILb0EEEEvRT_
nrb:__ZN8Renderer21RendererBecameVisibleEv
oEf:_ReadOnlyCollection_1_System_Collections_Generic_ICollectionU3CTU3E_Clear_m2503787861_gshared
uok:___stpncpy
Etf:_Collection_1_System_Collections_IList_Add_m669232520_gshared
Mlf:_List_1_RemoveAt_m1843849279_gshared
c0:__ZN10MemoryPool16StaticInitializeEPv
Uba:__ZN11TypeManager21CleanupGlobalInstanceEv
Lmg:_TypedReference_GetHashCode_m3498861551_AdjustorThunk
old:__ZN11UnityEngine9Analytics15UserCustomEvent3AddEPKcRKN4core12basic_stringIcNS4_20StringStorageDefaultIcEEEE
N:Math_atan
TRj:__ZNSt3__212basic_stringIcNS_11char_traitsIcEENS_9allocatorIcEEE6__initIPKcEENS_9enable_ifIXsr21__is_forward_iteratorIT_EE5valueEvE4typeESA_SA_
TJ:__ZNK10SampleClip11GetResourceEv
GQa:__ZN4core12basic_stringIcNS_20StringStorageDefaultIcEEE6resizeEj
vFc:__ZN14ParticleSystem8SimulateEfNS_13SimulateFlagsE
qpc:__Z43Register_UnityEngine_Event_set_displayIndexv
X2i:_InternalEnumerator_1_System_Collections_IEnumerator_get_Current_m2821735692_AdjustorThunk
U$c:__GLOBAL__sub_I_CmEventProfiler_cpp
FIf:_PrimalityTests_GetSPPRounds_m873706010
Ufg:_StringBuilder_AppendLine_m1686706871
ZFf:_ReadOnlyCollection_1_System_Collections_Generic_IListU3CTU3E_Insert_m584948331_gshared
Gib:__ZN17GlobalGameManager23VirtualRedirectTransferER24GenerateTypeTreeTransfer
hTe:_MemoryStream_ToArray_m547789004
dpd:__ZN19UnityConnectServiceD0Ev
uuh:_AnimatorControllerPlayable_CrossFade_m3794224188
uSe:_MonoIO_SetLength_m1019790894
hUa:__ZZ23InitPlayerLoopCallbacksvEN46EarlyUpdateUpdateAllUnityWebStreamsRegistrator7ForwardEv
Qpg:_UIntPtr_ToString_m387842486
Ikb:__ZNSt3__26vectorIfNS_9allocatorIfEEE8__appendEjRKf
Ynd:__ZN11UnityEngine15PlatformWrapper21GetCopyTextureSupportEv
QSd:_Graphic_get_depth_m3526566553
Q9j:__ZN6il2cpp2vm6Method11GetFullNameEPK10MethodInfo
dT:__ZN11AudioModule27IsFormatSupportedByPlatformEPKc
$7d:_CollectionBase_get_InnerList_m44314156
Bne:_Enum_System_IConvertible_ToUInt32_m3575456858
L8g:_WindowFunction_BeginInvoke_m322627481
cjb:__ZNSt3__26vectorI17SortingLayerEntryNS_9allocatorIS1_EEE6assignINS_11__wrap_iterIPS1_EEEENS_9enable_ifIXaasr21__is_forward_iteratorIT_EE5valuesr16is_constructibleIS1_NS_15iterator_traitsISA_E9referenceEEE5valueEvE4typeESA_SA_
MZc:__Z14b2PairLessThanRK6b2PairS1_
l5:__ZN14SerializedFile14SerializedTypeD2Ev
kec:__Z48Register_UnityEngine_AsyncOperation_set_priorityv
jyc:__Z19TransferField_ArrayI8JSONRead16Converter_StringEvRK23StaticTransferFieldInfoR31RuntimeSerializationCommandInfoRT0_
nUc:__ZN15b2WheelJointDef10InitializeEP6b2BodyS1_RK6b2Vec2S4_
kgb:__ZNK25ThreadsafeLinearAllocator22GetAllocatedMemorySizeEv
X9c:_cff_size_request
ynb:__ZN15DirectorManager14ConnectionPool12SwitchBucketEP14ConnectionList
Qlg:_Type_EqualsInternal_m266086934
egd:__ZN2UI11CompareFuncEPNS_6CanvasES1_
UL:__ZN4FMOD7Channel11set3DSpreadEf
skk:__ZN6il2cpp2os6Memory14AlignedReAllocEPvjj
W:Math_fround
w9c:_pshinter_get_t1_funcs
mwa:__ZN24GenerateTypeTreeTransfer16TransferTypelessEPjPKc17TransferMetaFlags
tkg:_TimeSpan_get_TotalMinutes_m1645177229
Jtd:_HMACMD5__ctor_m3425004426
z5e:_SymmetricTransform_InternalTransformBlock_m55428483
fJa:__ZL18ProgramUniform4uivPK7ApiGLESjiihPKv
MXe:_LongComparer_Compare_m398047722
gR:__ZN18AudioMixerPlayable18CacheFMODResourcesEPN4FMOD6SystemE
FSh:_EqualityComparer_1_System_Collections_IEqualityComparer_Equals_m2170611288_gshared
Sxh:_AudioMixerPlayable_op_Explicit_m1657546053
D0d:_Attribute_CheckParameters_m1754681684
egg:_UnicodeEncoding_GetByteCount_m2761661599
l1a:__ZN10builtintex21GetAttenuationTextureEv
rn:FUNCTION_TABLE_viiiiiiiiiiiiiii
dKi:_Selectable_TriggerAnimation_m3096883407
l9b:__ZNK4Mesh19CanAccessFromScriptEv
haa:__Z15GetGraphicsCapsv
WEa:__ZN7ApiGLES15BindVertexArrayEN2gl6HandleILNS0_10ObjectTypeE3EEE
mv:__ZN17AnimationPlayable17GetAnimationClipsER13dynamic_arrayIP13AnimationClipLj4EE
W1a:__Z20IntersectionAABBAABBRK10MinMaxAABBS1_PS_
tWj:__ZN30dense_hashtable_const_iteratorINSt3__24pairIK10KeyWrapperINS1_IPK9EventInfoP11Il2CppClassEEEjEES9_17ReflectionMapHashIS8_EN14dense_hash_mapIS9_jSD_NS9_14EqualsComparerINS0_8equal_toIS8_EEEENS0_9allocatorISB_EEE9SelectKeyESI_SK_EppEv
Zkg:_TimeSpan_op_GreaterThan_m2202243191
J_b:__ZN18BackgroundJobQueue29ScheduleMainThreadJobInternalEPFvPvES0_
M_f:_X509Chain_IsSelfIssued_m2009755967
vgd:__ZN2UI11CanvasGroup23VirtualRedirectTransferER24GenerateTypeTreeTransfer
Nnb:__ZNK20ScriptPlayableOutput9GetStagesER13dynamic_arrayI16StageDescriptionLj4EE
nCc:__ZN11ShapeModule18MultiModeParameter8TransferI14SafeBinaryReadEEvRT_
NFb:__Z18Transfer_BlittableI14SafeBinaryReadLb1EhEvRK29SerializationCommandArgumentsR31RuntimeSerializationCommandInfo
She:_DateTime_GetTimeMonotonic_m4135038456
Zca:__ZNSt3__224__buffered_inplace_mergeIRNS_4lessIN4core12basic_stringIcNS2_20StringStorageDefaultIcEEEEEENS_11__wrap_iterIPS6_EEEEvT0_SC_SC_T_NS_15iterator_traitsISC_E15difference_typeESG_PNSF_10value_typeE
Nfg:_StringBuilder_Append_m3636508479
OJf:_MD4_Create_m3565183915
pc:invoke_viifff
P2:__Z22DestroyObjectHighLevelP6Objectb
LRc:__ZNK12b2MouseJoint10GetAnchorBEv
g$a:__Z26BeginRenderQueueExtractionR15RenderNodeQueuePK16RendererCullDataRK13CullingOutputPK12LODDataArray15ExtractionFlagsP18JobBatchDispatcher
G1c:__ZNK13TextRendering4Font10GetTextureEv
Oud:_SymmetricAlgorithm_set_KeySize_m270664177
wj:_emscripten_glVertexAttrib3fv
tDi:__ZL49Shadow_t4269599528_CustomAttributesCacheGeneratorP21CustomAttributesCache
P$j:__ZN6il2cpp6icalls8mscorlib6System9Threading6Thread16SetName_internalEP12Il2CppThreadP12Il2CppString
Aj:_glBeginTransformFeedback
mPf:_Context_ClearKeyInfo_m205678623
sxa:__ZN18JobBatchDispatcherC2E11JobPriorityi
knc:__ZN8GUIStyle14GetBuiltinFontEv
vDa:__ZN9GfxDevice13EndFrameStatsEv
W2b:__Z7Empty2DP9Texture2DPhiiii
qPe:_IntPtr_ToString_m1500137303_AdjustorThunk
XKd:_RaycasterManager__cctor_m3713028899
Vhf:_List_1_CheckCollection_m1228076404_gshared
tzc:__ZN32CustomDataModulePropertyBindings13AddPropertiesER10vector_mapIi22ParticleModulePropertyNSt3__24lessIiEENS2_9allocatorINS2_4pairIiS1_EEEEE
Gsj:_SymmetricTransform_ThrowBadPaddingException_m2553969731
qO:__ZL34StaticDestroyAudioCustomFilterRootPv
BXa:__ZN19ComputeShaderKernelD2Ev
q_b:__ZN10systeminfo21GetTemporaryCachePathEv
nwf:_Collection_1_IsValidItem_m2164075061_gshared
wyc:__ZN9rapidjson12PrettyWriterI16TempBufferWriterNS_4UTF8IcEES3_13JSONAllocatorE12PrettyPrefixENS_4TypeE
nPf:_Context_DecodeProtocolCode_m4051353560
zYb:__ZN12ScriptMapper8TransferI14SafeBinaryReadEEvRT_
fPf:_Context_set_ClientWriteKey_m1137238126
fLb:__Z18Transfer_BlittableI24GenerateTypeTreeTransferLb1E10Matrix4x4fEvRK29SerializationCommandArgumentsR31RuntimeSerializationCommandInfo
H9i:_Expression_GetFixedWidth_m2900825908
$B:__Z10SetLocalTR15TransformAccessRKN4math7_float3ERKNS0_7_float4E
hvj:_GenericEqualityComparer_1_Equals_m1663005117_gshared
xBh:_Color_ToString_m4028093047_AdjustorThunk
GZg:_ILGenerator_Mono_GetCurrentOffset_m3553856682
fvc:__ZN9JSONWrite8TransferI10Matrix4x4fEEvRT_PKc17TransferMetaFlags
lVh:__ZL58Decimal_t724701077_CustomAttributesCacheGenerator_MinValueP21CustomAttributesCache
pbd:_cf2_hintmap_map
mcf:_Enumerator_VerifyState_m3639069574_AdjustorThunk
AQ:__ZN17AudioClipPlayable15ApplyPropertiesEPN4FMOD6SystemEP11AudioSourcebyj
U1h:__ZL50_Module_t2144668161_CustomAttributesCacheGeneratorP21CustomAttributesCache
rIb:__ZN15SerializeTraitsI5RectTIfEE8TransferI14SafeBinaryReadEEvRS1_RT_
Ufh:_Mathf_CeilToInt_m2672598779
ilc:__Z41Register_UnityEngine_Texture_get_wrapModev
r3c:_UNITY_FT_Raccess_Get_DataOffsets
E0f:_X509Extension_CopyFrom_m2644634650
G6b:__ZN14PlayableOutputC2EjP13PlayableGraph
Arb:__ZThn32_NK8Renderer11GetMaterialEi
VWb:__ZN9ShaderLab20SerializedSubProgram8TransferI19StreamedBinaryWriteILb0EEEEvRT_
_ld:__Z13RegisterClassI21UnityAnalyticsManagerEvv
Z5h:__ZL118SecurityManager_t3191249573_CustomAttributesCacheGenerator_SecurityManager_t3191249573____SecurityEnabled_PropertyInfoP21CustomAttributesCache
zff:_List_1_System_Collections_IList_Insert_m813883425_gshared
vPi:_SafeHandle_Dispose_m3871883741
tk:_unsetenv
FAa:__ZN9GfxDevice29GetMinimumNodesPerGraphicsJobEv
dwb:__ZN17BlendShapeChannel8TransferI24GenerateTypeTreeTransferEEvRT_
NJg:__Z427RuntimeInvoker_Boolean_t3825574718_RuntimeObject_RuntimeObject_Color_t2020392075_Int32_t2071877448_Single_t2076509932_Single_t2076509932_Int32_t2071877448_SByte_t454417549_SByte_t454417549_Int32_t2071877448_Int32_t2071877448_Int32_t2071877448_Int32_t2071877448_SByte_t454417549_Int32_t2071877448_Single_t2076509932_Single_t2076509932_Single_t2076509932_Single_t2076509932_SByte_t454417549_SByte_t454417549_UInt32U26_t2197289955PFvvEPK10MethodInfoPvPS4_
P7g:_GameObject_SendMessage_m71956653
Cmh:_Rect_set_yMin_m734445288_AdjustorThunk
Lgk:_GC_init_size_map
Q7i:_Parser_NewParseException_m3909819299
Frh:_AnimatorControllerPlayable_GetFloat_m753829628
lba:__ZN15DirectorManager17OnSampleFixedTimeEv
g6a:__ZNK13RendererScene21GetDynamicObjectCountEv
jKh:_Enumerator_System_Collections_IEnumerator_get_Current_m1805365227_AdjustorThunk
Dek:_GC_is_black_listed
RGd:_BaseInput_get_imeCompositionMode_m4145003637
eXd:_InputField_set_caretSelectPositionInternal_m2063243072
sBk:_emscripten_glDisable__wrapper
NLb:__ZN24GenerateTypeTreeTransfer32TransferSTLStyleArrayWithElementI23ManagedObjectTransfererEEvRT_17TransferMetaFlags
$1i:_InternalEnumerator_1_System_Collections_IEnumerator_get_Current_m3043347404_AdjustorThunk
mSe:_WriteDelegate_BeginInvoke_m2985235908
dje:_DateTimeOffset_get_Offset_m2335492074_AdjustorThunk
GEe:_Component_GetComponentsInChildren_TisRuntimeObject_m1992201622_gshared
_mh:_RectOffset_Cleanup_m3198970074
Yqc:__Z42Register_UnityEngine_GUIStyle_set_wordWrapv
n4c:_UNITY_FT_Destroy_Class_tt_driver_class
Klc:__Z49Transform_CUSTOM_INTERNAL_CALL_TransformDirectionP12Il2CppObjectRK8Vector3fRS1_
_Me:_Int32_System_IConvertible_ToChar_m719315943_AdjustorThunk
Ekk:__ZN6il2cpp6icalls8mscorlib6System7Runtime8Remoting16RemotingServices16GetVirtualMethodEP20Il2CppReflectionTypeP22Il2CppReflectionMethod
$5i:_Match__ctor_m478172746
yAe:_Array_InternalArray__Insert_TisWorkRequest_t1154022482_m452198486_gshared
Aec:__Z42Register_UnityEngine_Behaviour_get_enabledv
GWe:_Math_Pow_m3099781906
ych:_GUIStyle_set_font_m312124587
VQj:__ZN6il2cpp2vm14TypeNameParser23ParseNestedTypeOptionalERi
rYe:_MonoType_ReorderParamArrayArguments_m979187413
yHf:_BigInteger_ToString_m1842353154
p3i:_InternalEnumerator_1_System_Collections_IEnumerator_get_Current_m419967545_AdjustorThunk
ckk:__ZN6il2cpp2os13FastMutexImplC2Ev
Vmd:__ZN22BaseUnityConnectClient14QueueCoreEventERN11UnityEngine15CloudWebService17CloudServiceEventEb
gXi:_InternalEnumerator_1_get_Current_m2882946014_gshared
vCb:__ZN30RuntimeInitializeOnLoadManager9ClassInfo8TransferI14SafeBinaryReadEEvRT_
_Oi:_GCHandle_Equals_m170815541_AdjustorThunk
v2a:__ZL13RenderCastersiRK8Vector3fS1_RK13ShadowJobDataR17ShaderPassContextRKNSt3__26vectorI16ShadowCasterData13stl_allocatorIS9_L18MemLabelIdentifier2ELi16EEEERKNS8_I20ShadowCasterPartDataSA_ISG_LSB_2ELi16EEEERK15RenderNodeQueuebPKj
tl:_emscripten_glGetShaderInfoLog
HRj:__ZNSt3__26vectorIiNS_9allocatorIiEEE8allocateEj
S6h:__ZL100CompressedStack_t1568001503_CustomAttributesCacheGenerator_CompressedStack_GetObjectData_m2387204186P21CustomAttributesCache
Bvd:_RIPEMD160Managed_Compress_m3844168032
pje:_DBNull_System_IConvertible_ToInt32_m3596596664
NMe:_Int16_ToString_m1247017262_AdjustorThunk
hnh:_RectTransform_get_anchorMax_m3816015142
P6c:_UNITY_ft_glyphslot_set_bitmap
N3:__ZN24GenerateTypeTreeTransfer18SetScriptingObjectE18ScriptingObjectPtri
unh:_RectTransform_INTERNAL_get_pivot_m3003734630
sU:__Z92Register_UnityEngine_Audio_AudioMixerPlayable_INTERNAL_CALL_CreateAudioMixerPlayableInternalv
pNe:_Int32_System_IConvertible_ToType_m573330549_AdjustorThunk
sYg:_CustomAttributeTypedArgument_Equals_m1555989603
UZb:__ZN6prcoreL11inner_clearILj3EEEvPhjjj
MGg:__Z99RuntimeInvoker_RuntimeObject_RuntimeObject_RuntimeObject_Vector3_t2243707580_Quaternion_t4030073918PFvvEPK10MethodInfoPvPS4_
Mjb:__Z29FindReflectionProbeFromAnchorP9TransformRK4AABBRS1_RsS5_
oqe:_CultureInfo_insert_into_shared_tables_m348522444
b3f:_Interval_Merge_m1170166798
f8f:_WellKnownServiceTypeEntry__ctor_m1109686429
ldd:_Read_CVT_Stretched
$jh:_PlayableHandle_SetInputCount_m2001045454_AdjustorThunk
ANj:__ZN6il2cpp6icalls8mscorlib6System18CollectTypeMethodsINS_5utils10functional10TrueFilterEEEvP11Il2CppClassPKS7_jRKT_RNSt3__26vectorIPK10MethodInfoNSE_9allocatorISI_EEEERA65535_b
fpf:_Enumerator_get_Current_m2566716693_AdjustorThunk
Aga:__Z14SetPlayerPause11PlayerPauseb
hxh:_AudioClipPlayable_GetLooped_m2341122984_AdjustorThunk
Wij:_Vector3_op_Equality_m305888255
RRd:_FontData_get_defaultFontData_m3296571046
CKg:__Z65RuntimeInvoker_Int32_t2071877448_RuntimeObject_Single_t2076509932PFvvEPK10MethodInfoPvPS4_
k6j:__ZN15dense_hashtableINSt3__24pairIK10KeyWrapperIP12Il2CppObjectEN6il2cpp2gc9CachedCCWEEES5_NS7_5utils11PointerHashIS3_EEN14dense_hash_mapIS5_S9_SD_NS5_14EqualsComparerINS0_8equal_toIS4_EEEENS0_9allocatorISA_EEE9SelectKeyESI_SK_EC2ERKSN_j
yXd:_InputField_InPlaceEditing_m1040314765
X1:__Z30scripting_stack_trace_info_for21ScriptingExceptionPtrR14StackTraceInfo
$tk:_glCompressedTexSubImage3D__wrapper
dIg:__Z127RuntimeInvoker_Boolean_t3825574718_PlayableGraphU26_t427420260_Int32_t2071877448_SByte_t454417549_PlayableHandleU26_t4210769902PFvvEPK10MethodInfoPvPS4_
FVj:__ZN15dense_hashtableINSt3__24pairIK10KeyWrapperINS1_IPK12PropertyInfoP11Il2CppClassEEEjEES9_17ReflectionMapHashIS8_EN14dense_hash_mapIS9_jSD_NS9_14EqualsComparerINS0_8equal_toIS8_EEEENS0_9allocatorISB_EEE9SelectKeyESI_SK_EC2ERKSN_j
nL:__ZN15AudioReverbZone7CleanupEv
dNa:__ZN10BufferGLESD0Ev
F1i:_InternalEnumerator_1_System_Collections_IEnumerator_get_Current_m790514740_gshared
ZHc:__Z25EvaluateRandomGradientHDRIL12GradientMode1ELS0_1EEN4math8floatNx4ERK14MinMaxGradientRKNS1_7_float4ES8_
WAd:__Z9NullCheckPv
Jpd:__ZN22UnityAnalyticsSettings8TransferI14SafeBinaryReadEEvRT_
hQc:__ZNK14b2PolygonShape9TestPointERK11b2TransformRK6b2Vec2
EXc:__ZN22FindParticleCollisions22ProcessFoundCollisionsERKfRK13dynamic_arrayI15BatchedRaycastsLj4EERS2_I20BatchedRaycastResultLj4EERS2_I21BatchedColliderResultLj4EE
xbd:_cf2_hintmask_isNew
Tze:_Array_InternalArray__Insert_TisIntPtr_t_m3232864760_gshared
Pra:__ZN6prcoreL26RemapGenericIntegerToFloatI17TexFormatARGB888818TexFormatARGBFloatEEvPKNS_9InnerInfoE
nwj:__ZL24UnresolvedVirtualCall_10P12Il2CppObjectPK10MethodInfo
Tyk:_emscripten_glCompressedTexSubImage2D__wrapper
sdg:_DSA_FromXmlString_m2141326025
idh:_GUIStyle_CalcSizeWithConstraints_m4117833199
Kqd:__ZZN18UnityConnectClient23RegisterGlobalCallbacksEvEN46EarlyUpdateUnityConnectClientUpdateRegistrator7ForwardEv
PMh:_Dictionary_2_System_Collections_IDictionary_Remove_m2901901588_gshared
kCc:__ZN15SerializeTraitsI27ParticleSystemEmissionBurstE8TransferI14SafeBinaryReadEEvRS0_RT_
tZc:__ZN16b2ContactManager7CollideEv
HMj:__ZN6il2cpp2vmL29SocketPollingThreadEntryPointEPv
The:_DateTime_GetNow_m1004310079
a1c:__ZNSt3__26vectorINS_4pairIifEE13stl_allocatorIS2_L18MemLabelIdentifier34ELi16EEE6assignINS_11__wrap_iterIPS2_EEEENS_9enable_ifIXaasr21__is_forward_iteratorIT_EE5valuesr16is_constructibleIS2_NS_15iterator_traitsISC_E9referenceEEE5valueEvE4typeESC_SC_
Xwg:__Z97RuntimeInvoker_Void_t1841601450_RuntimeObject_Int32_t2071877448_SByte_t454417549_SByte_t454417549PFvvEPK10MethodInfoPvPS4_
hwb:__ZN10Matrix4x4f8TransferI18StreamedBinaryReadILb0EEEEvRT_
bUf:_SslStreamBase_get_Length_m763159069
TGf:_Comparison_1_Invoke_m4190993814_gshared
fP:__ZN4FMOD7Channel19getReverbPropertiesEP29FMOD_REVERB_CHANNELPROPERTIES
t3i:_InternalEnumerator_1_get_Current_m906360510_AdjustorThunk
Ole:_StackFrame_GetSecureFileName_m389986943
iGc:__ZNK11NoiseModule10UpdateSizeER23ParticleSystemParticlesbjj
QNd:_CanvasScaler_HandleConstantPixelSize_m229625308
VNd:_CanvasUpdateRegistry_PerformUpdate_m2200492017
JHc:__ZN11NoiseModule6UpdateERK27ParticleSystemReadOnlyStateR23ParticleSystemParticlesjjfRKN4math7_float4Eb
Agg:_UTF32Encoding_GetCharCount_m3319809517
Ibc:__Z12CancelInvokeR13MonoBehaviourR11ICallString
o8g:_GUILayout_Height_m607115982
qNj:__ZN6il2cpp6icalls8mscorlib6System8MonoType13GetInterfacesEP20Il2CppReflectionType
FX:__ZN11UnityEngine15CloudWebService25WebRequestDownloadHandler7OnAbortEv
eWa:__ZN6Camera12CustomRenderER11CullResultsR17ShaderPassContextPK21CameraRenderingParamsNS_10RenderFlagEPNS_21PerformRenderFunctionEPFvvE
kCb:__ZN14SafeBinaryRead21TransferSTLStyleArrayINSt3__26vectorIi13stl_allocatorIiL18MemLabelIdentifier12ELi16EEEEEEvRT_17TransferMetaFlags
Q9e:_KeyValuePair_2_ToString_m2613351884_AdjustorThunk
c9j:__ZN6il2cpp2os6Thread22SetNativeThreadCleanupEPFvPvE
Pdc:__Z35Application_Get_Custom_PropPlatformv
$Oj:_il2cpp_class_from_system_type
QKb:__Z18Transfer_BlittableI24GenerateTypeTreeTransferLb1E10ColorRGBAfEvRK29SerializationCommandArgumentsR31RuntimeSerializationCommandInfo
Pqa:__ZN6prcoreL17RemapGenericFloatI18TexFormatRGBAFloat16TexFormatRGFloatEEvPKNS_9InnerInfoE
N_e:_MSCompatUnicodeTable_FillCJKCore_m1100372933
RMj:__ZN6il2cpp6icalls8mscorlib6System8MonoType8get_NameEP20Il2CppReflectionType
NHb:__ZNSt3__26vectorI10RectOffset13stl_allocatorIS1_L18MemLabelIdentifier1ELi16EEE8__appendEj
mde:_DateTime_op_Inequality_m1607380213
Ft:__ZN21AnimationClipPlayable22PrepareAnimationEventsEfR13dynamic_arrayI22AnimationClipEventInfoLj4EE
VFj:__ZN6il2cpp2vm5Class12HasAttributeEP11Il2CppClassS3_
jEe:_Dictionary_2_Do_ICollectionCopyTo_TisRuntimeObject_m4050345195_gshared
Fzc:__ZN27ForceModulePropertyBindings13AddPropertiesER10vector_mapIi22ParticleModulePropertyNSt3__24lessIiEENS2_9allocatorINS2_4pairIiS1_EEEEE
hre:_Array_InternalArray__ICollection_Contains_TisResourceCacheItem_t333236149_m1769941464_gshared
ACh:_ContextMenu__ctor_m3931483141
f6j:__ZN14dense_hash_mapI10KeyWrapperIP12Il2CppObjectEN6il2cpp2gc9CachedCCWENS4_5utils11PointerHashIS1_EENS3_14EqualsComparerINSt3__28equal_toIS2_EEEENSB_9allocatorINSB_4pairIKS3_S6_EEEEE13set_empty_keyERSH_
np:FUNCTION_TABLE_ff
i9b:__ZN4Mesh18GetSubMeshBuffer16Ei
sub:__ZNSt3__218__stable_sort_moveIRNS_4lessI4PPtrI11SpriteAtlasEEENS_11__wrap_iterIPS4_EEEEvT0_SA_T_NS_15iterator_traitsISA_E15difference_typeEPNSD_10value_typeE
pp:FUNCTION_TABLE_fi
KGd:_BaseEventData_set_selectedObject_m2198139983
Uz:__ZNSt3__227__insertion_sort_incompleteIRN11UnityEngine9Animation11BindingSortEPNS_4pairINS2_14GenericBindingEPNS2_10BoundIndexEEEEEbT0_SB_T_
nlk:__ZN6il2cpp2vm16GenericContainer19GetGenericParameterEPK22Il2CppGenericContainert
f4d:_Char_System_IConvertible_ToSingle_m2547558725_AdjustorThunk
v9g:_GUILayoutEntry_ApplyOptions_m115321759
NBb:__ZN18StreamedBinaryReadILb0EE21TransferSTLStyleArrayINSt3__26vectorIN15ResourceManager10DependencyE13stl_allocatorIS5_L18MemLabelIdentifier51ELi16EEEEEEvRT_17TransferMetaFlags
Gd:_emscripten_glGetAttribLocation
i5:__ZNSt3__26vectorINS_4pairIiiEE13stl_allocatorIS2_L18MemLabelIdentifier37ELi16EEE6insertENS_11__wrap_iterIPKS2_EERS8_
oUa:__ZZ23InitPlayerLoopCallbacksvEN39PostLateUpdateResetInputAxisRegistrator7ForwardEv
HN:__ZN4FMOD12ChannelGroup14getParentGroupEPPS0_
rSf:_SslClientStream_add_ServerCertValidation_m684653638
Kd:_emscripten_set_blur_callback
mfj:_TextGenerator_Invalidate_m3217235344
rjk:__GLOBAL__sub_I_MemoryMappedFile_cpp
ovk:___cxa_pure_virtual__wrapper
CIa:__ZNK14ImageReference9ClipImageEiiii
h3a:__ZN10Matrix4x4f30SetPositionAndOrthoNormalBasisERK8Vector3fS2_S2_S2_
Fhb:__ZN5RectTIfE8TransferI24GenerateTypeTreeTransferEEvRT_
EQi:_CrossAppDomainSink__cctor_m1547233779
i_e:_TableRange__ctor_m1944319286_AdjustorThunk
cZa:__ZN12FlareManager6UpdateEv
Nvk:_glColorMask__wrapper
L1h:__ZL59_ConstructorInfo_t3269099341_CustomAttributesCacheGeneratorP21CustomAttributesCache
cOh:_Dictionary_2_ContainsKey_m1385349577_gshared
A6e:_X509CertificateEnumerator_MoveNext_m1031936092
y1j:__ZN6il2cpp6icalls8mscorlib6System4Type29GetGenericTypeDefinition_implEP20Il2CppReflectionType
GNf:_TlsStream__ctor_m2982031560
hZf:_X509EnhancedKeyUsageExtension__ctor_m4050164330
vQb:__ZN18StreamedBinaryReadILb1EE8TransferI8Vector3fEEvRT_PKc17TransferMetaFlags
v0i:_InternalEnumerator_1_get_Current_m2198364332_AdjustorThunk
ita:__ZN27GenericSlowGarbageCollector16ProcessReferenceEi
V6f:_RealProxy_InternalGetProxyType_m858618403
Eoe:_FieldAccessException__ctor_m1240495912
Qbj:_Uri_HexUnescapeMultiByte_m25670899
INd:_CanvasScaler_set_dynamicPixelsPerUnit_m742632820
Pnk:_fopen
Vyc:__ZN32PlaneColliderCache_dense_hashmapD2Ev
_3c:__ZN20TextRenderingPrivate8FontImplD2Ev
oZ:__ZN19CloudServiceHandler8SaveFileERKN4core12basic_stringIcNS0_20StringStorageDefaultIcEEEEPKvj
qHd:_BaseInputModule_HandlePointerExitAndEnter_m1570886840
C0f:_X509EnhancedKeyUsageExtension_CopyFrom_m1426370958
Msc:__ZN9rapidjson13GenericReaderINS_4UTF8IcEES2_13JSONAllocatorE10ParseValueILj1ENS_25GenericInsituStringStreamIS2_EENS_15GenericDocumentIS2_S3_S3_EEEEvRT0_RT1_
Hwk:_glFramebufferTexture2D__wrapper
slk:__ZN6il2cpp6icalls8mscorlib6System7Runtime8Remoting7Proxies9RealProxy27InternalGetTransparentProxyEP12Il2CppObjectP12Il2CppString
ulf:_List_1_AddEnumerable_m1000825969_gshared
H9j:__ZN6il2cpp2vm6Method10IsInflatedEPK10MethodInfo
jek:__ZNK6il2cpp8metadata14Il2CppTypeLessclEPK10Il2CppTypeS4_
afk:_GC_remove_header
vKe:_RegionInfo_GetHashCode_m1038358761
rGj:__ZN15dense_hashtableINSt3__24pairIK10KeyWrapperIPK11Il2CppClassEPKcEES6_N6il2cpp5utils11PointerHashIS3_EEN14dense_hash_mapIS6_S9_SE_NS6_14EqualsComparerINS0_8equal_toIS5_EEEENS0_9allocatorISA_EEE9SelectKeyESJ_SL_E14squash_deletedEv
ET:__ZN17AudioClipPlayableC2E18DirectorPlayerType
YQi:_ConfigHandler_ReadCustomProviderData_m784203316
bjb:__ZNSt3__26vectorI17SortingLayerEntryNS_9allocatorIS1_EEE7reserveEj
COf:_Context_set_MasterSecret_m1422386411
KNb:__Z19TransferField_ArrayI19StreamedBinaryWriteILb0EE27Converter_UnityEngineObjectEvRK23StaticTransferFieldInfoR31RuntimeSerializationCommandInfoRT0_
mVc:__ZN10ClipperLib7Clipper15AddLocalMinPolyEPNS_5TEdgeES2_RKNS_8IntPointE
_Kf:_RSAManaged_ToXmlString_m2606223477
Y7i:_CharacterClass__ctor_m1318163925
gOg:__Z150RuntimeInvoker_Void_t1841601450_Vector3_t2243707580_Color32_t874517518_Vector2_t2243707579_Vector2_t2243707579_Vector3_t2243707580_Vector4_t2243707581PFvvEPK10MethodInfoPvPS4_
BXg:_AssemblyName_GetObjectData_m1221677827
JFa:__Z16GetMSAALevelDesc9MSAALevel
V1i:_InternalEnumerator_1_get_Current_m4196174237_AdjustorThunk
CWa:__ZN8Renderer27EnsureTransformInfoUpToDateEv
sca:__ZN15dense_hashtableINSt3__24pairIKN4core12basic_stringIcNS2_20StringStorageDefaultIcEEEEP11AssetBundleEES6_20StringHash32FunctionIS6_EN14dense_hash_mapIS6_S9_SC_NS0_8equal_toIS6_EENS0_9allocatorISA_EEE9SelectKeyESF_SH_E9copy_fromERKSK_j
tBk:_emscripten_glFrontFace__wrapper
wDh:_Display_GetRenderingExtImpl_m3739199112
Oa:invoke_fiffi
Djk:__ZN6il2cpp5utils6Memory6CallocEjj
C5:__ZN14SerializedFile14SerializedType8ReadTypeILb1EEEbibRPKhS3_Pi
Cwk:_emscripten_glRenderbufferStorage__wrapper
mnb:__ZN8Playable7SetTimeEd
u1:__ZN13RuntimeStaticI12GraphicsCapsLb0EE16StaticInitializeEPv
vva:__ZN9Texture3D17UploadToGfxDeviceEv
fwc:__Z18Transfer_BlittableI8JSONReadLb1E8Vector4fEvRK29SerializationCommandArgumentsR31RuntimeSerializationCommandInfo
n7c:_tt_cmap2_validate
iRf:_HttpsClientStream_U3CHttpsClientStreamU3Em__1_m4293802471
gcd:_cff_cmap_unicode_done
DIe:_NumberFormatter_Init_m1515770916
maj:_Literal_Compile_m3864266818
Egb:__ZN9Scripting20SendScriptingMessageER10GameObjectPKc18ScriptingObjectPtr
wga:__Z26IsSplashScreenFadeCompletev
Mwb:__Z17SendMessageDirectR6ObjectRK17MessageIdentifierR11MessageData
ed:_glGenSamplers
AXd:_InputField_LateUpdate_m1045279070
afc:__Z42Register_UnityEngine_Camera_get_clearFlagsv
sNj:__ZNSt3__26__treeIP11Il2CppClassNS_4lessIS2_EENS_9allocatorIS2_EEED2Ev
fNh:_Dictionary_2_InitArrays_m852496598_gshared
wYi:_InternalEnumerator_1_get_Current_m1389169756_gshared
nah:_GUIScrollGroup_SetVertical_m3540700730
Ifg:_StringBuilder_set_Chars_m1019094834
Z9c:_UNITY_FT_Get_Module
j6a:__ZN15LODGroupManager24UpdateLODGroupComponentsEv
vbb:__ZN13RenderManager27UpdatePreviousFrameMatricesEv
h3d:_Byte_System_IConvertible_ToUInt64_m2667486567
t7:__Z22SetManagerPtrInContextiP6Object
XAb:__ZN14PlayerSettings8TransferI19StreamedBinaryWriteILb0EEEEvRT_
Tvc:__Z18Transfer_BlittableI8JSONReadLb0E10ColorRGBAfEvRK29SerializationCommandArgumentsR31RuntimeSerializationCommandInfo
Twf:_Collection_1_Remove_m2017992820_gshared
Qze:_Array_InternalArray__Insert_TisInt16_t4041245914_m371511339_gshared
YYg:_ConstructorBuilder_get_next_table_index_m932085784
OLh:_ValueCollection_System_Collections_ICollection_get_SyncRoot_m919209341_gshared
DJj:__ZN15dense_hashtableINSt3__24pairIK10KeyWrapperIN6il2cpp5utils13dynamic_arrayIPK10Il2CppTypeLj4EEEEPFvvEEESA_NS3_8metadata19Il2CppSignatureHashEN14dense_hash_mapISA_SD_SG_NSA_14EqualsComparerINSF_22Il2CppSignatureCompareEEENS0_9allocatorISE_EEE9SelectKeyESK_SM_E14squash_deletedEv
aLi:_Slider_UpdateDrag_m1963963631
Tbg:_SByte_Equals_m755715567
naa:__ZN15DirectorManagerD2Ev
m$e:_SortKeyBuffer_AppendNormal_m2554296431
$1b:__ZNK30SpriteRendererAnimationBinding15GenerateBindingERKN4core12basic_stringIcNS0_20StringStorageDefaultIcEEEEbRN11UnityEngine9Animation14GenericBindingE
tHg:__Z87RuntimeInvoker_Void_t1841601450_Int32_t2071877448_Single_t2076509932_Single_t2076509932PFvvEPK10MethodInfoPvPS4_
G3j:__ZN6il2cpp6icalls8mscorlib6System13Globalization11CultureInfo45construct_internal_locale_from_current_localeEP17Il2CppCultureInfo
Hzi:__ZL70InputField_t1631627530_CustomAttributesCacheGenerator_m_CaretBlinkRateP21CustomAttributesCache
Qve:_Array_IndexOf_TisCustomAttributeNamedArgument_t94157543_m2205974312_gshared
Tve:_Array_IndexOf_TisAnimatorClipInfo_t3905751349_m4033344779_gshared
eMa:__ZN15TextureTFMethod16BindForRenderingEj
Dre:_Array_InternalArray__ICollection_Contains_TisUICharInfo_t3056636800_m2001435744_gshared
vQh:_DefaultComparer_GetHashCode_m3250641461_gshared
y1f:_Key_ToString_m1129871742
$$d:_Array_Sort_m1417611156
gok:_access
Hug:__Z59RuntimeInvoker_RuntimeObject_RuntimeObject_Int64_t909078037PFvvEPK10MethodInfoPvPS4_
$3j:__ZN15dense_hashtableINSt3__24pairIK10KeyWrapperINS1_IPKcS4_EEEiEES6_24NamespaceAndNamePairHashN14dense_hash_mapIS6_iS9_NS6_14EqualsComparerI26NamespaceAndNamePairEqualsEENS0_9allocatorIS8_EEE9SelectKeyESD_SF_E4findERS7_
wbj:_Uri_Merge_m2181117222
D1c:__ZN20TextRenderingPrivate8FontImpl13CharacterInfo8TransferI19StreamedBinaryWriteILb0EEEEvRT_
LLj:__ZN6il2cpp2os19SocketHandleWrapper7ReleaseEv
eQd:_DefaultControls_CreateRawImage_m2572997170
a0a:__Z20RenderFullScreenQuadR9GfxDeviceRK6Camera17ShaderChannelMaskRK5RectTIfEf21MonoOrStereoscopicEye
qkg:_TimeSpan_get_TotalDays_m3496775483_AdjustorThunk
cAb:__ZNSt3__27__sort4IRNS_6__lessINS_4pairIPKN5Unity4TypeE7Hash128EES8_EEPS8_EEjT0_SC_SC_SC_T_
Yka:__ZNK11NamedObject22GetTypeVirtualInternalEv
$ig:_Thread_Start_m1419497481
OLg:__Z94RuntimeInvoker_Void_t1841601450_RuntimeObject_PlayableGraph_t1041204988_RuntimeObject_IntPtr_tPFvvEPK10MethodInfoPvPS4_
sFe:_Array_InternalArray__get_Item_TisDictionaryEntry_t3048875398_m2371191320_gshared
Kyi:__ZL62FontData_t2614388407_CustomAttributesCacheGenerator_m_RichTextP21CustomAttributesCache
Nwg:__Z65RuntimeInvoker_Double_t4078015681_RuntimeObject_Int32_t2071877448PFvvEPK10MethodInfoPvPS4_
kWi:_InternalEnumerator_1_get_Current_m2351441486_gshared
RJh:_Enumerator_System_Collections_IEnumerator_Reset_m1146954164_AdjustorThunk
Toc:__ZN11IMGUIModule21QueryGUIDisplayTargetE17ScriptingClassPtr
Hdc:__ZN11UTF16StringC2ERKS_18MemLabelIdentifier
Pah:_GUISkin_set_textField_m1154803040
rrk:dynCall_vidi
g9g:_GUIStyle_GetRectOffsetPtr_m4223228888
UCf:_ReadOnlyCollection_1_System_Collections_IList_Remove_m2350545199_gshared
Ceh:_Input_get_mouseScrollDelta_m3430638853
brk:___udivdi3
g_b:__ZN11PlayerPrefs9SetStringERKN4core12basic_stringIcNS0_20StringStorageDefaultIcEEEES6_
Shk:__ZN6il2cpp6icalls8mscorlib6System8Delegate18SetMulticastInvokeEP14Il2CppDelegate
xQc:__ZL18b2FindIncidentEdgeP12b2ClipVertexPK14b2PolygonShapeRK11b2TransformiS3_S6_
kth:_AnimatorControllerPlayable_SetLayerWeight_m3897438650_AdjustorThunk
zZd:_LayoutGroup_get_minHeight_m2270010946
pX:__ZN11UnityEngine15CloudWebService20WebRequestRestClient5BeginEv
nJf:_ARC4Managed_GenerateIV_m2815460576
yBd:_String_Substring_m2032624251
t4b:__ZN8Material12CleanupClassEv
Ohe:_DateTime_get_DayOfWeek_m2345429939_AdjustorThunk
Wlg:_Type_GetTypeCode_m1044483454
$Ni:_ResourceSet_GetObjectInternal_m3556256510
pKb:__Z22TransferField_NonArrayI17RemapPPtrTransfer27Converter_SimpleNativeClassI10RectOffsetEEvRK23StaticTransferFieldInfoR31RuntimeSerializationCommandInfoRT0_
ode:_DateTimeOffset__ctor_m2870721395
jP:__ZN20SoundChannelInstance11set3DSpreadEf
Jz:__ZNSt3__26__sortIRN11UnityEngine9Animation11BindingSortEPNS_4pairINS2_14GenericBindingEPNS2_10BoundIndexEEEEEvT0_SB_T_
uEd:_String_ReplaceFallback_m64616664
e5g:_MonoMethod_GetCustomAttributes_m2493833930
PAb:__ZN24GenerateTypeTreeTransfer32TransferSTLStyleArrayWithElementI16SplashScreenLogoEEvRT_17TransferMetaFlags
_Sj:__ZN15dense_hashtableINSt3__24pairIK10KeyWrapperINS1_IPK9FieldInfoP11Il2CppClassEEEjEES9_17ReflectionMapHashIS8_EN14dense_hash_mapIS9_jSD_NS9_14EqualsComparerINS0_8equal_toIS8_EEEENS0_9allocatorISB_EEE9SelectKeyESI_SK_E6insertERKSB_
LGj:__ZN14dense_hash_mapI10KeyWrapperIPKcEP11Il2CppClassN6il2cpp5utils11StringUtils12StringHasherIS2_EENS3_14EqualsComparerINS7_13VmStringUtils21CaseSensitiveComparerEEENSt3__29allocatorINSF_4pairIKS3_S5_EEEEEC2EjRKSA_RKSE_
eNe:_Int32_System_IConvertible_ToDouble_m3322226667_AdjustorThunk
mze:_Array_InternalArray__ICollection_CopyTo_TisPlayableBinding_t2498078091_m2296273826_gshared
$qk:_memmove
LAj:_Comparison_1_BeginInvoke_m4224593217_gshared
mcg:_CodeAccessPermission_ToString_m3345031296
K7j:__ZN6il2cpp2vm6Object5UnboxEP12Il2CppObject
BWf:_FtpWebRequest__ctor_m3003551676
vec:__Z52Register_UnityEngine_ScriptableObject_CreateInstancev
G4e:_EncryptedPrivateKeyInfo__ctor_m832236482
O$:__ZN23DefaultMeshVertexFormatC2E17ShaderChannelMask
cPb:__ZL26Transfer_SimpleNativeClassI18StreamedBinaryReadILb1EE8GradientLb1EEvRK29SerializationCommandArgumentsR31RuntimeSerializationCommandInfo
GCd:_Single_Equals_m3359827399
Lig:_Thread_FreeLocalSlotValues_m2948667652
jcb:__ZNSt3__26vectorINS_4pairIN4core12basic_stringIcNS2_20StringStorageDefaultIcEEEES6_EE13stl_allocatorIS7_L18MemLabelIdentifier37ELi16EEE12__move_rangeEPS7_SC_SC_
rFa:__ZN7ApiGLES10InvalidateERK14GfxContextGLES
wJc:__ZN11ShapeModule20EmitterStoreMeshDataI11ColorRGBA32EEvRK27ParticleSystemReadOnlyStateRK19ParticleSystemStateR23ParticleSystemParticlesRKN4math8float3x3ERKNSA_8float4x4Ejb
n2e:_ASN1Convert_ToOid_m2695991795
wed:_UNITY_FT_Init_Class_tt_service_truetype_glyf
$jk:__ZN6il2cpp2os5Mutex7TryLockEjb
P$:__Z20IsVectorBuiltinParamPKcPi
h7j:__ZN6il2cpp2vm5Field8GetFlagsEP9FieldInfo
hjh:_PlayableGraph_INTERNAL_CALL_CreatePlayableHandleInternal_m1089209954
J$i:_InternalEnumerator_1_get_Current_m727737343_AdjustorThunk
n0j:__ZN6il2cpp6icalls8mscorlib6System10ReflectionL16LoadResourceFileEP24Il2CppReflectionAssembly
e5:__Z13IsFileCreatedRKN4core12basic_stringIcNS_20StringStorageDefaultIcEEEE
_ik:__ZN6il2cpp6icalls8mscorlib6System21CurrentSystemTimeZone15GetTimeZoneDataEiPP11Il2CppArrayS6_
rqb:__ZN16LightmapSettings18TransferDeprecatedI14SafeBinaryReadEEvRT_
zyb:__ZN8Renderer11SetMaterialE4PPtrI8MaterialEi
U6j:__ZN15dense_hashtableINSt3__24pairIK10KeyWrapperIP12Il2CppObjectEN6il2cpp2gc9CachedCCWEEES5_NS7_5utils11PointerHashIS3_EEN14dense_hash_mapIS5_S9_SD_NS5_14EqualsComparerINS0_8equal_toIS4_EEEENS0_9allocatorISA_EEE9SelectKeyESI_SK_E5eraseE30dense_hashtable_const_iteratorISA_S5_SD_SM_SI_SK_E
k3:__ZN15dense_hashtableINSt3__24pairIKiP6ObjectEEi21InstanceIDHashFunctorN14dense_hash_mapIiS4_S6_NS0_8equal_toIiEE13stl_allocatorIS5_L18MemLabelIdentifier65ELi16EEE9SelectKeyES9_SC_E12maybe_shrinkEv
DNc:__ZN14ParticleSystem28SetPlayOnAwakeDirectChildrenEPS_b
_Cd:_String__cctor_m710226597
r4i:_DefaultComparer_Compare_m3953592365_gshared
wyf:_Collection_1_IsValidItem_m404831699_gshared
Skg:_TimeSpan_Negate_m4198463235_AdjustorThunk
Gkb:__ZN12FlareManager9AddCameraER6Camera
$P:__ZN11AudioSource8TransferI14SafeBinaryReadEEvRT_
N8b:__ZN4Mesh17SetIndicesComplexEPKvjj16GfxPrimitiveTypei
p6g:_ParameterInfo_GetCustomAttributes_m2985072480
Qwf:_Collection_1_Insert_m4010554762_gshared
Zu:__ZN7mecanim9animation23TransformDeltasFromClipEiiiRKNS0_18ClipMuscleConstantERKNS0_12ClipBindingsERKNS_14ValueArrayMaskERN4math4trsXESC_SC_
RCe:_Array_Sort_TisRuntimeObject_m1954851512_gshared
PUc:__ZTv0_n12_N10ClipperLib7ClipperD0Ev
jgh:_Matrix4x4_GetColumn_m1367096730_AdjustorThunk
tSi:_ContextAttribute_GetHashCode_m3646968314
f$e:_SimpleCollator_GetSortKey_m540875593
lXb:__ZN9ShaderLab9IntShader26CreateFromSerializedShaderERKNS_16SerializedShaderERNSt3__26vectorI4PPtrI6ShaderENS4_9allocatorIS8_EEEEbPS7_
eXa:__ZN19ShaderPropertySheet16SetComputeBufferEN9ShaderLab16FastPropertyNameE15ComputeBufferIDNS_8SetFlagsE
ubk:__ZNK15dense_hashtableINSt3__24pairIK10KeyWrapperIPK19Il2CppGenericMethodEP10MethodInfoEES6_N6il2cpp8metadata23Il2CppGenericMethodHashEN14dense_hash_mapIS6_S9_SD_NS6_14EqualsComparerINSC_26Il2CppGenericMethodCompareEEENS0_9allocatorISA_EEE9SelectKeyESH_SJ_E5beginEv
bv:__ZN7mecanim21CreateFloatValueArrayEPKNS_18ValueArrayConstantERNS_6memory9AllocatorE
Oig:_Thread_GetCachedCurrentCulture_m450033007
B6a:__ZL12CullGroupJobP20CullingGroupsJobDataj
yfk:_GC_remove_dangling_disappearing_links
dY:__ZN11UnityEngine15CloudWebService14RestDownloader9IsAbortedEv
iy:__ZN7mecanim12statemachine28DestroyStateMachineWorkspaceEPNS0_21StateMachineWorkspaceERNS_6memory9AllocatorE
Wk:_emscripten_glNormalPointer
xqc:__Z30GUIStyle_CUSTOM_SetDefaultFontP12Il2CppObject
J2f:_Interval_t2354235237_marshal_pinvoke_back
Bo:FUNCTION_TABLE_f
sp:FUNCTION_TABLE_i
Nke:_Decimal_ToString_m541380585_AdjustorThunk
Zba:__ZN11TypeManager12RegisterTypeERK20TypeRegistrationDesc
Pn:FUNCTION_TABLE_v
Tvb:__ZNSt3__26vectorI17BlendShapeChannelNS_9allocatorIS1_EEE8__appendEj
SUd:_Image_get_preserveAspect_m2161836851
dHc:__ZNK11ColorModule12UpdateSingleERK22ParticleSystemParticleR11ColorRGBA32
Dq:__ZN18StreamedBinaryReadILb0EE21TransferSTLStyleArrayI13dynamic_arrayI8Vector3fLj4EEEEvRT_17TransferMetaFlags
uUa:__ZZ23InitPlayerLoopCallbacksvEN43PostLateUpdateUpdateAllRenderersRegistrator7ForwardEv
xua:__ZN21LightProbeProxyVolume13GetRenderDataER27LightProbeProxyVolumeSample
Wge:_CurrentSystemTimeZone_GetDaylightChanges_m2777828412
JOj:__ZN6il2cpp2vm7Runtime30CallUnhandledExceptionDelegateEP12Il2CppDomainP14Il2CppDelegateP15Il2CppException
ynj:_Predicate_1_Invoke_m577088274_gshared
a7f:_RemotingProxy_get_TypeName_m1400928020
Kzb:__ZN11TimeManager8TransferI24GenerateTypeTreeTransferEEvRT_
k$e:_SortKeyBuffer_GetResult_m962852575
T_e:_SimpleCollator_Category_m1504096908
vr:__ZNK11UnityEngine9Animation28GenericAnimationBindingCache10BindCustomERKNS0_14GenericBindingER9TransformRNS0_10BoundCurveE
vpd:__ZN18UnityConnectClient17InitConnectClientEv
jVi:_ArrayReadOnlyList_1_ReadOnlyError_m2158247090_gshared
Cmk:_memcmp
eie:_DateTime_CompareTo_m3372173896
Vmh:_Rect_ToString_m2728794442
Usa:__ZN9Scripting32GetCachedPtrFromScriptingWrapperE18ScriptingObjectPtr
Jhd:__ZN2UI29ScheduleUIJobsForInstructionsERNS_7BatchesEjPKNS_13UIInstructionEfjjPNS_13CanvasJobDataE
wN:__ZN5audio5mixer22CreateAudioMixerMemoryERKNS0_18AudioMixerConstantEPN4FMOD6SystemERN7mecanim6memory9AllocatorEib
SDb:__ZL65EmitSerializationCommandsForLinearCollectionOfManagedObjectsFieldRK31TransferFunctionScriptingTraitsRK23TransferArrayField_InfoR20SerializationCommandR32SerializationCommandQueueBuilderRP20AllowNameConversions
aSf:_RSASslSignatureDeformatter_VerifySignature_m3138484348
Kye:_Array_InternalArray__ICollection_CopyTo_TisDecimal_t724701077_m1087621311_gshared
DHh:_Enumerator_System_Collections_IDictionaryEnumerator_get_Value_m2325383168_AdjustorThunk
eJc:__ZL8Perlin1DRKN4math8floatNx3ERKf
sfe:_Convert_ToInt64_m4280008532
nic:__Z28Mesh_CUSTOM_SetTrianglesImplP12Il2CppObjectiP11Il2CppArrayih
nAi:__ZL61RawImage_t2749640213_CustomAttributesCacheGenerator_m_TextureP21CustomAttributesCache
jza:__ZL20ShaderWarmupFuncImplP6ShaderiPN9ShaderLab4PassERK16ShaderKeywordSetP10DynamicVBOPvR17ShaderPassContext
xtd:_HMAC_set_Key_m1530357889
kcj:_Vector2_get_zero_m3966848876
xIj:__ZN15dense_hashtableI10KeyWrapperIPK17Il2CppGenericInstES4_N6il2cpp8metadata21Il2CppGenericInstHashEN14dense_hash_setIS4_S7_NS4_14EqualsComparerINS6_24Il2CppGenericInstCompareEEENSt3__29allocatorIS4_EEE8IdentityESB_SE_E6insertERKS4_
qSj:__ZN15dense_hashtableINSt3__24pairIK10KeyWrapperINS1_IPK14Il2CppAssemblyP11Il2CppClassEEEjEES9_17ReflectionMapHashIS8_EN14dense_hash_mapIS9_jSD_NS9_14EqualsComparerINS0_8equal_toIS8_EEEENS0_9allocatorISB_EEE9SelectKeyESI_SK_E3endEv
SGi:_Scrollbar_set_numberOfSteps_m579707524
Mmk:_fmt_u
jGa:__ZN14DataBufferGLES12RecordUpdateEv
U6g:_ResourceManager__cctor_m2190112652
R2c:__ZN20TextRenderingPrivate15DynamicFontData28GetFaceForFontRefFromOSFontsERKNS_7FontRefE
Nic:__Z34MonoBehaviour_CUSTOM_StopCoroutineP12Il2CppObjectP12Il2CppString
IVa:__ZN10systeminfo19IsPlatformWebPlayerE15RuntimePlatform
M7j:__ZN6il2cpp2vm12GenericClass12SetupMethodsEP11Il2CppClass
ifa:__ZNK20LocalFileSystemPosix18GetApplicationPathEv
Sde:_Decimal__ctor_m3876694886
ODb:__ZN9Scripting30IsSystemCollectionsGenericListE17ScriptingClassPtr
M0d:_AttributeUsageAttribute__ctor_m2873156923
$hd:__ZN2UI23InitializeCanvasManagerEv
C9a:__ZN10GameObject16CheckConsistencyEv
r2b:__ZN14RenderSettings15InitializeClassEv
PYf:_AsnEncodedData_set_Oid_m3568255745
Ogc:__Z46Register_UnityEngine_GameObject_get_activeSelfv
QSf:_SslClientStream_OnRemoteCertificateValidation2_m3416857045
mbg:_RuntimeTypeHandle_Equals_m452760426_AdjustorThunk
nzh:_Camera_get_depth_m1329692468
B2b:__ZL19OnLightProbesUpdatev
J3i:_InternalEnumerator_1_System_Collections_IEnumerator_get_Current_m762846484_AdjustorThunk
S1b:__ZN14SpriteRenderer13GetRenderDataEv
uDj:_AnalyticsTracker_OnEnable_m1011291651
jhd:__ZN2UI16GetCanvasManagerEv
xoc:__ZNK8GUIStyle20GetCursorStringIndexERK5RectTIfER10GUIContentRK8Vector2f
t9b:__ZN15GUIEventManager8PopEventER10InputEvent
Ufc:__Z31RectOffset_Get_Custom_PropRightP12Il2CppObject
wfd:__Z54Register_UnityEngine_TextGenerator_GetVerticesInternalv
Tud:__Z3BoxP11Il2CppClassPv
Ype:_CultureInfo_Clone_m2970753766
c2f:_IntStack_Push_m1259764820
jMa:__ZN21UniformBufferTFMethodD2Ev
gRe:_FileStream_InitBuffer_m2153931481
Bmg:_Type_MakeGenericType_m2765875033
Rbc:__ZL34GetComponentsImplementationRecurseILb1ELi1ELi2EEbR10GameObjectbRK17CompareParametersRK39GetComponentsImplementation_ReturnValue
Ipa:__ZN6prcoreL12RemapGenericI15TexFormatRGB56515TexFormatRGB888EEvPKNS_9InnerInfoE
MXd:_InputField_OnEndDrag_m1818224847
uqe:_Array_get_swapper_TisCustomAttributeNamedArgument_t94157543_m752138038_gshared
BHe:_NumberFormatter_GetInstance_m2421260460
mjd:__Z41CanvasGroup_Get_Custom_PropBlocksRaycastsP12Il2CppObject
GTb:__ZNSt3__26vectorIN9ShaderLab26SerializedShaderDependencyENS_9allocatorIS2_EEE8__appendEj
VZi:_InternalEnumerator_1_System_Collections_IEnumerator_get_Current_m4242639349_gshared
S6:__ZN32TransformHierarchyChangeDispatch26DispatchSelfAndAllChildrenE15TransformAccessNS_12InterestTypeE
Peg:_UTF32Encoding__ctor_m3199945978
x8:__ZN13RuntimeStaticI22VirtualJoystickManagerLb0EE13StaticDestroyEPv
rK:__ZN13AudioListener12ApplyFiltersEv
Luh:_AnimatorControllerPlayable_PlayInFixedTime_m3726932292_AdjustorThunk
EKe:_SortKey_GetHashCode_m2534654444
_qe:_Array_InternalArray__ICollection_Contains_TisInt64_t909078037_m1425723755_gshared
CPf:_HandshakeMessage_Update_m1733566706
utk:dynCall_viiif
Xjk:__ZN6il2cpp8metadata27Il2CppGenericContextCompare7CompareEPK20Il2CppGenericContextS4_
xsk:dynCall_viiii
s6d:_ArrayListWrapper_ToArray_m235921330
iJf:_ARC4Managed_set_Key_m663161993
Y2g:_MemberInfoSerializationHolder_Serialize_m4243060728
jBh:_Collision2D_get_rigidbody_m4058558226
XEi:_MaskableGraphic_OnDisable_m2605143092
vRj:__ZNSt3__214__split_bufferIN6il2cpp2vm17TypeNameParseInfoERNS_9allocatorIS3_EEED2Ev
PHc:__ZNK16CustomDataModule6UpdateER23ParticleSystemParticlesjj
lBh:_Collision2D_get_transform_m314016758
smg:_Type_GetConstructor_m663514781
cOe:_Int64_System_IConvertible_ToDouble_m638786774_AdjustorThunk
wKg:__Z98RuntimeInvoker_Void_t1841601450_Rect_t3681755626_RuntimeObject_Int32_t2071877448_Int32_t2071877448PFvvEPK10MethodInfoPvPS4_
nba:__ZN15DirectorManager14ConnectionPool16GrowEmptyBucketsEv
MMe:_Int16_ToString_m1247017262
Y2:__ZN17PersistentManager32CopyToAwakeFromLoadQueueInternalER18AwakeFromLoadQueue
ule:_Delegate_Combine_m1976351882
NTc:__ZN10Collider2D23VirtualRedirectTransferER24GenerateTypeTreeTransfer
O$a:__ZNK6Camera16SetActiveVRUsageEv
log:_UInt32_System_IConvertible_ToUInt16_m2798641702
Vwk:_emscripten_glDrawElementsInstanced__wrapper
uU:__ZN13PlayableGraph12CreateOutputI19AudioPlayableOutputEEPT_PKc
Kfj:_Texture_Internal_GetWidth_m56137242
twc:__ZL26Transfer_SimpleNativeClassI8JSONRead8GradientLb1EEvRK29SerializationCommandArgumentsR31RuntimeSerializationCommandInfo
enk:_open
s_c:__ZN6b2Body7SetTypeE10b2BodyType
w$j:__ZN6il2cpp6icalls8mscorlib6System5Array5CloneEP11Il2CppArray
Cbb:__Z30GetPlayerShouldRunInBackgroundv
GT:__ZNK17AudioClipPlayable13GetStartDelayEv
y3i:_InternalEnumerator_1_get_Current_m2986222582_gshared
iqg:_UnitySerializationHolder__ctor_m2832165173
jgg:_UnicodeEncoding_GetBytes_m4175529985
vid:__Z13RegisterClassIN2UI6CanvasEEvv
tQi:_CrossAppDomainChannel_RegisterCrossAppDomainChannel_m43456045
bHi:_Selectable_OnDisable_m2660228016
Cpa:__ZN6prcoreL12RemapGenericI11TexFormatI815TexFormatRGB565EEvPKNS_9InnerInfoE
b0:__ZN13RuntimeStaticINSt3__23setI19RepeatingLogMessageNS0_4lessIS2_EE13stl_allocatorIS2_L18MemLabelIdentifier71ELi16EEEELb0EE13StaticDestroyEPv
cCg:__Z75RuntimeInvoker_DateTime_t693205669_DateTime_t693205669_TimeSpan_t3430258949PFvvEPK10MethodInfoPvPS4_
mAa:__ZNK13TranslateGLES17FramebufferTargetEN2gl17FramebufferTargetE
oak:__ZL11on_gc_event11GCEventType
q_j:__ZNSt3__214__split_bufferIN6il2cpp8metadata18GenericArrayMethodERNS_9allocatorIS3_EEED2Ev
WBd:_Single_System_IConvertible_ToBoolean_m2661548087_AdjustorThunk
BYc:__ZNSt3__27__sort5IR31RayHitsByInverseDepthComparitorP12RaycastHit2DEEjT0_S5_S5_S5_S5_T_
Odg:_DSASignatureDeformatter_VerifySignature_m4078616251
Evk:b62
Dvk:b61
Cvk:b60
Jvk:b67
Lwe:_Array_InternalArray__IndexOf_TisUInt16_t986882611_m390127593_gshared
UVd:_InputField_set_shouldHideMobileInput_m2478534110
Gvk:b64
HEd:_String_Concat_m3881798623
Gwk:b68
D$g:_FieldBuilder_IsDefined_m2730324893
X9h:__ZL56FlagsAttribute_t859561169_CustomAttributesCacheGeneratorP21CustomAttributesCache
oFg:__Z102RuntimeInvoker_RuntimeObject_RuntimeObject_RuntimeObject_Int32_t2071877448_RuntimeObject_RuntimeObjectPFvvEPK10MethodInfoPvPS4_
jth:_AnimatorControllerPlayable_SetLayerWeight_m3897438650
jGf:_ReadOnlyCollection_1_System_Collections_IList_Insert_m571902768_gshared
tAg:__Z93RuntimeInvoker_Single_t2076509932_SingleU26_t4173844468_Single_t2076509932_Single_t2076509932PFvvEPK10MethodInfoPvPS4_
zsk:dynCall_iifffi
K9b:__Z9SetIIMGUIP6IIMGUI
Bae:_SyncHashtable_ContainsKey_m3408601214
cWc:__ZN17CapsuleCollider2D23VirtualRedirectTransferER14SafeBinaryRead
F7c:_tt_cmap10_get_info
bha:__Z28SetupPixelCorrectCoordinatesi
lVd:_Image_set_material_m982841032
OFa:__Z5SplitRKN4core12basic_stringIcNS_20StringStorageDefaultIcEEEEcRNSt3__26vectorIS3_NS6_9allocatorIS3_EEEEi
KEj:__ZN6il2cpp2vmL10InitLockedEP11Il2CppClassRKNS_2os12FastAutoLockE
k6a:__ZN15LODGroupManager26CollectAllLODGroupManagersEPK6CameraR13dynamic_arrayIPS_Lj4EEb
K3:__ZN17ScriptingGCHandle28ResolveBackendNativeGCHandleEj
nQh:_DefaultComparer_Equals_m524689061_gshared
D6b:__ZN13PlayableGraph16DestroyRecursiveEP8Playable
HMc:__Z9UpdateTplIL22MinMaxGradientEvalMode2EL12GradientMode0ELS1_0EEvRK23ParticleSystemParticlesP11ColorRGBA32RK14MinMaxGradientRK23OptimizedMinMaxGradientRK8Vector2f
hme:_Double_System_IConvertible_ToType_m4036266196_AdjustorThunk
yK:__ZN12AudioManagerD0Ev
Kmk:___fwritex
dc:invoke_viiififii
dBc:__Z27CubicPolynomialRootsGenericPfdddd
cSe:_Stream_EndRead_m2148943753
RBb:__ZNK22GenericPropertyBinding13SetFloatValueERKN11UnityEngine9Animation10BoundCurveEf
WMc:__ZN11ShapeModuleC2Ev
i2b:__ZN6ShaderC2E18MemLabelIdentifier18ObjectCreationMode
Kph:_AnimationClipPlayable_INTERNAL_CALL_SetRemoveStartOffsetInternal_m4218625892
O4c:_raccess_guess_darwin_ufs_export
$Lf:_CipherSuite_get_ExpandedKeyMaterialSize_m296573450
NTa:__ZN11TypeManager18InitializeAllTypesEv
AMc:__ZNK14MinMaxGradient19InitializeOptimizedER23OptimizedMinMaxGradient
II:__ZN9AudioClipD0Ev
Tcj:_Renderer_get_sortingOrder_m1544525007
ePj:_il2cpp_class_from_name
Vre:_Array_InternalArray__ICollection_Remove_TisKeyValuePair_2_t38854645_m3060436673_gshared
Nhf:_List_1_Find_m3480386930_gshared
$Rh:_EqualityComparer_1__cctor_m51007461_gshared
Jw:__ZN27AnimationLayerMixerPlayable26ProcessAnimationLayerBeginEP35AnimationPlayableEvaluationConstantP32AnimationPlayableEvaluationInputP33AnimationPlayableEvaluationOutput
j$b:__Z13RegisterClassI8GUILayerEvv
bgb:__ZN25ThreadsafeLinearAllocatorC2EiiPKc
F$e:_SimpleCollator_IsSuffix_m740049399
eKa:__ZN14GfxContextGLES11MakeCurrentER7ApiGLESN2gl13ContextHandleE
Ykj:_PKCS12__cctor_m3312759338
edd:_UNITY_tt_glyphzone_new
MNf:_RecordProtocol_BeginSendRecord_m166940611
PXe:_ShortComparer_Compare_m1398180168
ldj:_Screen_get_width_m41137238
Yhh:_Object_Internal_InstantiateSingleWithParent_m509082884
cza:__ZN16GraphicsSettings22WarmupPreloadedShadersEv
zkd:__Z34Canvas_Set_Custom_PropSortingOrderP12Il2CppObjecti
pTe:_MonoIO_get_ConsoleError_m592181393
VCj:__ZL11decimalLog2P19il2cpp_decimal_repr
qOc:__ZN16ParticleSortData12CompareValueERKS_S1_
lSf:_SslCipherSuite_prf_m2084589217
fb:invoke_iiiiiiffiiiiiiiiiffffiii
Xfd:__ZN2UI6Canvas8TransferI14SafeBinaryReadEEvRT_
GCh:_Coroutine_Finalize_m3953619693
oLg:__Z51RuntimeInvoker_Color32_t874517518_Color_t2020392075PFvvEPK10MethodInfoPvPS4_
Shj:_Vector2_op_Division_m96580069
jV:__ZN11UnityEngine15CloudWebService17CloudJobScheduler11ScheduleJobEPFvPvES2_
svi:__ZL57CSSMeasureFunc_t2092170507_CustomAttributesCacheGeneratorP21CustomAttributesCache
tLe:_Guid_Equals_m2389236871_AdjustorThunk
sW:__ZN11UnityEngine15CloudWebService17CloudServiceEvent12ToJsonStringER9JSONWrite
X8:__ZNK18VertexChannelsInfoltERKS_
DGc:__Z19UpdateProceduralTplIL27ParticleSystemCurveEvalMode1EEvRK22DualMinMax3DPolyCurvesS3_R23ParticleSystemParticlesRKN4math8float3x3E
e6h:__ZL93ASCIIEncoding_t3022927988_CustomAttributesCacheGenerator_ASCIIEncoding_GetDecoder_m3693600923P21CustomAttributesCache
jsc:__ZN9JSONWrite8TransferIfEEvRT_PKc17TransferMetaFlags
_Od:_ContentSizeFitter_SetLayoutHorizontal_m2830034151
iRa:__ZN10MemoryFileD0Ev
W6b:__ZN10MonoScript27InitializeAndRegisterScriptERKN4core12basic_stringIcNS0_20StringStorageDefaultIcEEEES6_S6_S6_b
$cg:_DES_set_Key_m2689203108
OWi:_InternalEnumerator_1_get_Current_m1526874475_gshared
nGe:_Array_InternalArray__get_Item_TisWorkRequest_t1154022482_m2456727038_gshared
okj:_SubjectAltNameExtension_ToString_m1300810903
e5e:_RSAManaged_ImportParameters_m2382611442
pHb:__ZN13GUIStyleState8TransferI14SafeBinaryReadEEvRT_
k5i:_Comparer_1_System_Collections_IComparer_Compare_m2490067344_gshared
P6i:_PatternCompiler_EmitSet_m866698437
$d:_glDrawArrays
fBf:_ReadOnlyCollection_1_System_Collections_IList_Add_m527174473_gshared
jZi:_InternalEnumerator_1_System_Collections_IEnumerator_get_Current_m127456009_AdjustorThunk
Mvj:_HashSet_1_System_Collections_Generic_ICollectionU3CTU3E_CopyTo_m1933244740_gshared
J6h:__ZL54UTF8Encoding_t111055448_CustomAttributesCacheGeneratorP21CustomAttributesCache
QD:__ZN23AnimatedPropertyBuilder5BuildEP13AnimationClip18ScriptingObjectPtr
$7b:__Z17InstantiateObjectR6ObjectR9TransformRK8Vector3fRK11Quaternionf
JNe:_Int32_TryParse_m656840904
Ore:_Array_InternalArray__ICollection_Remove_TisChar_t3454481338_m1562002771_gshared
_Ne:_Int64_System_IConvertible_ToDateTime_m1002280174_AdjustorThunk
gwb:__ZN14BlendShapeData8TransferI18StreamedBinaryReadILb0EEEEvRT_
tlk:__ZN6il2cpp6icalls8mscorlib6System7Runtime8Remoting7Proxies9RealProxy20InternalGetProxyTypeEP12Il2CppObject
IXa:__ZN13sorted_vectorINSt3__24pairIiN17InstancedPropInfo12PropertyTypeEEEN10vector_mapIiS3_NS0_4lessIiEE13stl_allocatorIS4_L18MemLabelIdentifier1ELi16EEE13value_compareESA_E21sort_clear_duplicatesEv
sdd:_Round_To_Grid
Z2c:_UNITY_FT_Stream_Close
Rca:__ZL20FormatOrderedProcessPKcP17FormatOrderedDataPc
yyc:__ZN9rapidjson6WriterI16TempBufferWriterNS_4UTF8IcEES3_13JSONAllocatorE9WriteBoolEb
Gfc:__Z35DebugLogHandler_CUSTOM_Internal_Log7LogTypeP12Il2CppStringP12Il2CppObject
Uwk:_emscripten_glShaderBinary__wrapper
iJa:__ZL17ProgramUniform3ivPK7ApiGLESjiihPKv
hCa:__ZN9GfxDevice25GetBackBufferColorSurfaceEv
ARa:__ZN25SingleBlockMemoryFileData9SetLengthEy
E7b:__Z29AwakeAndActivateClonedObjectsPP6ObjectRK10vector_mapIiiNSt3__24lessIiEE13stl_allocatorINS3_4pairIiiEEL18MemLabelIdentifier1ELi16EEE
kYj:__ZN15dense_hashtableINSt3__24pairIK10KeyWrapperINS1_IPK10MethodInfoP11Il2CppClassEEEjEES9_17ReflectionMapHashIS8_EN14dense_hash_mapIS9_jSD_NS9_14EqualsComparerINS0_8equal_toIS8_EEEENS0_9allocatorISB_EEE9SelectKeyESI_SK_E14squash_deletedEv
gMg:__Z55RuntimeInvoker_Void_t1841601450_RaycastResult_t21186376PFvvEPK10MethodInfoPvPS4_
A$b:__Z13RegisterClassI6ShaderEvv
lMe:_Int16_System_IConvertible_ToUInt32_m883204517
HNi:_ResourceCacheItem_t333236149_marshal_pinvoke_cleanup
_df:_List_1_CheckMatch_m1196994270_gshared
o0:__ZN13RuntimeStaticI11WindManagerLb0EE13StaticDestroyEPv
zge:_Convert_ToUInt64_m3559662221
_tc:__Z18Transfer_BlittableI9JSONWriteLb1EaEvRK29SerializationCommandArgumentsR31RuntimeSerializationCommandInfo
fYj:__ZN13Il2CppHashMapINSt3__24pairIPK10MethodInfoP11Il2CppClassEEj17ReflectionMapHashIS7_ENS0_8equal_toIS7_EENS0_9allocatorINS1_IK10KeyWrapperIS7_EjEEEEEC2EjRKS9_RKSB_
h5d:_ArrayList_set_Item_m1858827078
iva:__ZN9Texture3D23VirtualRedirectTransferER19StreamedBinaryWriteILb0EE
Vfk:_GC_reclaim_block
wJf:_HMAC__ctor_m2605930831
$R:__Z13RegisterClassI10SampleClipEvv
vQc:__Z23b2CollideRadialPolygonsP10b2ManifoldPK14b2PolygonShapeRK11b2TransformS3_S6_
K2a:__ZNK23ForwardShaderRenderLoop18RenderObjectSorterILb1EEclERK21ForwardRenderPassDataS4_
eU:__Z76Register_UnityEngine_Audio_AudioClipPlayable_INTERNAL_CALL_GetLoopedInternalv
ZJj:__ZN15dense_hashtableI10KeyWrapperIPK19Il2CppGenericMethodES4_N6il2cpp8metadata23Il2CppGenericMethodHashEN14dense_hash_setIS4_S7_NS4_14EqualsComparerINS6_26Il2CppGenericMethodCompareEEENSt3__29allocatorIS4_EEE8IdentityESB_SE_E12maybe_shrinkEv
_Ma:__ZN10BufferGLES10BeginWriteEjj
YJj:__ZNK15dense_hashtableI10KeyWrapperIPK19Il2CppGenericMethodES4_N6il2cpp8metadata23Il2CppGenericMethodHashEN14dense_hash_setIS4_S7_NS4_14EqualsComparerINS6_26Il2CppGenericMethodCompareEEENSt3__29allocatorIS4_EEE8IdentityESB_SE_E12test_deletedEj
$A:__ZN7mecanim12statemachine18StateMachineMemory8TransferI9BlobWriteEEvRT_
eZj:__GLOBAL__sub_I_ArrayMetadata_cpp
Kog:_UInt64_System_IConvertible_ToByte_m953298241
ZMa:__ZN7ApiGLES11FlushBufferEjN2gl12BufferTargetEll
Ige:_Convert_ToUInt64_m1896191125
iIb:__ZN14SafeBinaryRead21TransferSTLStyleArrayI13dynamic_arrayI8BitFieldLj4EEEEvRT_17TransferMetaFlags
vKa:__ZN12_GLOBAL__N_127PrepareReadback_ResolveMSAAER18GfxFramebufferGLESR7ApiGLESP17RenderSurfaceGLESS5_
L_g:_EnumBuilder_GetAttributeFlagsImpl_m4263246832
wHg:__Z98RuntimeInvoker_RaycastHit2D_t4063908774_Vector2_t2243707579_Vector2_t2243707579_Single_t2076509932PFvvEPK10MethodInfoPvPS4_
XMc:__ZN11ShapeModule13DidDeleteMeshEP14ParticleSystem
uYg:_CustomAttributeData_GetHashCode_m3989739430
hMi:_Text_AssignDefaultFont_m1295571657
X3b:__ZNK24RendererAnimationBinding9BindValueER6ObjectRKN11UnityEngine9Animation14GenericBindingERNS3_10BoundCurveE
_e:_glBindBuffer
KBc:__ZN15CollisionModule8TransferI14SafeBinaryReadEEvRT_
$Rb:__ZN8GUIStyle8TransferI18StreamedBinaryReadILb0EEEEvRT_
D9:__ZNSt3__213__stable_sortIRN10vector_mapIijNS_4lessIiEENS_9allocatorINS_4pairIijEEEEE13value_compareENS_11__wrap_iterIPS6_EEEEvT0_SE_T_NS_15iterator_traitsISE_E15difference_typeEPNSH_10value_typeEi
$vh:_Application_get_platform_m3989224144
